(lp0
(lp1
(lp2
F-0.9467921017533809
aF-0.03199336714146317
aF-0.2739150959683987
aF-0.8717958661261298
aF-0.6621598874476691
aF-0.057117311465121556
aF0.72884990079087
aF0.5497872366446475
aF0.718966515853539
aF0.4925350655125913
aF-0.995344493423223
aF0.7793746199894751
aF0.8451669897036822
aF0.8643018729313285
aF-0.2402110203893184
aF-0.05594541182413959
aF-0.09480353144447773
aa(lp3
F-0.6437813882242083
aF-0.3485303585859467
aF-0.8923928583292953
aF-0.3237494867816635
aF0.9864181020806784
aF0.7512141449207446
aF-0.6555642936101167
aF0.364515118830151
aF-0.02733471820440636
aF-0.011001808825749748
aF-0.49264240559490635
aF0.061559374673580525
aF-0.6385565154750088
aF-0.5737438765413545
aF-0.736556545952538
aF0.8610062349807917
aF-0.8636570234203249
aa(lp4
F-0.4600797321699619
aF-0.27241847343232184
aF0.19363178612863763
aF-0.315093131263561
aF0.7667140876732852
aF-0.5397303525665862
aF0.9038131963352622
aF0.818824452981638
aF-0.9012009213538763
aF0.7733831643942679
aF-0.1209856346506466
aF0.4814408799223595
aF-0.07387362212150661
aF0.3618255902365721
aF0.28544066355256303
aF0.21226176499714078
aF-0.2545614483460834
aa(lp5
F-0.4087232860158996
aF0.5216265082959819
aF-0.8215917504650241
aF0.48961293191413335
aF0.7013808577934113
aF0.16165145826469418
aF0.08847804483789301
aF-0.026488972069080408
aF-0.36218789745718016
aF0.8216580271345701
aF-0.41900749250295566
aF-0.4272641878616463
aF0.0017244002676246595
aF-0.10114208436702277
aF-0.7268152213170216
aF-0.4680089834633454
aF-0.313626261961486
aa(lp6
F-0.13651614127958256
aF-0.8142517860685152
aF-0.07393305212648427
aF-0.05121934989939558
aF0.7135925077002216
aF0.6712049521619095
aF0.4206331984643934
aF-0.7608568696433398
aF-0.6804973597899944
aF0.04486897943059076
aF0.32100632392413675
aF-0.8385256792869273
aF0.779278893668607
aF0.7164661031039601
aF-0.8936849595979162
aF0.9192113404507505
aF-0.9481911161314527
aa(lp7
F-0.0983930619846276
aF0.5072255276548321
aF-0.8751157615026024
aF0.05129565497486488
aF0.3375114457838009
aF-0.2967680152175636
aF0.8924475797418838
aF-0.2547332634245283
aF0.8981898729214663
aF-0.46294758514369794
aF0.30659516965765365
aF-0.20351943281665408
aF-0.8681191241643738
aF-0.2488830192882312
aF0.986212285232124
aF-0.5362563982637092
aF-0.8688057116573753
aa(lp8
F-0.11162304757091568
aF-0.6388405303654023
aF0.3029460174137917
aF-0.5546393587100737
aF-0.27839474102176975
aF0.9802764208285177
aF-0.6409031999509867
aF-0.31584218415106213
aF0.9712993995561863
aF-0.8514977858195958
aF-0.02231492168249405
aF-0.32684888695442527
aF0.11095199906615827
aF-0.05207282070946584
aF-0.4519683406005961
aF-0.564887352978866
aF-0.3004408347224865
aa(lp9
F0.6682761643059716
aF-0.9541948083077956
aF0.46784427343594426
aF-0.04620554552795397
aF-0.801879181053752
aF0.6998363149870905
aF-0.3299382328970457
aF-0.4466221688163392
aF-0.2858953813574956
aF-0.31336307626947857
aF-0.6802250085617167
aF-0.8127392581294637
aF-0.34332071777347006
aF-0.5753548920885647
aF-0.7690458647295382
aF0.7920153007401447
aF0.5285745667239978
aa(lp10
F0.4158362127907085
aF0.7598871371411022
aF0.5339103620232386
aF0.009544396842974923
aF-0.14300224650967808
aF-0.9063664563274412
aF-0.10681388242900058
aF0.4415966554031454
aF0.060219331374466556
aF-0.7345412958551352
aF-0.32066000353336954
aF0.45208923543674695
aF-0.6609949227442717
aF-0.8214877339134581
aF0.8519926189510574
aF-0.7366983327346068
aF0.6619936306003309
aa(lp11
F-0.17309975737067895
aF0.4867978235661674
aF-0.6781067827184155
aF0.6748185695408015
aF-0.9982322138886761
aF-0.3350482435259188
aF0.5128599833039102
aF0.6448535823390553
aF-0.5524760860004048
aF0.9526217019108889
aF0.053233157991367186
aF-0.014315579945029189
aF0.5837827413643641
aF0.4476131362711908
aF0.9746634886958483
aF-0.2724816238184544
aF0.007028335634989391
aa(lp12
F-0.7046717693906821
aF-0.07680867396121127
aF0.05682457562953358
aF-0.269280456323427
aF-0.21831356462204776
aF-0.7899794827849465
aF0.5990315366121279
aF-0.0196573718502131
aF0.8501677147046784
aF-0.7855526047923211
aF0.15385798507018933
aF0.3902875471497622
aF0.7157949088336819
aF-0.1588852984279634
aF0.4363587718616033
aF0.8455754109837674
aF0.8997184765723938
aa(lp13
F-0.7439820335697249
aF0.19041571955385073
aF-0.9052487484645053
aF-0.07531812077054867
aF-0.707288139315039
aF0.22718463059089578
aF0.08030475228761369
aF-0.6768717694778728
aF-0.8985187946722504
aF0.9100924501584655
aF0.2076320396268001
aF0.645689595269608
aF-0.5421315788384895
aF-0.864418920894354
aF0.29508854566047993
aF-0.023894495134413107
aF-0.7873033895482118
aa(lp14
F-0.7785960999890393
aF0.5363319505931479
aF-0.09543731065826422
aF-0.5752977113100892
aF0.02036819402735701
aF-0.11364311340001398
aF-0.7314391514518053
aF-0.8104558633141681
aF-0.25971469798374613
aF0.4427835839018588
aF-0.1590694451679504
aF-0.9398374661311759
aF0.9021182328547139
aF-0.428084648451331
aF0.45719722440868127
aF0.8260343422479863
aF0.5210870052963381
aa(lp15
F-0.42968395613622157
aF0.9163437001853396
aF0.6328091193309622
aF-0.7243465394381579
aF-0.39854173221842726
aF-0.7056181966894353
aF-0.7210512916391201
aF-0.17201384788468244
aF-0.34744317838062844
aF-0.29672658494485304
aF0.09779753551160719
aF-0.07989257968764507
aF0.5256871093098101
aF-0.3346327515803338
aF0.7999189809339327
aF0.15600372672048124
aF-0.1050030936630082
aa(lp16
F0.3261235676803924
aF0.16030834297151886
aF0.8936631563519153
aF-0.4402828356899904
aF-0.8947092639812833
aF-0.6527994880764201
aF-0.6692708705304877
aF0.8585510048267042
aF0.7361153729101517
aF-0.787745353019421
aF0.16804726232522715
aF-0.323783400372444
aF-0.5351003557674594
aF-0.4804798515541069
aF-0.13850927792161727
aF-0.537621569059471
aF0.35999496657281727
aa(lp17
F-0.5924886811427228
aF-0.4219862189003154
aF-0.07597225885251335
aF0.886819443842954
aF-0.6412988937075002
aF0.11956000433068126
aF-0.28645886794344455
aF0.5944983032520064
aF-0.42626348657018553
aF0.21664574219860167
aF0.984813462986118
aF-0.557688950801007
aF0.6063496279917988
aF0.23122853391739606
aF-0.03608523842266664
aF-0.4700358747627107
aF-0.5825327054264471
aaa(lp18
(lp19
F3.096357578392152
aF1.7433931593311593
aF0.13548469719657985
aF0.3628171317017538
aF0.9320971174565005
aF1.0948155341961334
aF0.6796840600906546
aF-0.022325680921971826
aF0.45262310896239316
aF-0.40342776245640716
aF-0.27631435331408005
aF-0.7962106828133497
aF-0.23804792065007588
aF0.7996674047687489
aF-0.40930793675278865
aF0.7742487815747147
aF0.42886425780920223
aa(lp20
F0.3220472396393195
aF1.3716336869140078
aF0.9299359908771637
aF0.5473878845032634
aF0.667139852466417
aF0.35447877838877073
aF0.1958993639641828
aF0.8837048535679289
aF0.19140597761791217
aF0.11097541441238452
aF0.4689945720424414
aF-0.7132862880605386
aF0.6224073891800497
aF0.24205966059467912
aF0.6399418299214554
aF-0.7069636853439303
aF-0.175853034237876
aa(lp21
F3.159719621507495
aF1.7659042714462332
aF0.5223328097739964
aF0.9296981252294807
aF0.3866422796989789
aF-0.39940193648879635
aF-0.17825889863139022
aF0.03239905546864144
aF-0.24164906969888042
aF-0.4318846739372641
aF0.08446008326050829
aF-0.35687460125616804
aF0.02993246019962035
aF0.6820879074656365
aF-0.5595059042851376
aF0.5642143241723402
aF-0.562219626879516
aa(lp22
F0.2684451628695452
aF0.36594695141847744
aF0.860754453692899
aF0.5146411958038778
aF0.615191872710889
aF0.4735022794999642
aF0.6092790682734353
aF-1.0012319603524813
aF0.9485483089668697
aF-1.0046212416583713
aF-0.7217063122396918
aF0.8724542380586886
aF0.18072202293762082
aF0.7122473800908062
aF-0.9492856779503438
aF0.4153190778119241
aF-0.12701840147656807
aa(lp23
F1.4175592213936725
aF1.0363712872978865
aF-0.2447711424804608
aF-0.554182466188421
aF-0.37909752150761494
aF0.5544483306543683
aF-0.12975904924498718
aF0.09179841556789971
aF-0.054061125057401745
aF0.020438413395525417
aF1.0482453280507937
aF0.4424022980714932
aF-0.7735505775598861
aF0.14511304558557356
aF-0.6331832054367768
aF0.5914283074638299
aF-0.4516197091600579
aa(lp24
F-0.5794068415402229
aF1.0812924593534035
aF0.8697345835853185
aF-0.44135298964111
aF0.8572544351774116
aF0.8944623712106599
aF-0.09612047944832128
aF-0.1397322865149804
aF-0.4966748125968865
aF-0.8482839029031393
aF0.7462258360099872
aF-0.5243940214136968
aF0.438693872319877
aF0.6951590863654862
aF0.9349118666876735
aF-0.5623604144587936
aF-0.37797724328452215
aa(lp25
F1.396255675893357
aF-0.2283216804157499
aF0.14492488292304875
aF0.8339591629228389
aF-0.8549961174628951
aF0.3032329205955275
aF-0.3227262064705244
aF-0.42028372866957586
aF1.0456058329267832
aF-0.8647101076017589
aF-0.43578864226244535
aF0.08190539621135613
aF-0.06065122778382698
aF-0.5158290980334739
aF0.49077566923938093
aF0.15254517179815588
aF0.3103218752778376
aa(lp26
F-0.7916489847355217
aF-0.8248685874665953
aF0.6771849635587263
aF0.10908586968768891
aF-0.24531603918834863
aF-0.11113579300792639
aF-0.9560688121127342
aF0.08811432479370619
aF-0.8479334696599601
aF0.43739477570793067
aF-0.4250409878737829
aF-0.4728263740993484
aF-0.19170085992471986
aF0.09098478842279524
aF0.3228238023415178
aF-0.26994271038438467
aF0.23397656750075163
aa(lp27
F2.3665032095160092
aF-0.20644313885814336
aF0.22359988224612265
aF0.6150538983122704
aF-0.854516956178215
aF0.2787365582897519
aF0.09490351641651139
aF0.24869726296501696
aF1.0543427250627746
aF-0.5013102083402404
aF-0.7152431805650004
aF-0.2910360389419761
aF0.5525543603011096
aF-0.733209216754057
aF0.1207792903352703
aF0.0241044196515843
aF0.03977990466974448
aa(lp28
F2.002363459320713
aF0.31654312521183653
aF-0.3832839721901312
aF-0.24934227803500775
aF0.2563087675036759
aF-0.3397321084300871
aF0.8176059412524135
aF0.13185290327085764
aF-0.7071953118572656
aF-0.583544031386084
aF0.19452246398218304
aF-0.1314398753173007
aF-0.7417632028183653
aF-0.7438076506187863
aF-0.2688781225502211
aF-0.36298000636177874
aF-0.26225627236008864
aa(lp29
F0.2040009792787172
aF0.2506155090609889
aF0.14447198345182494
aF-0.6218952981264153
aF0.03675977853306093
aF0.2844284799916803
aF-0.7536474583985749
aF0.37749745154127307
aF-0.9637747951610538
aF0.7302179338343123
aF0.9855299562548652
aF0.5749775775612408
aF-0.8348237281065242
aF0.7922625983641276
aF0.9445368052808297
aF0.7490447409208323
aF0.8006089990033389
aa(lp30
F-0.5466384920994379
aF0.5634595923828046
aF-0.12279021936099312
aF-0.3952671237338781
aF-0.5716415979201338
aF-1.0403953360684048
aF0.73474786059384
aF0.4002378974101075
aF-0.7294612384367523
aF-0.11229838588287858
aF-0.8931168022815801
aF-0.692135102443527
aF0.24464246918789234
aF0.7692410234109668
aF-0.1465696192445796
aF0.39278479323164245
aF-0.19563114068755552
aa(lp31
F-0.2556323767823939
aF1.0760120980537482
aF-0.7776893708066658
aF-0.08893438334832528
aF0.6523293847921083
aF-0.6720955337107121
aF-0.8264173807889562
aF0.35755286062681796
aF-0.6635540541618763
aF0.18069490203625024
aF-0.5693520899062253
aF-0.8371350446235035
aF0.6127325329107386
aF0.5114120084445022
aF-0.8893032224636983
aF0.3134333230672228
aF-0.9054926776013206
aa(lp32
F-0.6652409488270594
aF-0.5636673871374944
aF-0.4784202971122463
aF0.8300854720370895
aF-0.09898969102039071
aF-0.17616821923120785
aF0.5465675866500778
aF0.6853214807186865
aF-0.02874893916092799
aF0.8437740877850791
aF0.04616959968150745
aF0.39052839824111557
aF-0.12122578912499854
aF0.9379018840449921
aF0.2996587028195107
aF0.8745895754446622
aF0.7336069203203172
aa(lp33
F1.2741927582318318
aF-0.4044962553662536
aF0.9274290055118749
aF0.7764057763248576
aF-0.8159585793777115
aF0.23359451192169986
aF0.9817784812961015
aF-0.56016243671145
aF-0.4410280226497613
aF0.7613318561064402
aF-0.413646396804702
aF-0.24904432635965298
aF-0.7573907169266951
aF0.9080655023492895
aF0.7281037658632259
aF-0.656707380246575
aF-0.36442905319873187
aa(lp34
F0.7332272319425421
aF0.6362398422721595
aF0.8282982782244239
aF-0.4587451542210186
aF-0.012980536921593679
aF-0.8986751924905992
aF0.6022112916094357
aF-0.6546522538615378
aF-0.013879728675239355
aF-0.24043504309469385
aF0.3283808395496598
aF0.24250612906604166
aF-0.8440219435875297
aF0.07024718158551925
aF-0.9372697833812208
aF0.8300112933099033
aF0.6339487672822616
aaa(lp35
(lp36
F5.080536495260023
aF2.454846937985854
aF1.1245376561229765
aF1.9771000806788677
aF0.4291585719163155
aF1.2279192013436713
aF0.05749958009749963
aF-0.24900938239202475
aF-0.4419322975231934
aF1.10338217551012
aF1.2200392130771665
aF0.057636629489460384
aF0.6475128670841297
aF-0.27469269065673885
aF-0.22642259887630173
aF0.35603678457650206
aF0.829172751450089
aa(lp37
F3.3359556337126333
aF1.2526220946418727
aF0.8073294236648516
aF0.82073542346126
aF-0.004677944144135184
aF1.0389763048761422
aF-0.6382332355039846
aF-0.3653317147201381
aF1.031258257887792
aF1.046194066437993
aF-0.6576426296427473
aF0.5931256320857896
aF-0.6280920137477746
aF0.830323939151387
aF0.20248474174079875
aF0.24973315025417528
aF-0.1092530762074839
aa(lp38
F3.023883221511627
aF1.6013436599612474
aF0.45134237260096555
aF0.45296680376955256
aF0.3859498922605124
aF0.299296784205876
aF0.380685212758892
aF1.0875054854582116
aF0.35312577362606495
aF-0.5047866279621303
aF1.1557594208683328
aF-0.5425644798728817
aF0.6510268898461826
aF-0.06633292752049194
aF0.456829035493317
aF0.5982653598600824
aF0.08393522775585194
aa(lp39
F2.124138171641028
aF1.5398278491559134
aF-0.2746697687123019
aF0.5904410603274117
aF0.5659072993421671
aF-0.5892850093276037
aF0.14899594614286382
aF0.3538236515558367
aF0.07335486036849383
aF0.10345809063940802
aF1.1208715793615025
aF0.7543669969137082
aF-0.5281905190555487
aF-0.21865329907970277
aF1.0051699102124056
aF-0.3093533832954188
aF0.2932521279546821
aa(lp40
F2.2724418325022064
aF1.4053132430820905
aF0.6633253348131114
aF1.2868483724038464
aF-0.11366289862489458
aF0.03110117299007553
aF0.9434797458096533
aF0.3586065070323521
aF0.7190073396245832
aF0.9830297722691517
aF-0.6131794477359183
aF0.2935372915485009
aF-0.22729370373735835
aF-0.837565441592106
aF0.6807473123814236
aF0.8496393031491418
aF0.23203968198551958
aa(lp41
F2.847714824556176
aF0.546629221466163
aF0.07028426070659789
aF0.9835616966162382
aF-0.555274375335154
aF-0.4756177124951545
aF0.2561750912743609
aF1.0859429235774367
aF-0.05310804883198099
aF-0.2115003616288575
aF0.8668346422299421
aF-0.2435316874465663
aF-0.22982612070794226
aF0.7088516963067466
aF-0.26222011761419994
aF-0.30602036015341644
aF0.13938158709210205
aa(lp42
F2.9581628452014415
aF1.8730677628403176
aF0.14740623804583514
aF1.0227685259327088
aF-0.16766165565709049
aF0.8953711842713491
aF-0.29820747787614454
aF0.3908289577805464
aF0.5597912550238707
aF-0.16063735844329213
aF0.9519302663591418
aF0.8288216907960888
aF0.3137423098118494
aF-0.2661906317132113
aF-0.2873477240381983
aF0.9444894797029254
aF-0.3938338740401566
aa(lp43
F0.03185723046683149
aF-0.20272037621256575
aF0.0045322474605916305
aF-0.2983232591234466
aF0.22253627033822396
aF-0.2240840458232541
aF0.17566446039783684
aF0.8047357125991128
aF0.45046483804895865
aF0.8460272857718543
aF0.5541596539289471
aF0.6392286324258273
aF-0.377527815456058
aF0.8772222584938455
aF0.672161921355931
aF-0.9034590271262025
aF0.4927661617688682
aa(lp44
F2.0853975211224083
aF1.6126871428460094
aF1.4656382097912195
aF1.4881965077851989
aF-0.5508219023301619
aF0.4141235387897315
aF0.238041805781516
aF-0.6108011326526173
aF0.9708697647616655
aF-0.1881037864119913
aF-0.7261085977902116
aF0.1197683948949993
aF0.2176834158147205
aF0.1723656379570858
aF0.15789217339598813
aF-0.5332835124957193
aF-0.8049003406841284
aa(lp45
F0.6497973407890136
aF-0.8533994693939722
aF-0.2623381364402586
aF-0.8714664897783722
aF0.8348731966733799
aF0.22440844138304467
aF0.4689204523305464
aF-0.5279207676202492
aF-0.709829735436182
aF0.13515111565435187
aF-0.6409097054591217
aF-0.22728507426899353
aF0.8800829049028749
aF-0.6014175177784119
aF0.004395279894579196
aF-0.6913437043130123
aF-0.9474949955999485
aa(lp46
F0.9075790807463582
aF-0.11999311554243382
aF0.7952987768860836
aF0.2891508284678422
aF-0.416576494635717
aF-0.8077909884369472
aF-0.10586773974800921
aF0.7677816813265865
aF-0.2903398158297958
aF0.07947714537873185
aF-0.2965300760174683
aF-0.5066883341158805
aF0.17369283611096775
aF-0.38585126171868567
aF0.755900001386069
aF0.6424297909758975
aF-0.16488430588942557
aa(lp47
F3.7597309017652467
aF1.4267454689246801
aF0.1196888261232054
aF0.6549368577848027
aF-0.15440714492541255
aF-0.37415611386346487
aF0.24421837102806557
aF0.41894231588680647
aF-0.7179539806403838
aF0.8296191735864257
aF-0.6266578324674896
aF-0.8211812831952164
aF-0.16194664630096345
aF1.0648193390104994
aF-0.5661211938285176
aF-0.6849411362846669
aF0.5285454240599818
aa(lp48
F2.0253226931709145
aF-0.09587425340427476
aF0.1843071964259794
aF0.44151732623807316
aF0.023732562227455154
aF1.067010262657841
aF0.9720518961796936
aF0.22284561946892967
aF-0.6727888217174286
aF0.10337358999213316
aF0.46657034700008376
aF0.4020880268369779
aF-0.7828274207603283
aF1.054158919490228
aF-0.10977007461295271
aF0.11894071567962654
aF0.8572146102046905
aa(lp49
F2.064093033355085
aF0.8405372752628983
aF0.3454829343659965
aF0.6612265354367933
aF0.39919776612098085
aF-0.3125188931678292
aF0.34407910468507946
aF0.006853084816252615
aF-0.5034539396404034
aF-0.2690079398975599
aF-0.4145111393492276
aF0.569894375014963
aF-0.6735653496833797
aF0.15995087043768547
aF0.6422094918086612
aF0.7470854202564563
aF0.012021209909308056
aa(lp50
F1.0996542054796663
aF0.21397733060858792
aF1.2264588368216034
aF0.4757166986288266
aF0.5085238636923707
aF-0.5950484307937286
aF-0.5956539411814548
aF-0.017944534723320204
aF-0.19141051785481208
aF1.0491969512368866
aF0.32469613480502474
aF-0.027980765442030955
aF-0.4327788318522186
aF0.5999894546675881
aF-0.9063427034833901
aF0.24875673130028145
aF0.8793009058248297
aa(lp51
F2.723948324566691
aF-0.15712973401877808
aF0.646354128639439
aF1.4091652129323071
aF0.8862452825454886
aF0.20112858525565575
aF-0.355890646331913
aF-0.45402040510028824
aF-0.3569962460493134
aF1.0676095690504814
aF-0.7189693346874786
aF0.23728043905270724
aF-0.44026285757240435
aF0.4585457548881393
aF-0.835359511899217
aF-0.5202173447911126
aF-0.5192694698731516
aaa(lp52
(lp53
F-0.9623740333412568
aF-0.08145436400220374
aF1.154918873902273
aF0.7419682773183316
aF-0.08602110621819962
aF-0.3603006944401781
aF0.6147046436724285
aF-0.6781726691738115
aF0.5856743878388996
aF-0.9578828604128525
aF0.06326765458230194
aF-0.07405405004021016
aF0.40242608117458645
aF-0.9614801737778393
aF0.3228397590025638
aF0.5829705512566082
aF-0.44091943354647056
aa(lp54
F0.454743145815693
aF0.748879938510854
aF-0.5347453071413901
aF-0.0007268231868209326
aF-1.1885223581474844
aF-0.11941881548326615
aF0.7614779156197378
aF-0.8881684868686793
aF-0.42151996947833087
aF-0.5244371602267895
aF-0.5164209415019908
aF0.7049647830044715
aF0.37957645464240347
aF0.08628121175448411
aF-0.659710285405573
aF0.6047228502191377
aF-0.41362517499403184
aa(lp55
F-1.0792248236098454
aF-0.5803648139851513
aF-0.7400035756508776
aF0.2632339736905151
aF-0.59645589259514
aF0.7078403510366091
aF0.6175294552087338
aF-0.34682657419700746
aF-0.06968020643929208
aF0.007189898873407407
aF0.3176989808842281
aF0.41565326437764705
aF-0.3762305057488201
aF0.4416785911301782
aF-0.1029084205037631
aF0.7216350772936854
aF-0.0794666052168508
aa(lp56
F-3.260670735241062
aF-0.5462028405752157
aF-0.58194586656647
aF-1.4912543919299408
aF-0.8010245532872656
aF0.3284194984508628
aF-0.7326583226328227
aF-0.9263559400638898
aF0.5242463343611502
aF-0.5301996068227748
aF0.33967511591500466
aF0.7444673407573373
aF-0.14459731757233624
aF0.2921928942124906
aF-0.33767306378729006
aF-0.7603625448987981
aF0.24901036329938472
aa(lp57
F-1.495028128936454
aF-1.6139746559221235
aF0.28036084880101725
aF-1.2839218866870246
aF0.3505723753020942
aF-0.2429977032433047
aF-0.9737310362722584
aF-0.6838337142536705
aF-0.6791116719614126
aF-0.7308302275933415
aF-0.9613648161908658
aF-1.023240211171844
aF-1.1585384600205637
aF-0.7025991702244082
aF0.20362396422069687
aF0.7306406602719177
aF0.4075366644714068
aa(lp58
F-6.2760784922903055
aF-2.6556880553269826
aF-0.91331258936642
aF-0.9712192467261963
aF-1.1306952768231606
aF0.27111863974018263
aF-1.5132270799529521
aF-0.6615870514295155
aF0.02076683858215839
aF0.48777015466206514
aF0.23983224339445042
aF0.6176406413565392
aF-1.0787707634655874
aF0.2648846176299589
aF-0.1571439543353631
aF-1.0490065428221425
aF-0.4032133046323732
aa(lp59
F-5.138737377971177
aF-1.7757197227860173
aF-2.152012669316376
aF-1.665492660667808
aF-0.44952800919788627
aF-1.1047327252329573
aF-0.48526326872129116
aF-1.1359097732818648
aF0.4745775439304147
aF-0.42133360918811863
aF-0.227784733417173
aF-0.11484329111581665
aF0.23510258394502936
aF0.14646199445115865
aF-0.09705794356450746
aF-0.3458671024581101
aF-0.9350628406712957
aa(lp60
F-5.129713105369618
aF-2.543070985129434
aF-1.9205382061236664
aF-1.1836746259883808
aF-0.01964297114152271
aF-0.31150362487126204
aF-0.061566594576421364
aF-1.398219208619267
aF0.16780446818389996
aF-0.8608976774214199
aF-0.38503778738202743
aF-1.1091270024704745
aF0.15891326841158593
aF-1.0479194488045909
aF0.4334766854268315
aF0.22220740251472132
aF-0.6408685894372349
aa(lp61
F-5.332372208065861
aF-2.698180529817719
aF-0.7652071596857468
aF-0.6659754536685911
aF-1.2846492128391804
aF-1.214255121940258
aF0.358876177530927
aF-0.05743709447045188
aF-0.4051003099775083
aF0.31490776869103
aF0.5212296632111205
aF-0.8005894660237295
aF-0.17911173456494414
aF-0.9325703860791009
aF-0.8434484680365002
aF0.1975949566754203
aF-1.25344907525897
aa(lp62
F-5.741928686660602
aF-2.8345946889319467
aF-1.8615527961243559
aF-0.8882805364513562
aF-0.9738359411553539
aF0.22371795832273872
aF-0.7741118337119052
aF0.5110399061381418
aF0.30075383382735454
aF0.4592059849510351
aF0.21195091888027637
aF-0.8404829454928934
aF-0.9169660231911431
aF-0.49462299773001733
aF-1.1253399505130752
aF-0.8677086891647384
aF0.08524897952832299
aa(lp63
F-4.750342063361158
aF-1.9999775583469934
aF-1.406244234909779
aF-1.6712132822808383
aF0.2868708795133915
aF-0.9099111895972903
aF0.03104473798525613
aF-1.013656783401875
aF-0.6033632596922441
aF-1.199640057909776
aF-0.7225399446498194
aF0.7679704842469698
aF-1.2107848891794064
aF-0.15955515197561793
aF-0.9705140662924631
aF-1.0733023051709647
aF0.27985584780877526
aa(lp64
F-5.533843763777292
aF-2.7040108159851073
aF-1.1893045149249304
aF-1.5593895494234076
aF-0.08003658723364736
aF-0.6098152216770625
aF0.019609223742001976
aF0.4328675894482031
aF-0.9442790126073187
aF-1.1619328100614172
aF-0.5305878828803935
aF0.08102708679840796
aF-0.7040491276853793
aF-1.1636781364831512
aF0.04339083768010829
aF-0.5346361436595489
aF0.3194070502475284
aa(lp65
F-4.3165992863882305
aF-2.7298567524507082
aF-0.8399942195773016
aF-1.5082292491045632
aF0.21642089009666776
aF-0.6564266436999286
aF-0.8630171834500314
aF-0.7971885213961336
aF-0.23975198776013237
aF-0.720400100976281
aF-0.04690155771883437
aF-0.18091322477046198
aF-0.9040250987902639
aF-1.4225745704914856
aF-0.23036461999881244
aF-0.16341482449099534
aF-0.14700347159817256
aa(lp66
F-4.413505326569807
aF-2.10817660258597
aF-1.144431011698113
aF-2.3557568326048615
aF-1.5842064248216259
aF-0.5240000141217729
aF-0.9233567801264959
aF-0.8025122830113092
aF0.19534053192144143
aF0.011576643086211631
aF-0.4630023107159011
aF-0.5576860765674438
aF-0.9294728394393725
aF0.1270170441723987
aF-1.3518156716982315
aF0.5455104069254992
aF0.5240651628587709
aa(lp67
F-5.021265351212259
aF-2.6356209672275552
aF-0.41496871680095687
aF-1.132359082489408
aF-0.8485695859868758
aF-1.2996245558855888
aF0.5534232056531109
aF-1.2131176062103999
aF-1.1671023086040497
aF-0.44148776501731396
aF0.27530850489472436
aF-0.20600915413484994
aF-0.03542339943812739
aF-0.08816758508164065
aF-0.4690790958500649
aF-0.38958746724626125
aF-0.7165117735608637
aa(lp68
F-4.949000578741037
aF-2.5578060226183448
aF-1.744678729116442
aF-0.9618570931470019
aF0.15255465923289074
aF-0.31613199528150276
aF-0.8438283502053795
aF-0.6612153465923527
aF-0.5475195819807364
aF-1.1617301905605635
aF-0.8465750027572876
aF-0.1608632027611627
aF0.07686089521846265
aF0.4107156691489632
aF-1.0739416313533912
aF-0.14636266475570137
aF-1.2016877019796803
aaa.