(lp0
(lp1
(lp2
F0.6574415918248737
aF0.5740359235988322
aF0.9312180881690233
aF0.9784036879558344
aF-0.5505847089574873
aF0.7727315161095716
aF-0.3035898155764072
aF-0.4193749214634621
aF-0.5871373208875763
aF-0.7938953482771343
aF-0.7332197148815625
aF-0.940393617314593
aF-0.6755541211905076
aF0.21184912607508122
aF0.8594806967444206
aF-0.4359044570607389
aF0.7512968897223293
aa(lp3
F0.9196816743041258
aF0.6860347450017341
aF0.6155947648418332
aF0.9535638937740631
aF0.7604309888719685
aF0.38516459251301827
aF0.27397293659617583
aF0.4901120220002162
aF0.15692683379521766
aF0.2370255566859285
aF-0.0040277140908588915
aF0.08002477695863974
aF0.3884315653613255
aF-0.5989649286147425
aF0.7174336435619573
aF-0.6136430634196897
aF0.7052772674654095
aa(lp4
F-0.4552850897924874
aF-0.547140240272481
aF0.23711878737053982
aF0.18217636251562785
aF-0.2664619504091996
aF-0.17501558922321814
aF-0.3680380672793784
aF-0.8916077271807514
aF0.8963554513913468
aF0.776580388654684
aF-0.35266545375766234
aF0.35300867083579934
aF-0.16523222864642095
aF-0.012574288369628484
aF-0.23535899359421886
aF-0.9366479412409026
aF-0.4292421683359937
aa(lp5
F0.03371165018308564
aF-0.617799785635412
aF0.3496254936562142
aF0.45336045837407735
aF0.5971514996381391
aF0.14819834354593597
aF0.9115107053464875
aF0.25689023427905733
aF-0.9590774160609743
aF-0.5814118293103094
aF0.7780392641182972
aF0.7978668579731041
aF-0.2290782043708992
aF-0.735652940992884
aF-0.46987345491107857
aF0.2733481938041016
aF-0.8620265692828173
aa(lp6
F-0.6553729609224446
aF-0.08903492424184067
aF-0.34488414144096313
aF-0.12479941378114212
aF-0.9389733388579735
aF-0.7506004085484992
aF-0.9867000039198806
aF0.07799578359381609
aF-0.8970494225866421
aF-0.8911511691150831
aF0.7392424982084587
aF0.21671693791175772
aF-0.8319426264172982
aF-0.7214146391556338
aF0.39797822709929975
aF0.14105777760826843
aF-0.5511239875376375
aa(lp7
F-0.006367048269162456
aF0.2574963278115876
aF-0.5989058810960606
aF-0.5741757471909741
aF-0.22237358068079827
aF-0.5033925807702024
aF-0.6258583662544681
aF-0.9064491093716498
aF-0.6687439813220413
aF-0.06226366435237396
aF0.9281384346908963
aF-0.2630001015744945
aF-0.10981048419467143
aF0.3024060138132023
aF0.0332193623599748
aF0.29573641583894084
aF0.8650421646506703
aa(lp8
F-0.5037534506135393
aF0.8372745574371778
aF-0.9064539624798349
aF0.9604614457187117
aF0.8653408410224506
aF0.949421443332999
aF-0.7956459534201037
aF-0.9551192932540797
aF0.22512657538170222
aF0.609021342468026
aF0.8544867403928718
aF-0.7685230951664046
aF-0.18426399585007336
aF-0.9708431944466387
aF-0.001942445214720978
aF-0.5144578885337532
aF-0.5039612821946136
aa(lp9
F0.217344094361686
aF-0.777040669119889
aF0.7680075315390158
aF-0.5962867853604652
aF0.7049923158450084
aF0.8664038005234547
aF0.10135843846847625
aF-0.9085587739654679
aF0.8511734034131713
aF-0.8145849773686344
aF0.3703210093456557
aF0.5379304907852094
aF0.785951903356519
aF-0.19715376583099253
aF-0.14308976043956023
aF-0.6931913575003832
aF0.6025980422797637
aa(lp10
F-0.6979439573733062
aF0.9181443512260363
aF-0.12521610978660958
aF-0.9757613975956585
aF-0.42687605595371325
aF-0.582563785394185
aF0.6076842397170055
aF-0.7302868023327234
aF0.9079656248819834
aF-0.2136922481761765
aF0.6679548806273241
aF-0.4205508587690694
aF0.91254630770883
aF-0.3942163513783663
aF0.28875302120306223
aF0.325403886939601
aF0.2567046695875903
aa(lp11
F0.3702299227579462
aF-0.8581910759975053
aF-0.3553130282578696
aF-0.70581111221467
aF-0.422196950510733
aF-0.46180606269522495
aF-0.309665854052525
aF0.5743047020868493
aF0.8083991394877799
aF0.14003613320337926
aF-0.6700699654050137
aF0.8255240060182625
aF0.30895307460477817
aF-0.09438428703382762
aF0.22379646685608967
aF0.6736361481687867
aF-0.7350779410155988
aa(lp12
F-0.3330697534133287
aF0.6198440806302068
aF0.6709000714874158
aF0.5834409614306182
aF-0.12034151555921624
aF-0.9888353660104616
aF-0.100513004890606
aF-0.9203101091640515
aF0.7101540096602821
aF-0.4337829344174411
aF-0.34823649382844013
aF0.8380002989520015
aF0.009604012731249778
aF-0.03586646229244339
aF0.8167651064199977
aF0.2289395382185162
aF-0.6722772300634641
aa(lp13
F0.9863801792349094
aF0.5493529641487807
aF-0.8557726447416192
aF0.7816924428944658
aF0.7775310120366128
aF-0.9977951520227761
aF0.6840969199203204
aF-0.9001875035603395
aF-0.4199618512182548
aF0.3128207594821988
aF0.49417429034560345
aF0.011810054058933872
aF0.22918676509695945
aF0.5439744633261687
aF0.14538248622771244
aF0.9884403534472312
aF0.8170776453179105
aa(lp14
F-0.7358134230026294
aF-0.6909380503391152
aF-0.7352748651990337
aF-0.9604159326403854
aF0.08398163582561535
aF0.8155807289375925
aF-0.15235230915038578
aF-0.9092468231875419
aF-0.29434927183621373
aF0.6593077166902916
aF-0.4044665021634599
aF0.02939290125900529
aF0.7640019838244543
aF-0.15592273781376376
aF0.268707702139807
aF-0.2599055052414927
aF0.004589037545019048
aa(lp15
F0.40247275431369456
aF-0.44007772491398134
aF-0.3575954818508382
aF-0.7365137855711874
aF0.3519832427166154
aF-0.42538628576267934
aF-0.7253345585062161
aF-0.20713404098437027
aF-0.4926893216992394
aF0.6604317867911482
aF0.9657599268872075
aF-0.21603548362554092
aF-0.48015390312914286
aF-0.385467886693843
aF0.11450706983401115
aF0.7152402753919325
aF-0.8770374314984322
aa(lp16
F0.734882169411178
aF-0.7217494794521977
aF0.32686117113330915
aF0.8911740860885737
aF-0.97057812698478
aF0.9815959124055429
aF-0.566460401139939
aF0.5646266632945065
aF-0.48913660570449236
aF0.11246938382441574
aF-0.4313709342727814
aF0.6517021084114278
aF0.678224056081381
aF0.7986368895002882
aF-0.8180511851865522
aF-0.13283288908038493
aF0.29895896612889894
aa(lp17
F-0.6268181086385263
aF0.2896944608924614
aF0.733329360141554
aF-0.6946303775251228
aF0.22281971435615322
aF0.25890767876964804
aF0.26948771824829487
aF0.8817667975408061
aF0.8971852066545656
aF-0.8986488999159421
aF-0.10314319169247943
aF-0.03900634702507655
aF-0.8269770142967621
aF0.4709716743591019
aF0.5190800903603314
aF-0.44470253805246274
aF-0.08879553602144252
aaa(lp18
(lp19
F-0.11592711671889816
aF-0.7025892777420971
aF-0.5790767262730071
aF-0.8999921790104887
aF0.0190593803291417
aF0.6039613776896307
aF-0.9358675680011136
aF0.654197845658335
aF0.1588530114361165
aF-0.21714287057795942
aF0.43009092418466743
aF0.2796955882136091
aF-0.6605161553248274
aF-0.7118716260968851
aF0.5267074862586099
aF0.15882493401868114
aF-0.46598493209397235
aa(lp20
F-0.38815937804619477
aF-0.9724289972016531
aF0.7816580578120643
aF-0.5487063247946101
aF-0.012201521942232799
aF-0.6980266643905372
aF0.11095480302076492
aF0.9745408437687897
aF-0.9174575751664445
aF0.5446904793927325
aF-0.47549943805320755
aF-0.7999510685482835
aF0.41650895049180364
aF0.6141045527256713
aF0.006200477443954939
aF0.9565585791103635
aF-0.6224406034111966
aa(lp21
F-0.526650611057324
aF-0.10339518455861423
aF-0.9498862346418697
aF0.1555050607439649
aF0.34196373067245484
aF-0.26981268765549943
aF-0.7124332202214623
aF0.38367257724835496
aF-0.37814398230830537
aF-0.7439761813622966
aF-0.9188648174674908
aF-0.22199924238315585
aF0.7964988012637156
aF-0.9066840201014327
aF0.6323443434385847
aF0.9273632034305147
aF-0.3000006273521275
aa(lp22
F0.7607493765311556
aF-0.4385972945096313
aF0.9237950080595433
aF0.5182884376516711
aF0.12435594729108099
aF0.20101638144207773
aF-0.8668797258648111
aF-0.08423258148868804
aF-0.5134489480480603
aF-0.1571973342392396
aF0.06390896629105883
aF-0.6470029971129206
aF0.18129753097904097
aF-0.20921391525438168
aF0.7428577400582858
aF0.3241584955422523
aF-0.2840490909475477
aa(lp23
F-0.29631182777946974
aF-0.990518160408715
aF0.20871159505144649
aF0.7460006354685496
aF0.05235654761714785
aF-0.6316376556032888
aF-0.05959037209319044
aF0.038539585343482
aF-0.0902254965163606
aF0.36951856824888046
aF-0.29296666048997483
aF0.7777887028524069
aF0.8394754399962832
aF0.4325273666790646
aF0.0714195616564616
aF0.9391019009402146
aF0.40730984203356313
aa(lp24
F-0.5260128575498829
aF-0.5575530568495671
aF-0.0022067380473821687
aF0.9646690988021492
aF0.17150694569539437
aF0.9532833857958836
aF0.028121191933895836
aF-0.18822065573190003
aF-0.1154611225934668
aF-0.10960885226546815
aF0.9845897252653801
aF-0.4419607744675635
aF-0.5678302696682688
aF0.9496851067282363
aF-0.026119774378342092
aF-0.04738046969137629
aF-1.0004382714730675
aa(lp25
F0.22574147353629317
aF0.38101648060708493
aF0.16461279797891556
aF0.2690641178364621
aF-0.9795143009340518
aF-0.7575010421490623
aF0.9427083429079091
aF-0.17438329213394202
aF0.8090662882665428
aF-0.34872595869467776
aF-0.7489160438000866
aF-0.3006591235879087
aF-0.48776901193652217
aF0.5098414611656535
aF0.8659201801955247
aF0.5208729335473642
aF-0.08701392898059901
aa(lp26
F-0.14349376330464098
aF-0.7434500586399366
aF-0.8134426519053696
aF0.4312997396188134
aF-0.051060046883111936
aF0.36476447829510905
aF-0.7402489801335926
aF-0.49784543175326573
aF-0.5058747316787978
aF-0.7364072484035478
aF0.9379930059732726
aF0.14504429712260922
aF-0.47291683386380184
aF-0.22097634599287044
aF-0.18820117791705251
aF-0.06981586032136242
aF-0.3524441690702522
aa(lp27
F0.8891142711728095
aF0.09157864907651614
aF-0.08632220160869299
aF0.8697993577903267
aF-0.45658983082661486
aF-0.02134076514475225
aF-0.7592347045687021
aF0.9856410834908038
aF-0.06475226647661475
aF0.2870705727778815
aF0.6057074851655497
aF-0.9147704403459458
aF0.045984416379846425
aF-0.01708874373653739
aF-0.5787973349581758
aF0.04770785119349683
aF-0.31876599068413664
aa(lp28
F0.6233133267909895
aF-0.27865579187870104
aF-0.8796129410620911
aF0.15827618084005463
aF-0.38500787386237195
aF-0.4889322544110706
aF0.6474739037581974
aF-0.05311949337223922
aF0.13243518450602865
aF0.7900803813889585
aF-0.8760899630735826
aF0.21342904495742887
aF-0.42253005194945653
aF-0.15823376155950944
aF0.8100666901602787
aF-0.18549787819517127
aF-0.6567734416411014
aa(lp29
F-0.47276659599974147
aF0.008748610985649437
aF-0.47041288161837513
aF0.861530792995817
aF-0.022875794281929155
aF-0.4992468740216256
aF0.8327457858784179
aF-0.10099665893000323
aF-0.4606276366789775
aF-0.1734504473955397
aF-0.442483544908067
aF0.4637690494659011
aF0.5400016445970334
aF0.6180451845164716
aF-0.9279826694093859
aF-0.4358499047829639
aF0.017814232885955007
aa(lp30
F0.007099203704195117
aF-0.8625430647223278
aF0.6244120949354414
aF-0.33788129536580386
aF-0.9199925680120961
aF0.9876375852650351
aF-0.0239754987862257
aF0.6345548760490436
aF0.8090923265734747
aF0.8852499060792425
aF-0.3153466891514278
aF0.3836780348910542
aF0.1423494122276306
aF0.09350626310484579
aF0.621778793167947
aF-0.7740008160996953
aF-0.7712699418148021
aa(lp31
F0.5204666333940289
aF0.3280856778046944
aF0.8231077510579173
aF0.2577329008813487
aF0.9622304924823896
aF0.957769168745044
aF0.5291378978357065
aF-0.10015568883374167
aF-0.7105130572209959
aF0.5785725545046101
aF0.7887763982087314
aF-0.9781950083797027
aF-0.012781576499672863
aF0.9128247853063343
aF-0.7382672685447622
aF-0.4422468409849791
aF-0.37713261859929637
aa(lp32
F-0.9375767149461874
aF0.46801844017750605
aF-0.6236002507902407
aF0.21279885049490926
aF0.6952985577923428
aF-0.9651579256253202
aF0.6911824553598745
aF-0.5368742826471687
aF-0.9177579602999995
aF0.2622472628129409
aF-0.6221618406344088
aF-0.06759853856700207
aF0.010947444930447818
aF-0.9656406900089233
aF-0.2632050107659294
aF0.9073068814454036
aF0.772351178339395
aa(lp33
F-0.5117157020225146
aF-0.12203525847675094
aF0.43722185018405374
aF0.17846487154927293
aF0.028947383498095884
aF0.10199800836009
aF-0.5795717618073399
aF0.7249529481396753
aF-0.68472455863179
aF-0.5703082645727344
aF-0.2779109391862533
aF0.4880289950440083
aF0.011185552181998768
aF-0.58843486479317
aF0.30137052382664553
aF0.9284266381531812
aF-0.07957835216475118
aa(lp34
F-0.23981391043445388
aF-0.3783305975313974
aF0.3487047953073818
aF0.3852674007116732
aF-0.5051839570092672
aF0.294587500218071
aF-0.5191463868476586
aF-0.23221885538780862
aF0.23166288667163232
aF0.4076946269641034
aF-0.46078230782021384
aF0.6723623454201214
aF-0.948563165728743
aF-0.6904558629511942
aF0.4800275792748029
aF0.277467821261049
aF-0.723230535015499
aaa(lp35
(lp36
F0.7147336892585995
aF-0.8020684919305531
aF0.20481824438024962
aF0.07355257871674444
aF0.8991051602959975
aF-0.49019632165590044
aF-0.44780568818680744
aF0.22934083687909237
aF0.04756348661497991
aF-0.31484116806332973
aF0.06759713091585033
aF-0.8856958252073119
aF-0.45029198683050115
aF0.24139229348652144
aF0.4807174412768772
aF0.5244971688758853
aF0.43507634408098844
aa(lp37
F0.3836736156049163
aF0.6691883591455703
aF-0.8740227496104519
aF-0.6885288882005227
aF0.7423163753771452
aF-0.9278548425594114
aF0.47991080587022206
aF0.7584445367730427
aF-0.6985813225468172
aF-0.8179828159337892
aF0.8870152375597484
aF0.8056480766239297
aF-0.4663696379635791
aF0.45730103385167203
aF0.24225534326593579
aF-0.9018094770357346
aF-0.8039236787001942
aa(lp38
F1.0183557773506429
aF-0.9677564718114625
aF-0.700887969884686
aF0.7942578350384099
aF-0.05680126579213941
aF-0.09696546602666063
aF-0.952450958493139
aF0.37824713094648815
aF0.17900817005204614
aF-0.1466866189845925
aF0.03539821798425046
aF0.2710432104259629
aF0.3511806843709161
aF-0.4448353074368635
aF-0.04303615294194832
aF-0.9394155795254499
aF-0.4101554020135439
aa(lp39
F-0.020912119744909488
aF0.021348799081098702
aF0.6003563927170635
aF0.22757282811257076
aF-0.10015050568691107
aF-0.21218742948280192
aF0.48667235036808354
aF0.27668792646319135
aF0.5136415882322748
aF-0.35120664064687257
aF0.9924146889519236
aF0.3127410950726091
aF0.6193536474589725
aF-0.4998511754176564
aF0.9277146041112508
aF0.3095210388885729
aF0.2573675586830856
aa(lp40
F0.7502412356145307
aF-0.47425602085046453
aF0.4763012598485716
aF0.8801214798158281
aF-0.7764678529285522
aF0.5653839751264179
aF0.7149483536457106
aF0.13616730153607506
aF0.09911918929447014
aF0.9794468687853326
aF-0.01858075605827608
aF0.30299764865010126
aF-0.2309942387614571
aF0.7385813388926494
aF-0.7336698735738776
aF0.05731854241650133
aF-0.918145571910456
aa(lp41
F-0.5848494484857945
aF-0.23165815007226712
aF0.7162225140474452
aF-0.2453743862834125
aF-0.6037600707121203
aF-0.9272463058776435
aF0.9924421873449473
aF0.26538176627065735
aF0.7726262248358852
aF-0.9563051375875248
aF0.3769446749496912
aF0.8794900474979406
aF0.10133835477646279
aF0.14256201336049185
aF0.31670382798088403
aF-0.33578262085860133
aF-0.3006568127663637
aa(lp42
F-0.44726323196383483
aF0.8570802208727057
aF-0.15728498011071196
aF-0.5924104104151474
aF-0.9469581323302689
aF0.6061613144278898
aF0.4024960481053795
aF-0.6010198208063777
aF0.31348526772054114
aF-0.9552578853123824
aF-0.9912475479778964
aF-0.8752163581591118
aF0.618995521590589
aF-0.8699975081767802
aF-0.678245178393987
aF-0.7862743048628033
aF0.3543834286866477
aa(lp43
F0.1744341279521177
aF0.8025999191841774
aF-0.9367244128311869
aF0.911682632736579
aF-0.03125395597938367
aF-0.7422750398931927
aF-0.7492132479919892
aF-0.6170837853574359
aF-0.6049157506755597
aF0.4633430939349611
aF0.30502837376039077
aF0.889900737049668
aF0.05611047884512573
aF0.8666142306238676
aF-0.5523008575235769
aF0.49119870229314416
aF-0.8348924119473833
aa(lp44
F-0.7466166774676499
aF0.6928832730949538
aF0.9331947830112858
aF-0.046600523071470196
aF-0.7286477927064899
aF0.8847030461597832
aF-0.40665921430117075
aF0.5559436763089689
aF-0.5795812183832736
aF0.5038969820440437
aF-0.6703707035370498
aF0.09182449178064424
aF-0.26820440424967507
aF-0.2038036391148666
aF-0.2902863852355425
aF0.3609294586771015
aF0.7847682097522785
aa(lp45
F-0.890574824147473
aF0.05851308152205988
aF-0.25606219023585636
aF0.6751993039808925
aF0.5773398600159239
aF-0.10215758619233449
aF-0.4921687691091874
aF-0.03629021486384256
aF0.10386800284868569
aF-0.6642334994098329
aF-0.5092526437459098
aF0.3720563949330472
aF0.5020139102499351
aF0.8606513361756757
aF-0.35072737227931267
aF-0.20280917997670575
aF0.712003258393903
aa(lp46
F-0.5474570701030975
aF0.06229399944424469
aF-0.06142985061660507
aF0.4746274917391965
aF-0.6720678936442918
aF-0.45831957287089264
aF0.7668841306297951
aF0.2917184127211258
aF-0.2319651873688848
aF0.7478047121374132
aF0.4863899791573429
aF-0.06344500854127692
aF0.8386371838283191
aF0.24302342234800475
aF0.15814913557325272
aF0.8399839139707748
aF-0.8745608682143345
aa(lp47
F0.19387793873154688
aF-0.725066900839724
aF-0.41721162180606813
aF0.3219274041872874
aF-0.49117024721725916
aF0.6435812455678485
aF-0.8512480274589723
aF0.27503950689848483
aF-0.5118504913570671
aF0.4931047651452619
aF0.5455509472817279
aF-0.16730045154882137
aF-0.7678587550948838
aF-0.5161049391610405
aF-0.8401589891168604
aF-0.9274411234270621
aF-0.4992195922762903
aa(lp48
F-0.3621098351485934
aF0.909406672354418
aF-0.487616229355674
aF0.03277512437935067
aF-0.7427677411804138
aF-0.7356626126360659
aF-0.2089526761674617
aF-0.7070134593064037
aF-0.1214274241147037
aF0.3226927334085773
aF-0.8001412308399436
aF0.18005522660698187
aF-0.556791483071436
aF-0.31225333394925225
aF0.32320883926525956
aF0.3289740776316743
aF0.17970350510198171
aa(lp49
F-0.8709295970117221
aF-0.9695743020985171
aF-0.6732706010090019
aF-0.9578601481693207
aF0.27849765297599116
aF0.7650332925159938
aF-0.32599860880208553
aF0.33325912348554215
aF0.3802881914455012
aF0.7083255207558818
aF0.9313520634616572
aF0.12884006112025154
aF0.41207546836568304
aF0.9058478276570482
aF-0.3336390552649348
aF-0.7934045774075019
aF0.7074833417194314
aa(lp50
F0.829638553613275
aF0.48640419307422444
aF-0.5956244687619492
aF0.37799755266122015
aF-0.06089065340018642
aF-0.6275388430184513
aF-0.5223555328721016
aF-0.08092150507312179
aF-0.7916502089712507
aF0.5247238215253787
aF-0.8840442234514215
aF-0.37347228502327984
aF0.8912688041736752
aF-0.06036501727494658
aF-0.6684596625779216
aF0.13872429782669468
aF-0.4297137121469779
aa(lp51
F-0.864126906650906
aF0.2252739563779384
aF0.043804719795227494
aF0.5545722383507077
aF0.7135442016030118
aF-0.5950876996625704
aF-0.37610265924908065
aF0.08749059760894182
aF0.8128972406252486
aF0.37694565764795
aF-0.5589146624188066
aF0.7902864176006253
aF0.8481043554169713
aF0.7639493571566925
aF-0.14329224149378697
aF0.9759168037752479
aF0.9139764155083039
aaa(lp52
(lp53
F-0.6463325111048183
aF-0.43418143191111636
aF-0.7806782234148288
aF-0.16609207343516422
aF-0.7629455380294361
aF0.09280924958792168
aF0.05933301653342885
aF-0.6760900285920003
aF-0.9031149927842507
aF0.17268849514298526
aF-0.02209093489545672
aF-0.7489156665858028
aF0.28236861177555805
aF0.29042252130314045
aF0.5385695100403786
aF0.8686047372494216
aF0.368105372537547
aa(lp54
F-0.37584136689196873
aF-0.6273857696525466
aF-0.9091835693735132
aF-0.23806352380369095
aF0.40138861085872773
aF0.7951218817232493
aF-0.22952439134946315
aF0.3890026808010478
aF0.35972277968480704
aF-0.7882340875690872
aF-0.4020027330510663
aF0.9151557168078414
aF0.04762485243402852
aF-0.1856156287618717
aF0.12378864760154526
aF-0.017332163603343415
aF-0.2985668014372008
aa(lp55
F-0.265576985984223
aF-0.9337034518534915
aF-0.20504610471838544
aF0.525523213683195
aF0.9714524494768485
aF0.1517208595627122
aF0.31691812211318404
aF-0.9820276187327476
aF-0.98140039647809
aF0.2556001308848438
aF0.6709281342256207
aF-0.926845114749028
aF0.16673561452595143
aF-0.23102383942341306
aF0.4980000661438578
aF0.022278197718034732
aF-0.41360650838467783
aa(lp56
F0.095380157973794
aF0.8020393081565765
aF-0.09458745771807114
aF0.7790442451796613
aF-0.8297952467692763
aF0.714926811518885
aF0.920338895279532
aF0.4919758100716738
aF-0.575177516562599
aF-0.6876921362163312
aF-0.9880883396309861
aF0.911830383404329
aF0.13649222996452937
aF-0.42780335536250447
aF-0.32633375291383254
aF0.8517643278344575
aF-0.13503079756928144
aa(lp57
F-0.7925656108753636
aF0.015993201230054897
aF-0.31957905961807687
aF0.41824177840392623
aF0.06963977665121121
aF0.7638759582850965
aF-0.1297786654125969
aF0.012650379561023597
aF0.1073872672657062
aF-0.3386957984265952
aF0.117275283414327
aF0.24860227673032492
aF-0.468741367109712
aF-0.6373043652439895
aF0.9023680298150807
aF-0.7532030859645581
aF-0.2810282637298541
aa(lp58
F0.09579767657706484
aF-0.3706567286306591
aF0.4061442427579572
aF-0.976250447707124
aF-0.8559344322898244
aF-0.8314014336698582
aF-0.733118840908865
aF-0.6111931035070175
aF-0.515980097065986
aF0.5449031535541334
aF0.6773930919336276
aF0.5470361659571046
aF-0.39933894786316815
aF0.07918496344788893
aF0.03293476694437765
aF0.3571589834166129
aF-0.8963218100027618
aa(lp59
F0.36425285309709954
aF-0.6327500785384744
aF0.3898468676268989
aF-1.0077887912651589
aF0.0234417695088203
aF0.20624479513861077
aF0.12347840442252561
aF0.5237296488750356
aF0.10573378987078379
aF-0.8434432539821068
aF-0.7546355055125844
aF0.38333602761297864
aF-0.20273161193863937
aF-0.7732731774741116
aF0.2679711307970048
aF-0.6501126726664718
aF0.6134644208267376
aa(lp60
F-0.9287444826688502
aF-0.8912903128008561
aF0.6492599941393158
aF0.2332141191429243
aF-0.4770440492915848
aF-0.013212151658394237
aF0.6264905555926114
aF0.41271613393617745
aF-0.7027769007601509
aF-0.010361796106638689
aF0.06800191996379472
aF-0.12917706866123121
aF-0.5519509046964627
aF-0.21638547366953542
aF-0.907541098009263
aF-0.25905490227401334
aF-0.7025733420412278
aa(lp61
F0.9151499289372897
aF-0.14208425752931964
aF-0.31257959558199633
aF0.08761692829761761
aF-0.964809492236489
aF0.737113677131047
aF-0.9762082993286956
aF-0.8897094184125653
aF0.9092799694120176
aF-0.586367844462418
aF0.2395375369876424
aF-0.2316580182801653
aF0.8409724157538389
aF0.8909673152105081
aF-0.49166014537455444
aF0.9724408757333778
aF-0.7168736399678547
aa(lp62
F-0.8984150072113267
aF-0.007474139053127872
aF0.405543763968129
aF-0.9916884847522306
aF0.1930728052059745
aF0.6918987866251876
aF-0.553237130152201
aF-0.974202789558237
aF-0.7255307833339919
aF0.9640217328302302
aF-0.8115116349552914
aF-0.1341971344937932
aF-0.13609982281488733
aF-0.9178709619041578
aF-0.5414371844535806
aF0.47850669655495576
aF-0.8764030636274234
aa(lp63
F0.42612873256015765
aF-0.8779822368992712
aF-0.5609340191722747
aF0.7181356907179739
aF-0.41848050987845514
aF-0.4643440187876807
aF-0.8277129286418222
aF0.49281037588422527
aF0.002999202652706301
aF0.7651642347331933
aF0.1650043081359293
aF-0.3822177432665703
aF-0.39173219135965326
aF-0.09384654447816003
aF0.4308761479758353
aF-0.7366010469453553
aF-0.6111117873840431
aa(lp64
F0.7597040741450218
aF-0.08764311887587134
aF-0.9486868560692308
aF0.7677664929561334
aF0.6369660958163463
aF0.41940889693319905
aF0.06224584989401324
aF-0.2754131901134908
aF-0.5743613719305689
aF0.46573185384831406
aF0.7295031235789375
aF0.052571178339539275
aF-0.8726564643891589
aF-0.8552876437149391
aF0.4706929159871236
aF-0.7474207792352011
aF0.654999877473977
aa(lp65
F0.8100831671065711
aF-0.8216685903335811
aF0.2128826893260379
aF0.3111307352614219
aF0.002361616159373887
aF-0.9329042660602904
aF1.0515609561441683
aF0.5752783170534431
aF-0.19839369133879894
aF0.2918654626141304
aF0.5891469083095594
aF0.4831779627328472
aF0.7978913169032446
aF-0.611426011787316
aF0.05436600063144055
aF-0.7781408345345565
aF0.652416852651266
aa(lp66
F0.039975079318418205
aF-0.3520695492939965
aF-0.5681686825383062
aF-0.09713288086511455
aF0.6316950263433613
aF-0.07268603253253733
aF0.772645565143279
aF-0.553039587375532
aF0.41005294430965705
aF0.5031988271985749
aF-0.024765726472764538
aF0.1909056585154237
aF-0.09709445040162777
aF-1.0090862788059698
aF0.101017912678215
aF-0.8793593440929841
aF0.4043524156952905
aa(lp67
F-0.17434557208479715
aF-0.05643386724740348
aF-0.6026420698669928
aF0.34926899555599034
aF0.633419103399105
aF-0.893786516430403
aF-0.7293772362585123
aF0.16510205630922362
aF-0.10998565593576135
aF-0.6680886429662014
aF-0.7145508543476575
aF-0.8475585047783554
aF0.545638256295773
aF0.32776000722648446
aF-0.7356625920212083
aF-0.09124848136835102
aF0.06099437030466726
aa(lp68
F-0.75556812685918
aF-0.21189161208944324
aF-0.19726632838886562
aF-0.28437073641833366
aF0.14852417818700844
aF0.541954604594475
aF-0.844646016754681
aF0.0846905605150585
aF0.4577779842489926
aF0.15890558338394456
aF0.3682878232043581
aF-0.17349725636263846
aF-0.8963801446250943
aF-0.14123346928485142
aF-0.9215531256972705
aF-0.06409672439200942
aF0.5416308114497875
aaa(lp69
(lp70
F0.6435329826382565
aF0.36981964340465007
aF0.6075498832725921
aF-0.5943983814060985
aF-0.6387670998229459
aF0.6808639266039036
aF-0.14887872073932917
aF0.957186591617844
aF0.9597422762359066
aF-0.449174525191956
aF0.6137635290728826
aF-0.591013646160284
aF0.350602446231672
aF0.8038312235010711
aF-0.7691993904501591
aF0.8683389870899231
aF-0.8278735319974252
aa(lp71
F-0.6361816773407521
aF-0.24517527985778853
aF0.3354933494121699
aF0.15742717840803158
aF-0.8810837775567653
aF0.07727356021070192
aF-0.5877700465537132
aF0.8814162653587652
aF-0.20364715075953005
aF-0.7963387715489522
aF0.48207564311405093
aF-0.08423463992750681
aF0.593535166592886
aF0.028364591642114266
aF0.8798291626493105
aF0.5550778904337916
aF-0.07481889355835417
aa(lp72
F0.06600689780110555
aF0.286940057505947
aF-0.1744960861482708
aF-0.021371071059779218
aF-0.9784673726756231
aF-0.4243967483727854
aF0.08065324467847375
aF-0.8469999487721432
aF-0.7740468005319451
aF0.043883467235013025
aF-0.4586913351718342
aF0.031852183023322676
aF-0.3187150511212662
aF0.5160296876329293
aF-0.7774857043199919
aF0.8278346040762247
aF-0.06739593750902982
aa(lp73
F0.4694482975654416
aF-0.4265459113985235
aF-0.9375488938146715
aF0.9273788785167679
aF-0.4475702338025437
aF-0.3753010685880183
aF0.39821509276488815
aF-0.24624527831106854
aF-0.7333994703765491
aF-0.4393201698124437
aF-0.4664464442420423
aF-0.509878755421141
aF0.40937524716831686
aF-0.309804457469139
aF0.6221826307349415
aF-0.21219913740270754
aF0.6372061162000386
aa(lp74
F0.5048181598886404
aF0.2638353734939112
aF0.005662005742037351
aF-0.6835538628312774
aF0.1775932902021201
aF-0.4506195925232901
aF0.2811197462204274
aF-0.9764942400630673
aF0.3414766966447266
aF0.2966822752849579
aF0.810862401363103
aF-1.065583605029512
aF-0.8872632444431887
aF-0.027955335514779783
aF0.8099030142983389
aF-0.5552124030879736
aF0.19012784728715232
aa(lp75
F0.0853368461833109
aF-0.2167494935432544
aF0.8527985682568608
aF-0.5903591548624606
aF0.13779873187063807
aF-0.14230480093551365
aF0.11079500521009683
aF-0.15216039487071994
aF-0.46074192000173575
aF-0.5305203278063295
aF-0.4898876360226585
aF-0.596215777090113
aF0.47220419412551173
aF0.6810357016288661
aF0.925737524010649
aF-0.8052756850668935
aF0.14939582480997232
aa(lp76
F-0.5600272712375581
aF0.1158766266555825
aF0.34780367429021125
aF0.27087527002198575
aF-1.04302064272913
aF0.1950857859752605
aF0.5884167631538754
aF0.26684075545282954
aF-0.3164262439600873
aF-0.41694765702973535
aF0.19919356571976388
aF0.5037543908705884
aF-0.233678169361561
aF0.3050587155235481
aF0.3919582061932977
aF0.6514204271776997
aF-0.8891278197350371
aa(lp77
F0.7767776192485845
aF0.6800852747405745
aF-0.9832341234895182
aF0.06984435429771366
aF-0.005862294387943591
aF-0.8887509342042752
aF0.7843798843684299
aF-0.11965364248528965
aF0.20126447960117083
aF0.48554423933781715
aF0.3946960942399564
aF-0.710130184505818
aF-0.5239866125907285
aF-0.7574040374650091
aF-0.5709783386312611
aF-0.7339700411173157
aF-0.5247845618912302
aa(lp78
F-0.09633570855409652
aF0.6937561021085142
aF0.415237619800691
aF0.4143452858386426
aF-1.0011170522528092
aF0.10347000380419777
aF0.6662621010778284
aF0.5830539651823266
aF-0.5434604772686003
aF0.797665378549226
aF-0.3110925933969385
aF0.5793105485457386
aF-0.2715030425002792
aF-0.5961687214687306
aF-0.27555770464575124
aF-0.10491104182545288
aF-0.042426914873784416
aa(lp79
F-1.0634986783936256
aF0.0016952364789283765
aF0.018193781132090307
aF-0.17196241238664697
aF0.7285490172640097
aF0.7103188616929794
aF-0.8622870045821778
aF0.5229466383656706
aF-0.08949754519533189
aF0.7422866171041882
aF-0.2700255325296642
aF0.5622533937856473
aF-0.4293149899021028
aF-0.623287034605601
aF-0.05536868886892198
aF-0.15448885313287972
aF-0.8108534561893059
aa(lp80
F0.7162112740474323
aF0.04513164435122
aF0.7049445104354617
aF0.9171043284525731
aF0.6593674179785168
aF0.8003470496931528
aF-1.0053221663063576
aF-0.06936188579122261
aF-0.6544168088549852
aF-0.0035530425368098524
aF-0.3180836677072967
aF0.5130295211496619
aF-0.7237605058959437
aF-0.543886839462434
aF-0.2794202622562004
aF0.5231742409846855
aF-0.7188085098590804
aa(lp81
F-0.8928765153617517
aF-0.7718244587137318
aF-0.3614304512643823
aF-0.3805364248810839
aF0.6593606836835754
aF-0.05799594330002636
aF-1.081015039248957
aF-0.5168242210516049
aF-0.3155093435551522
aF0.5007704667489972
aF0.8745373261440346
aF-0.8461818271469224
aF0.1991867095041271
aF0.19097154671894093
aF0.32233809807531244
aF-0.3214448236150309
aF-1.0038902141098596
aa(lp82
F0.12772228860361698
aF0.02679540187801983
aF0.2938241730717462
aF0.40675270245904227
aF0.3352494780754748
aF0.2291631350394324
aF-0.6769554818901692
aF-0.19423919613691062
aF0.8880025278772573
aF0.4771143455047988
aF-0.006323143225977661
aF-1.053498277312791
aF-0.003799314306654472
aF-1.0566843454188226
aF-0.5158168133607005
aF-0.5408171333365299
aF-0.38267235906063235
aa(lp83
F0.9611487223057111
aF-0.7139390088488454
aF-0.8088342050758932
aF0.5757679602665607
aF-0.9901188913130254
aF0.8626156402789988
aF-0.20664088262900385
aF0.05576062077147159
aF-1.0041692892600478
aF-0.937305089470324
aF-0.7357999623649251
aF-0.2494659890258989
aF-0.9423627247673689
aF0.26062989454607505
aF-0.9903937858087809
aF-0.4012733327223202
aF-0.5960502578208908
aa(lp84
F-0.21565628196619804
aF-0.06303699323363872
aF0.4356315764162881
aF-0.6120195201739183
aF-0.8473730973552619
aF-0.8251276051523959
aF0.1230130952298739
aF-0.10697630268420663
aF-0.2525474008980615
aF0.4515692291581967
aF-0.2130397787556804
aF-0.6184305519788467
aF0.48531357717003404
aF0.03631467723569998
aF0.3853122912396147
aF-0.5826718459272463
aF-0.715486158885148
aa(lp85
F0.34995702289532926
aF0.7768639753838186
aF-0.7776830724057198
aF-0.5675426563591658
aF0.15176015729196052
aF0.3032208769988969
aF0.21808853189712374
aF0.7320432147876887
aF0.8497655501968042
aF0.7957308181585173
aF0.18257121914536362
aF-0.7623463661371932
aF-0.8205342085151752
aF-0.5933911509205637
aF-0.2757242117340811
aF0.9077217509677323
aF-0.04399643654799758
aaa.