(lp0
(lp1
(lp2
F0.047170924828646044
aF-0.8180357913774083
aF0.5101332214416887
aF-0.6565944555915422
aF0.3715569809559296
aF-0.27008455407649556
aF0.3618721997609984
aF0.8114980325042165
aF-0.5098503098932525
aF-0.656349497646536
aF0.9379598789767682
aF-0.8141002971532523
aF0.8186895758669244
aF0.7076286080545504
aF-0.8168097075809677
aF0.41858743103333484
aF0.7370602987622268
aa(lp3
F0.6405083698450957
aF0.24559423851354567
aF0.48786000443381083
aF-0.313075113190757
aF-0.19927196660146107
aF-0.6570991708550389
aF-0.5324664658498832
aF0.7185858580465185
aF-0.6400138059747615
aF0.44118120188701293
aF-0.7825566898917009
aF0.8424598610642904
aF0.5243434765875394
aF-0.3016106955147271
aF0.507654035450396
aF-0.3687034789805457
aF-0.7577823425564771
aa(lp4
F-0.6103285633704421
aF-0.2782570255185355
aF0.8574667486574514
aF0.6549901977482346
aF0.047467897311114005
aF0.09863565362692839
aF-0.0338965513944014
aF0.022664145975474836
aF0.11988715153914731
aF-0.49753938203905324
aF0.5037541318279011
aF0.41486458821816874
aF-0.8606548761482788
aF0.44079070630155304
aF-0.4893940271722288
aF-0.8875710329066182
aF0.40718047660182166
aa(lp5
F-0.1406446722393453
aF0.4603427409708909
aF-0.7702690552123177
aF0.811951190360092
aF0.33701143233340813
aF-0.5768899337231108
aF0.8920032715102901
aF-0.6969430593186023
aF-0.1468650517308765
aF-0.4209143955664414
aF-0.33976742741570787
aF-0.30200875097985147
aF0.5650063116067494
aF-0.09043769626429854
aF-0.520728064310475
aF0.014801167562238149
aF-0.556267861299431
aa(lp6
F0.1996991335887719
aF0.32864236670244784
aF-0.7520192321701322
aF-0.88723695290962
aF-0.3906610385102349
aF-0.1673339651362462
aF0.22868025403485315
aF0.8329947856911102
aF0.4507675433011453
aF0.7661379702512658
aF-0.40587702983317886
aF0.5849402659253666
aF-0.3245855170405989
aF-0.3268908003606581
aF-0.08949974455378751
aF-0.6850099889958989
aF-0.5810549087582115
aa(lp7
F-0.36806255943898725
aF0.948493695981661
aF-0.36061475091428763
aF0.1343778757891756
aF0.5973935740102063
aF-0.34281920854528236
aF-0.36261989064500777
aF-0.5617856465977389
aF0.0723233171544242
aF-0.9357653581126741
aF-0.1662449867996767
aF-0.29899575033903636
aF-0.4900662823685602
aF0.6458122402765634
aF0.6585344923873013
aF0.4134408091457855
aF0.20128535409742665
aa(lp8
F0.17983418381820804
aF-0.22310948049872392
aF0.30490648307128976
aF-0.18773114895220355
aF0.85001500448878
aF0.8794425268233259
aF-0.601297601123538
aF-0.804828108896608
aF-0.5381170109861704
aF-0.23941401384921046
aF0.22223084357806844
aF-0.09817116090407207
aF0.6284192533506336
aF-0.26504881435786953
aF0.8516718855823522
aF0.06106250162765048
aF-0.1554091441728227
aa(lp9
F-0.8547798749188871
aF0.7099718587638879
aF0.6935810698818206
aF0.4095554365940215
aF0.48934419140466767
aF-0.3459997958938603
aF0.1978260542703174
aF-0.3130780678142786
aF0.7666484941616021
aF0.061770437422651536
aF-0.22894887526377938
aF-0.33721531448816044
aF0.239197052404164
aF-0.5225987847698277
aF0.4320609000386568
aF0.6434433847489729
aF-0.6130186548001857
aa(lp10
F-0.1772946936451778
aF0.25463151608917944
aF-0.4212186319001321
aF-0.04151711752101184
aF0.45267963586634075
aF-0.7148979923731746
aF0.9252549177065421
aF0.3513302711426556
aF-0.8491955913252718
aF-0.2833370522368126
aF0.056398430197103
aF0.4715911067188219
aF0.018589227518963636
aF0.05620790083884408
aF0.8616837898606655
aF-0.6239006881656033
aF-0.26943945914414247
aa(lp11
F-0.0705441075313673
aF-0.5024304524155399
aF-0.6524797914755436
aF0.17947344804183052
aF-0.463872349433299
aF-0.07153900216029663
aF0.4846181718943281
aF-0.049379431943988195
aF0.22454232454168088
aF0.7787842506374729
aF-0.6889044330893885
aF-0.9878361260040944
aF0.5136691664687829
aF0.6465678318684049
aF-0.8011359566162735
aF0.546487749347331
aF0.1926197258928979
aa(lp12
F-0.13017856674163997
aF-0.5924398554848966
aF0.5186794321029364
aF0.6351427652648372
aF-0.31031863001040416
aF-0.2887318281692999
aF0.08892960429108965
aF-0.5148860680362755
aF0.12045162865338321
aF0.506273637568806
aF0.0014927922847514097
aF-0.7856507528035641
aF0.2030880450755972
aF0.47634849580771266
aF-0.9306522038027705
aF0.4325381940566255
aF0.7504610058448329
aa(lp13
F-0.5156341105289592
aF0.4159000925430085
aF-0.42514854573358773
aF-0.5588407776316326
aF-0.8730636335706743
aF0.7494272948980885
aF-0.5886646005704916
aF0.5116571503358609
aF0.5894020186420528
aF0.3091301596568836
aF-0.4647497494587265
aF0.03722788232899621
aF0.17036889287449486
aF0.651542826680048
aF-0.5454978345335397
aF-0.09563975978895978
aF-0.25098773556416654
aa(lp14
F-0.7860110538493241
aF0.41839341684374576
aF0.56163419022183
aF-0.1081907908805797
aF0.9447648934589012
aF-0.028122897154309046
aF0.07040448861328463
aF-0.1104742096572704
aF-0.15005862818064508
aF-0.6408374616720764
aF-0.83391932576264
aF0.290706253186104
aF-0.08229060215118822
aF-0.44792288838937067
aF-0.19697258618101077
aF-0.13792701657689288
aF0.1639905019187491
aa(lp15
F0.004987608217881689
aF0.48881738662390384
aF0.038071842293767144
aF0.5660315725578717
aF-0.03770008260597346
aF0.04065660497434043
aF0.5528276314439946
aF0.31617648298361334
aF0.8049955092391397
aF0.4824636473142705
aF0.859567225889976
aF0.43974235144892093
aF0.8376711355999209
aF0.6020163739218114
aF-0.7654338370744418
aF-0.6198647280215637
aF-0.959136961954848
aa(lp16
F-0.211413130995751
aF0.35242017177039675
aF-0.7960320468526567
aF-0.18828784393693399
aF-0.33182500855531827
aF-0.30416412158380557
aF0.19034157502318938
aF-0.10376532327274401
aF-0.1546507210999839
aF-0.09750568314500363
aF0.06501712707536855
aF-0.4833338009164454
aF-0.1639182384763529
aF-0.4181200031422503
aF0.3279789329007545
aF-0.5516850239311875
aF0.8097964209186099
aa(lp17
F0.18615333414269442
aF-0.12102984822094331
aF-0.14629135612705602
aF-0.9802528296088091
aF0.7820716026359582
aF-0.009086036739351933
aF0.8938657250959845
aF-0.48864016704687896
aF0.7284091391616221
aF0.6669250574641334
aF0.9236245379893824
aF0.11172134825703273
aF-0.26264616331585744
aF-0.07814975237491018
aF-0.008150697745761493
aF-0.48271199819953337
aF0.4535197717217818
aaa(lp18
(lp19
F-23504.038096120974
aF-15874.896958953335
aF-1806.031465352747
aF-2452.3847247358563
aF-1953.8331737063004
aF-1281.7404520132804
aF-188.71509944600282
aF-189.139451594461
aF-188.93535380655993
aF-188.2921812436246
aF-188.99404604769458
aF-189.75022536221113
aF-190.39666699168512
aF-188.60405864467947
aF-188.4572909651432
aF-189.83948211559706
aF-187.95626624569516
aa(lp20
F6478.251873691763
aF3399.201837253545
aF1267.0389694549149
aF1067.0014635469718
aF544.6693277465992
aF374.1135893629664
aF53.676768360965376
aF54.2687401152413
aF54.32685893519045
aF53.664208208725874
aF55.04772018184058
aF54.41379489092142
aF54.19108395620851
aF53.612523402710856
aF54.04994710144411
aF54.55926512435022
aF53.51638504458267
aa(lp21
F7889.012165247487
aF5559.716338238585
aF575.4077856798283
aF785.9697270448117
aF686.3450606282252
aF356.0706336549955
aF63.478745425897344
aF64.11242093554792
aF63.50105993711258
aF65.09626367726072
aF64.4887497759425
aF65.15311726175821
aF65.45042084755855
aF64.0540817520524
aF64.17318215005024
aF63.575219171628405
aF63.49423303598593
aa(lp22
F-1778.2676376480479
aF-1587.3006871233429
aF-5.02122288855028
aF-34.64076957486791
aF-154.22432437902185
aF-83.05138430654145
aF-13.930814965817731
aF-14.20584692124246
aF-13.660776725028605
aF-14.099879897039784
aF-13.974020369788043
aF-13.778540901347943
aF-14.275318879557421
aF-13.417689365921024
aF-13.442491022261947
aF-14.135456038967577
aF-13.345932152469947
aa(lp23
F-6130.950542344955
aF-4691.10716348844
aF-262.0697662315038
aF-491.83305946559585
aF-518.6832514639917
aF-310.63665001347607
aF-48.684119896650294
aF-48.47805743227563
aF-47.302137727529825
aF-48.343013574807635
aF-47.71923527707674
aF-48.94435901062387
aF-48.4375559620195
aF-48.34649574711504
aF-47.04467005403832
aF-48.302386769728685
aF-46.841910105259295
aa(lp24
F-822.9750876979942
aF-756.2849112514615
aF13.496505567654983
aF-7.569756315921473
aF-70.11454449022024
aF-41.25983723828233
aF-5.323130757484
aF-5.423359144082751
aF-6.676000980220535
aF-5.766952183294384
aF-6.904004040449208
aF-6.200421687847874
aF-6.864672269237645
aF-6.294400249717285
aF-6.536713150640971
aF-6.311967891399937
aF-6.958348112376466
aa(lp25
F-694.0876347736698
aF-593.7492943088902
aF-8.494927630886206
aF-23.217426745947876
aF-58.253381347668
aF-36.699888166868135
aF-6.311553583197442
aF-6.1479622460459575
aF-5.668887442242813
aF-5.208267519985882
aF-4.924138913763625
aF-4.916259794485673
aF-5.456808736964245
aF-4.646275282179588
aF-5.545146094323538
aF-5.152222599885196
aF-5.388016121624623
aa(lp26
F-4938.448596138058
aF-3954.8330008688536
aF-174.24459975053375
aF-290.10724742013946
aF-415.47101059205727
aF-251.91164418378767
aF-38.02738955975886
aF-39.08105574032018
aF-38.22787599933935
aF-37.80272467396411
aF-39.274580842909955
aF-38.640065208588425
aF-37.62389667499088
aF-37.47845113945339
aF-38.25601131812053
aF-37.931279743412375
aF-37.66103197105338
aa(lp27
F-5292.817183335342
aF-4219.297126065084
aF-199.78141186834617
aF-320.09106764775294
aF-446.35233545618235
aF-269.4267888653788
aF-40.297601481434135
aF-40.605045006216734
aF-40.46173437066831
aF-42.10358291818031
aF-40.812585381144785
aF-41.34304795114323
aF-40.697570804594925
aF-41.710945861163
aF-42.08534373586837
aF-41.850969286659385
aF-41.5361710903831
aa(lp28
F-2391.8844638610076
aF-1958.1656727005288
aF-72.43052769772216
aF-115.88583439492878
aF-201.36123451811955
aF-120.87877755702038
aF-17.98658275238527
aF-17.72954019322253
aF-17.80557124942183
aF-18.677467933768085
aF-17.739818654816627
aF-17.645558119852563
aF-18.649841741143394
aF-18.649001195624614
aF-19.506729572680936
aF-18.526798751430018
aF-18.585331113633853
aa(lp29
F-1334.5522279620932
aF-1015.564309460253
aF-67.8733213794658
aF-102.15661429936868
aF-113.46967514577871
aF-68.11595795474148
aF-9.86251069231233
aF-10.614805874986734
aF-10.690332748757582
aF-10.940564674868112
aF-10.931733946435239
aF-9.98365500689767
aF-11.569441214209641
aF-11.35437448687668
aF-11.213552607886676
aF-11.247675824075596
aF-11.102940964815001
aa(lp30
F-1397.8412138013778
aF-1085.5550186827095
aF-62.22222590938163
aF-99.69273200587571
aF-117.37074866566309
aF-70.72219575816001
aF-11.897682807967726
aF-11.986079710367283
aF-10.961357466664154
aF-11.11363526692934
aF-11.964163357228232
aF-11.284775290261665
aF-10.96322137016256
aF-11.971884695079943
aF-11.824952835524096
aF-11.750321040435988
aF-11.339777645019911
aa(lp31
F-1946.4563516773899
aF-1498.8132297983582
aF-87.39868658760373
aF-145.1817963214041
aF-164.591660271237
aF-99.89892777461658
aF-15.658838939376649
aF-16.039807293760607
aF-15.740523845332788
aF-15.659073387256333
aF-14.97293971292154
aF-14.964935576750776
aF-14.985118652934526
aF-15.982680681155243
aF-14.39737660190725
aF-16.00258567263498
aF-15.561149863623973
aa(lp32
F-2433.398977191271
aF-2017.671878816369
aF-68.59053681160654
aF-105.79522721136811
aF-204.59759548618584
aF-125.1065903562971
aF-18.992996359376686
aF-17.85846373370454
aF-19.160713268425773
aF-19.11158691372893
aF-18.831752469481042
aF-19.580110663957193
aF-18.654943755357813
aF-18.657137014156653
aF-18.502507283902123
aF-18.006747236144697
aF-19.267346682296104
aa(lp33
F-2254.4817107404083
aF-1874.7893359126222
aF-58.675914256006735
aF-97.34099568252324
aF-189.9009334978648
aF-114.26289525592387
aF-16.663888991977142
aF-17.26879872672211
aF-17.427095311104928
aF-17.528228925941256
aF-16.859498756513386
aF-17.286981565310036
aF-16.6801514633458
aF-16.909191612862937
aF-18.118292371107596
aF-16.71939541199194
aF-17.50960256176168
aa(lp34
F-862.1704816070898
aF-683.7774570303977
aF-36.07497335096998
aF-52.31985317699708
aF-71.93822987450967
aF-43.42586997445719
aF-7.240774815145541
aF-6.5647516944675575
aF-7.186767569658639
aF-7.1897056120538885
aF-6.825841844992222
aF-6.560681142890689
aF-7.3680638746356015
aF-6.540711284773447
aF-6.105772373517001
aF-6.206146938509552
aF-7.762480163494076
aaa(lp35
(lp36
F-2880.0805910840745
aF744.1037537542287
aF-767.8538245195361
aF-2023.4522051413273
aF-248.26061785412978
aF-146.62420925543844
aF-25.16800753091379
aF-25.159792753686947
aF-24.965578400817133
aF-24.40242362059137
aF-23.93611742987012
aF-23.791462715968905
aF-23.619604289470672
aF-23.781773263831134
aF-24.71680079151156
aF-24.773092056379124
aF-23.525352858877042
aa(lp37
F106833.19811709604
aF82191.87627328804
aF4584.657486651848
aF8153.73385365399
aF9020.217381149823
aF5425.919539038853
aF831.2583357745942
aF831.5095348933293
aF831.785831599804
aF831.0641613800427
aF831.1337756592964
aF831.3150546412649
aF833.0862271258309
aF830.5651022501062
aF831.7972880168071
aF832.8771789445226
aF829.1425729061197
aa(lp38
F-915.610600908651
aF-5034.482302043589
aF746.2358594471402
aF2619.6764022239345
aF-53.64910912571318
aF-78.61125781738575
aF-7.159484215617547
aF-7.402778174586059
aF-6.244988741220476
aF-5.629101073881233
aF-5.860388191515883
aF-6.258823466255217
aF-6.405320374322803
aF-6.710843412852025
aF-5.834496092653536
aF-6.138461880577183
aF-5.991896068972838
aa(lp39
F-710.3324819775156
aF-1364.8113823051638
aF64.44128310230734
aF471.6021640387682
aF-54.37193486517384
aF-48.97473163641322
aF-5.675639086055521
aF-5.387071862340669
aF-5.366191946463351
aF-4.991534567432976
aF-5.488026608132515
aF-6.124519063402891
aF-6.3000764921468795
aF-6.288343081977424
aF-5.732206710812374
aF-6.374672509932481
aF-4.973150797844921
aa(lp40
F-379.47950061900167
aF-619.9308575600568
aF11.787153035728961
aF190.39436948924038
aF-29.46198317320359
aF-26.11251832978006
aF-3.764405153888148
aF-3.9835198462072174
aF-3.0979902525626994
aF-2.523823095941363
aF-3.0897091885726606
aF-2.2812289708226055
aF-2.6455614569231147
aF-2.9333345854975095
aF-3.7085749845392804
aF-3.1442035296958264
aF-3.0032736371664517
aa(lp41
F-167.10071096998087
aF-297.07904813562413
aF7.684457047271286
aF101.49698222694396
aF-12.307276835181232
aF-12.32743577650938
aF-2.064363154375022
aF-0.8357155119125553
aF-1.659596074021174
aF-1.5084615992130435
aF-2.0546423234030335
aF-0.6871324364236778
aF-1.485889958436435
aF-1.6846868503901613
aF-2.195065296138428
aF-1.493199943597559
aF-1.2930639254290066
aa(lp42
F-165.4925992178721
aF-298.92034836137236
aF11.180393370613755
aF101.61966806327608
aF-13.416307923856717
aF-11.501151914113782
aF-0.5783468113930608
aF-2.1155557323164635
aF-1.7509165166663452
aF-1.3348240267970317
aF-2.1166662317776423
aF-1.0027382582622983
aF-1.0105594896873138
aF-1.961412650791744
aF-1.2858109055781446
aF-1.3411507634305737
aF-2.2347113841421637
aa(lp43
F-238.06530603150713
aF-464.7448565637209
aF22.682256993289833
aF162.66898446870945
aF-17.81952086761795
aF-17.00279444458312
aF-1.2967813335716913
aF-2.610551846637197
aF-1.7297344173683917
aF-1.9292631222475336
aF-2.8363522499826566
aF-1.964276359981465
aF-2.2236814977595944
aF-1.8864584443243884
aF-1.1250338654504273
aF-1.2634926675269438
aF-2.5231831558497486
aa(lp44
F-63.78212659601834
aF-311.295250882307
aF43.733763123747025
aF151.42170737447915
aF-3.9757646503981365
aF-5.315987060311474
aF-0.6982274138336548
aF-1.0957862409799082
aF-0.06209807039748097
aF0.43021622171006085
aF-0.7821685920818884
aF-0.66991223950668
aF-0.7854356401686843
aF-0.5799020281848961
aF0.059371704626035
aF-0.9927413148835925
aF-1.4891064333014696
aa(lp45
F-116.59650751468608
aF-116.6890520072712
aF-14.469406114494737
aF20.9153217025392
aF-9.690978562503412
aF-8.090695017150763
aF-2.04867482602562
aF-1.7863070009175315
aF-1.436881014992349
aF-1.5631614326715644
aF-1.3429819676247827
aF-0.6657494341025225
aF-1.3143436843128835
aF-0.49837243649707036
aF-2.2104611440034954
aF-0.23882250634460256
aF-1.4121322341252953
aa(lp46
F-258.8740067502508
aF-508.55945460800865
aF24.71066562548416
aF180.58786464139897
aF-18.456303826801072
aF-18.67281776509021
aF-2.00703713646062
aF-2.599380042880992
aF-2.748660708526267
aF-2.1189869478866235
aF-1.8187420211644516
aF-1.6878424810673642
aF-1.970682029550515
aF-2.1229199780981234
aF-2.3942111320236705
aF-2.277100042229935
aF-1.23680930857782
aa(lp47
F-245.66729291638615
aF-484.85581737158367
aF24.371365715172566
aF171.26350621696452
aF-17.72900465648969
aF-16.647689964268512
aF-1.7206164281230456
aF-2.5832455109752597
aF-2.0371766036705563
aF-1.8561021859920737
aF-2.716399008771347
aF-2.429234120456231
aF-1.3125232767335426
aF-2.0132779397464855
aF-1.201888593825685
aF-1.7497302071136114
aF-1.865862096253538
aa(lp48
F-148.60308864904607
aF-258.8012615504272
aF7.110653222532971
aF84.99667633906792
aF-12.501092219445948
aF-9.711768500136497
aF-2.21471277182108
aF-1.0567619728965698
aF-1.5870401026186165
aF-1.9436627818538272
aF-1.183860043930736
aF-1.78631763733431
aF-2.242556418989104
aF-1.3712187540020562
aF-0.6694796636768573
aF-0.5341178654972112
aF-1.5153799939777508
aa(lp49
F-178.22040654833648
aF-328.4110025536319
aF10.522702896670138
aF114.53209421764346
aF-13.797769201024447
aF-11.50481868054535
aF-1.3055111461931856
aF-2.466612141890731
aF-1.5411818404841153
aF-0.7488011533756528
aF-2.491652414182842
aF-0.6812695359392542
aF-0.5482126770955044
aF-1.8756652282415311
aF-1.1279931306502475
aF-1.823255826372237
aF-1.5200068520009855
aa(lp50
F-124.38728769914152
aF-157.04396891153135
aF-9.6100517685487
aF42.023591448909805
aF-9.161191146671001
aF-8.020757636399741
aF-2.112398533441167
aF-1.7925676884607533
aF-1.3238835605931414
aF-0.6658969855112411
aF-1.4530094886327998
aF-1.4835717870119154
aF-2.047863983604593
aF-0.8523993403781738
aF-0.777924065157273
aF-1.1313806736419008
aF-0.7578577736344208
aa(lp51
F-61.46630983454853
aF-297.0083288674678
aF41.985429818166345
aF144.74523515188073
aF-4.724621506097968
aF-3.7137927852585304
aF-1.28389465932571
aF0.29383669822015307
aF-0.49161419960859654
aF-1.5049205414890503
aF-1.4116560597161476
aF-0.26434949457542334
aF-1.4225440052608511
aF-0.15050892214879574
aF0.10820443508826018
aF-0.8954021406977052
aF-0.8609877997188672
aaa(lp52
(lp53
F-286.3645051605952
aF4408.996440590049
aF-909.7336354822593
aF-2838.631768389374
aF-36.059896236718124
aF-2.649854564535571
aF-3.674593961693157
aF-3.316364762488451
aF-3.7334626438988403
aF-3.6678390290139884
aF-2.5495060018974067
aF-4.209739150706428
aF-3.786515565200135
aF-3.0048771982891815
aF-3.1195783846046132
aF-3.4972013427404036
aF-3.2661639877265256
aa(lp54
F-222.24227121947996
aF-2304.4158553171033
aF413.3668189028777
aF1241.9982451857725
aF-11.117365186343028
aF-17.573856332476794
aF-0.7309582042723403
aF-1.54490438193212
aF-1.0924243647190173
aF-0.29872362409114644
aF-1.5112766930278392
aF-1.5813731236919435
aF-0.9477888438605685
aF-1.0566287313838516
aF-1.588918354168805
aF-1.3739246227225834
aF-0.005464849252447798
aa(lp55
F380.74333085746173
aF-2904.7669933970906
aF636.7869801149453
aF1936.554672422885
aF39.693315487391466
aF10.560400577152551
aF3.335174326738287
aF2.967527123931286
aF3.698745042537329
aF4.425946886949384
aF2.8759674230620953
aF4.367170908934417
aF3.152285549261551
aF2.705531273090972
aF4.425367240472727
aF2.7341080141465435
aF3.9884597637335224
aa(lp56
F-101.59337223122337
aF271.97453593915924
aF-85.5100826547062
aF-227.55023181821858
aF-8.004110168800281
aF-7.785393426232884
aF-0.6579392374774663
aF-0.7249030924629812
aF-1.575141965457738
aF-1.6656548992870166
aF-1.6011147769613405
aF-0.17881842578650364
aF-2.0556703146220605
aF-1.504009736984408
aF-0.8713121562667996
aF-0.9993388947564839
aF-0.686463102564247
aa(lp57
F-55.900414481484695
aF378.36475874137034
aF-93.07472366910059
aF-263.4904328711021
aF-4.499953415373898
aF-4.402907680888492
aF-0.44985435886765457
aF-0.43847854485622517
aF0.13853026430484033
aF-0.5392386746762521
aF0.2760428514617706
aF-1.3458124565604699
aF-0.7913148172935094
aF-0.2895109999832397
aF-0.4723290481483894
aF0.0274614070206087
aF0.03244992051699321
aa(lp58
F211.6462815079037
aF421.70551957201036
aF-18.090118319496042
aF-150.1884540916889
aF15.558431768110623
aF13.855870837296019
aF1.063116973040305
aF0.5803104118822409
aF1.4901910163735264
aF0.8620944394791794
aF1.9771984486364016
aF0.8403408191251024
aF1.6765754346742183
aF1.3316873397199667
aF2.0620927420980983
aF2.3699890737003324
aF1.5558677425563447
aa(lp59
F-16.590688883980103
aF136.53167158074416
aF-34.558094462403375
aF-88.76054208653859
aF-1.9178014784658355
aF-0.39399713992463414
aF-0.0042115724272096
aF-0.8327649178661526
aF-1.0506191772354674
aF-0.454360178613604
aF-0.02030182762553073
aF-0.6732664021833729
aF0.158309896268852
aF-1.2512829987530556
aF0.14144378934371593
aF0.6342698944965951
aF-0.1888720348045402
aa(lp60
F-10.821962418306699
aF140.4258230819391
aF-33.313936384061876
aF-91.5492609651578
aF-1.9648150031512723
aF0.16703551769547687
aF0.7573072389280663
aF0.6400619046434646
aF0.46991501210868813
aF-0.4655363150471078
aF-0.8543942356940505
aF0.45356988559069245
aF-0.37875962113320377
aF-0.7454115913126623
aF-0.5927827253197699
aF-0.4468984570841401
aF0.5677029117169572
aa(lp61
F187.44935497149433
aF368.57455271927563
aF-17.290953857609452
aF-130.35700428323958
aF13.862735195066229
aF13.960400308682809
aF1.0170770842374894
aF1.927667022564435
aF0.6920330625034911
aF2.0624162090372304
aF2.0535153238599335
aF0.612360204119347
aF2.0562136049421578
aF1.2699032986785563
aF1.5760842268861581
aF1.7352342381323187
aF2.263501771045676
aa(lp62
F-14.667047874364007
aF130.16152889874152
aF-32.442263829760115
aF-87.95897872516792
aF-0.912512501798723
aF-1.9398159009420384
aF-0.7419857597561144
aF0.4514566642491312
aF-0.4122589977815182
aF-0.5437822558457766
aF-1.0314974049362262
aF-0.9355567567437719
aF-1.064120375956006
aF0.20850470582825598
aF-0.732004924287399
aF-0.4467595354662611
aF-0.0802091858026737
aa(lp63
F138.548477146134
aF257.1836582758775
aF-6.67607716403308
aF-91.77133178817596
aF11.675003062100117
aF9.816966916167392
aF0.36816084899235463
aF0.8650536113493866
aF1.6412388274167558
aF1.5518356474563393
aF1.0994486204422582
aF2.026581948916187
aF2.0113310518490213
aF1.3295162620681482
aF0.5386445114476791
aF0.8124073336793441
aF1.2375549043845595
aa(lp64
F-20.505867179574892
aF119.87359526616775
aF-31.33911248870867
aF-81.27768440045669
aF-1.3422451550036365
aF-1.8955366376201672
aF0.4051342807880937
aF0.5072069814239208
aF-0.36072134387990906
aF0.0501221383829996
aF-0.001052373561150377
aF0.4226739154077494
aF0.6107533740424025
aF-1.0129853841437304
aF-0.7821634877758443
aF0.6212548039554388
aF0.1501936710439916
aa(lp65
F-18.408791300256997
aF126.92486798325585
aF-33.57010119428845
aF-84.59234261807539
aF-1.2942624351114345
aF-0.9590409743531039
aF-0.021026462998318445
aF-0.9003861784008643
aF0.6131504021147509
aF-0.8362822531003867
aF-1.1203514541716104
aF-0.8106062373283258
aF-0.9869131747956862
aF-0.30541907266950796
aF0.3531264756163669
aF0.5869967324025621
aF-1.250129321308309
aa(lp66
F-27.35175555068925
aF95.75013792840977
aF-28.064867858184147
aF-74.44385323156237
aF-2.2692281985693623
aF-2.0572277225840367
aF-0.7047623560040567
aF-0.46205767878722653
aF0.4770042285755971
aF-1.0877372707154094
aF0.20605753057504572
aF0.5159426760399564
aF-0.12167453280851384
aF-0.2589665044031462
aF-0.9710385543492855
aF-0.40557237363603715
aF-0.6538410824192388
aa(lp67
F181.71950120339434
aF355.57053730942795
aF-14.068937073267438
aF-126.60063490518274
aF14.31018482771319
aF12.607072781080475
aF1.2146610373251903
aF2.183528851601261
aF1.0349073518302654
aF2.243186389447257
aF0.5148649276561181
aF1.8100108075449126
aF2.113162657160226
aF0.6119707312930943
aF1.3237060729007737
aF2.327092219834954
aF0.8239070363926125
aa(lp68
F-8.92617810167835
aF146.1732300874101
aF-34.33052227504
aF-93.59503313933745
aF-0.005028287654158668
aF-1.1896854217152233
aF-0.9162413690696715
aF0.3060495880988399
aF-0.012305545271622975
aF-0.07904163022018541
aF-0.031043434284569005
aF-0.5638374416447745
aF-1.0255271262771313
aF-0.0878096124954145
aF0.001425399996197517
aF-0.06110910078714945
aF0.04114259677132587
aaa(lp69
(lp70
F1059.699429109852
aF5498.302790642611
aF-838.3049639975119
aF-2716.0558936224484
aF75.81940038967699
aF72.85045787338757
aF7.197708824724836
aF7.877098287433528
aF8.075280596719994
aF6.628904889493435
aF7.8008429688232885
aF6.417815157072884
aF7.974528966631891
aF7.607869043220609
aF7.231162699320083
aF6.66275004500367
aF8.195094161455494
aa(lp71
F-497.311217284816
aF-2253.6084128761186
aF324.0614726123228
aF1075.5481747228812
aF-36.297157133953235
aF-34.57973590157173
aF-3.2245311178442737
aF-3.7428453944286977
aF-4.4391420573345775
aF-3.9117023252619245
aF-4.583814210318778
aF-3.574966561730648
aF-3.7052602742246945
aF-3.461672892026148
aF-3.4694415966184207
aF-4.220625099403587
aF-4.302809843371964
aa(lp72
F-772.9874621388818
aF-3810.100601226379
aF567.9193721710959
aF1862.6328921248341
aF-54.338182816276465
aF-53.695705796575425
aF-5.387660331293846
aF-6.115707883528306
aF-5.123080025515667
aF-4.831306620439077
aF-5.231129559282891
aF-4.444463382259827
aF-5.046110948962892
aF-6.256836285358631
aF-5.9552206172807125
aF-4.377106237116511
aF-5.164181528730745
aa(lp73
F81.55564544573538
aF627.8030708719658
aF-107.26795297235992
aF-334.008426440406
aF6.323291058709027
aF4.576056905258293
aF0.25499135035399273
aF0.09646074729521252
aF0.27344416411597433
aF0.19910126865215477
aF1.120807601802242
aF1.185617120363557
aF1.205021060076716
aF0.06528594364473755
aF1.5104972061984074
aF1.1256829317006927
aF-0.1481994008750838
aa(lp74
F70.00798370296418
aF582.904293682404
aF-101.66187724767548
aF-312.9421493638273
aF5.50713585041919
aF3.7590233657736314
aF-0.35957721785441776
aF0.9629025631050644
aF-0.547531185654806
aF0.5754066430298957
aF0.7997602933099721
aF0.3232532670212198
aF0.22046892890137967
aF-0.02309405682692324
aF-0.3861007389214954
aF1.090125180132508
aF0.7135956686581971
aa(lp75
F21.98014574471755
aF190.6080698339285
aF-32.77801495686061
aF-102.08214267554655
aF2.2303392164943006
aF0.9818073522052517
aF-0.2687429474650929
aF-0.47559046190350307
aF-0.2149123293361502
aF-0.4933985586383075
aF0.4458386466560303
aF0.7049985009967661
aF0.11337329583911168
aF0.01726258326722509
aF-0.44185461864512515
aF-0.5564679856135658
aF-0.17430369225039918
aa(lp76
F21.465738321650072
aF188.56938889975032
aF-31.634378264611136
aF-105.4722690962748
aF1.912659221300326
aF1.6869264149085634
aF1.087600538157027
aF-0.8432423294389055
aF0.7898161877400035
aF-0.7461464468809921
aF1.0403650942932543
aF0.8987674345409642
aF-0.7703373074538393
aF-0.8000753957021365
aF0.8585043955096515
aF0.12828564041143792
aF0.42493078293121117
aa(lp77
F27.34305407718197
aF204.6951296431738
aF-37.547787158369275
aF-105.72818809000283
aF1.516007097972762
aF2.1187219494350047
aF0.7360921709379346
aF-0.377020825865044
aF-0.7801407133098613
aF0.7652352494946126
aF-0.17700114008591492
aF-0.2734235508880308
aF-0.4777412587159969
aF0.051317935301337395
aF0.49050010230206353
aF-0.2868458585200128
aF-0.3461467481582973
aa(lp78
F35.75020377734631
aF239.46758888554152
aF-37.76133790397674
aF-123.96048215952248
aF3.2055658947687222
aF3.1050826174043107
aF0.7441604757798851
aF-0.4589772354394954
aF1.0256728870672331
aF-0.5690732253867579
aF0.5121251435735826
aF1.1952104088664537
aF0.1219817673958313
aF0.993616274837826
aF-0.4274316419750007
aF-0.684041887524938
aF-0.16734490956462034
aa(lp79
F29.447135389599964
aF211.85710475687478
aF-35.34426259295231
aF-110.68531426681355
aF1.8144307566814495
aF1.0801061747773215
aF0.0682745102404684
aF-0.5660433704088248
aF-0.44797764445219784
aF0.4166259476220544
aF1.1047894096185904
aF-0.1672750718683866
aF-0.49566299150789384
aF-0.3980895668384441
aF1.174928960359363
aF0.000778446697502505
aF0.5092865891758045
aa(lp80
F23.735121603048835
aF192.2344948399282
aF-32.315035099882465
aF-104.15858892859269
aF0.807016864623882
aF2.2084190124858405
aF-0.3775340671879166
aF0.4327930276995655
aF0.32699911211615384
aF-0.786947658316037
aF0.5611350805738238
aF-0.7915778833977448
aF0.5867492908860374
aF0.26232116238281783
aF1.1390992320192037
aF0.3927148154481452
aF-0.1937327009024608
aa(lp81
F23.83769162219276
aF192.7107978751888
aF-31.32458191614258
aF-106.78053165159767
aF0.878350661096509
aF1.2248946497979516
aF-0.5494118275805917
aF-0.8483947316927012
aF-0.26850632038970584
aF-0.17438235028989668
aF-0.5722835618991051
aF-0.3152503944292734
aF-0.5431697841462466
aF-0.21025973941692228
aF0.28919794735244525
aF0.691143264266857
aF-0.5915717531944868
aa(lp82
F25.657513993436424
aF198.2972979619836
aF-34.38437725438249
aF-106.78266478281347
aF2.617396475547055
aF2.177124054159422
aF0.5567355558195188
aF-0.1035295162444222
aF-0.6982548476346703
aF0.8673303588175185
aF-0.3764489101390636
aF-0.08162344762025463
aF-0.338087846482526
aF0.03593437590386512
aF-0.16098093040104272
aF0.5410973739945335
aF0.01019124217477892
aa(lp83
F31.870560035785832
aF222.66617416378932
aF-36.48717274140929
aF-116.80321926041701
aF2.0602230304471445
aF3.038924204622551
aF0.2590125697964721
aF0.525134886679666
aF0.8860292886467549
aF0.3882874068554111
aF-0.3481676758291243
aF-0.49864894663446124
aF-0.4890726920487075
aF-0.6948868876341102
aF-0.18149422499357024
aF0.8263281240871173
aF1.0403035644383647
aa(lp84
F24.101523698565693
aF195.64754590086054
aF-34.06950550068264
aF-106.37260227107329
aF2.1095880041092916
aF1.2530631724441756
aF0.37390004198352206
aF-0.2725172478096134
aF0.7206961200444147
aF0.3208363196098036
aF-0.5170540642191158
aF0.8603268220093189
aF0.33294541449866194
aF0.4847367766825051
aF0.5740370366403531
aF0.1732209172965158
aF0.4975075087693928
aa(lp85
F27.450382210893665
aF211.06371710386915
aF-34.76717983697581
aF-111.65110681852116
aF2.7776538903076995
aF2.4211368557182977
aF0.17739825370465
aF-0.7781453774221332
aF0.06177284498168759
aF1.0709630397094474
aF-0.41373798695162656
aF0.2257077498122129
aF-0.09780041202826638
aF-0.28651003431476857
aF-0.026565112327906853
aF-0.28845357991943943
aF0.3968917013875816
aaa(lp86
(lp87
F1158.2005456910001
aF4455.324080007745
aF-590.0058865903965
aF-2043.4438070672659
aF84.25073498298059
aF78.63106749579624
aF8.8680899453377
aF8.116465001669496
aF9.18904673432085
aF9.311825418542648
aF8.080390807289985
aF8.914765284282065
aF8.508453328494447
aF8.031676843855639
aF9.795295560569453
aF8.485510582442695
aF9.2916244176342
aa(lp88
F-457.76190021275727
aF-1650.098037939018
aF230.9862301478494
aF712.0938187390897
aF-33.72650221250541
aF-31.485985388473072
aF-2.597963581986476
aF-3.0004828623944233
aF-4.204924262530353
aF-3.9553473382323943
aF-4.346466997119661
aF-2.6722746270685103
aF-2.726479908974172
aF-4.003034296353211
aF-3.626654611931287
aF-3.5983310218593454
aF-3.1551823718285252
aa(lp89
F-785.0589049619293
aF-2945.8704259361725
aF368.22329487378875
aF1363.0248768592764
aF-57.811813679084196
aF-53.530442683922274
aF-5.886473090399272
aF-6.841564728947027
aF-5.137030277502411
aF-6.862442763373833
aF-6.660263424176804
aF-6.085454807571607
aF-6.963961374010673
aF-6.637116606813449
aF-5.390964462850736
aF-6.25535207489704
aF-5.736605046281234
aa(lp90
F134.51411921802145
aF591.3562524583751
aF-85.21035263175293
aF-282.7380935658646
aF10.59300588605434
aF8.3955672308992
aF1.3511611807690234
aF1.630970539401152
aF1.2055619196132126
aF1.4333425394010813
aF0.9850888611806726
aF1.4667730196782638
aF0.35087722745582883
aF0.014860579189321384
aF1.278907066706231
aF0.9552558196605231
aF1.3747566300130134
aa(lp91
F133.31599675382984
aF581.8187901871411
aF-78.8543975248853
aF-280.51952725268603
aF10.250553034164774
aF8.67143995740661
aF0.36096765673702813
aF1.0084523336802154
aF0.027789339900232635
aF1.9074402519505795
aF0.5388537671913114
aF0.8863895893506276
aF1.3423276155209436
aF1.1958595507134289
aF0.45283023073928286
aF0.9487142536556209
aF1.0382140207266803
aa(lp92
F50.89222191144493
aF211.42542562439894
aF-28.09959442532346
aF-101.32147515441953
aF2.9879052044289076
aF3.7667152697625172
aF0.9307631867743078
aF0.719162990459042
aF-0.07958639104559255
aF0.5067732599156884
aF0.42774182384717685
aF0.6991115668703792
aF-0.19425518408864154
aF1.0436880924150258
aF0.8291857238953314
aF0.7615541018191012
aF-0.1693381825820314
aa(lp93
F55.97210512296766
aF231.824583582789
aF-30.55651822004806
aF-111.55774285249298
aF3.6775514510453746
aF4.335387251178253
aF0.6590169341279403
aF0.2335277154621961
aF-0.0018086864609423753
aF-0.03995924850241963
aF0.3454887203444587
aF-0.19430122454234575
aF0.41004982786210287
aF0.1041261195763723
aF1.03136145826073
aF0.30624929945995066
aF1.2274177528224284
aa(lp94
F52.68926499664065
aF219.91404066610443
aF-28.357189614449887
aF-104.11499273606958
aF3.481222245570177
aF3.8635662453010733
aF0.42278681327741585
aF0.5163354626301656
aF-0.41966950393569075
aF0.7124298067144113
aF1.334684165918496
aF1.293095296957615
aF0.5408974586213671
aF0.31195486189147764
aF0.9023509496964799
aF0.8035770451989844
aF0.37011555065948354
aa(lp95
F50.204375656687134
aF213.48357424033256
aF-27.855285528060794
aF-101.76500890542493
aF2.950917645450453
aF3.5454955108375628
aF0.9037793044201657
aF-0.3502865106119621
aF1.3290600112266546
aF-0.28359837317208725
aF0.9399267116790507
aF0.2772360965258496
aF0.40414131395834424
aF1.2213824937102036
aF1.0348569511871333
aF0.9478507714057369
aF-0.044803418471085675
aa(lp96
F44.51721139084904
aF197.588942754513
aF-25.260882920360455
aF-97.96611594124748
aF3.01223854774657
aF2.1764068099204206
aF0.02749472594543743
aF0.1709384092057845
aF0.7792328644198125
aF0.6657431579118119
aF0.7250325390385133
aF-0.3482818347265759
aF-0.42748587837005303
aF0.1662500135794361
aF1.0710677184295936
aF0.22487667500149647
aF0.8508968354521087
aa(lp97
F43.82958088970838
aF194.95441436476577
aF-27.884763481964598
aF-91.98105114204598
aF3.205197865468616
aF2.804945019466968
aF-0.1420588809189277
aF0.8993527154435478
aF0.3582477623499962
aF0.5540293618317306
aF0.9147312411279948
aF0.525687047520038
aF-0.5689292661834419
aF-0.6816447052534748
aF-0.08539908247412382
aF1.2377015197638925
aF0.8201375608759649
aa(lp98
F202.19782642412417
aF410.89865544180043
aF-28.441961934497456
aF-133.90268533747061
aF15.192451115440758
aF14.18992763049736
aF2.3929685095416175
aF1.8840607572901589
aF2.2397385097688876
aF0.7903082349000944
aF2.180908786358975
aF1.7863231096736814
aF1.084061667151826
aF1.4941609918954102
aF0.9457029160486171
aF1.7192498061262598
aF1.9006730573409005
aa(lp99
F49.262505145432726
aF211.19875466185303
aF-31.144810599725364
aF-99.75924107392765
aF3.185636412917908
aF3.243914274025033
aF0.9835014252433082
aF0.3041934667035967
aF0.026601133478151566
aF-0.2971835869277549
aF0.010470474202740259
aF-0.1330817739636631
aF0.6492655110674602
aF0.6466390075688085
aF0.4761498599269309
aF-0.28115361567197167
aF0.007895837155496079
aa(lp100
F40.90855256100343
aF187.03754758818823
aF-24.6557367774371
aF-92.07294326689285
aF2.38414575502308
aF2.7111575814473188
aF-0.18296547795638815
aF0.7449502162220556
aF1.0587220453322974
aF0.8568509517197843
aF0.02328265521415869
aF-0.26223733408604405
aF0.08504330511503559
aF0.35893715086105593
aF0.5033554554189814
aF-0.4236076375925034
aF0.44764887087985517
aa(lp101
F55.82944078167792
aF228.06215645602293
aF-29.493112824802854
aF-107.98734795752756
aF4.379880836520217
aF4.095708570998918
aF-0.16164822966571404
aF-0.0901911894911209
aF-0.2526595436897546
aF1.3414507565604885
aF0.8557027399319965
aF-0.33176798395214907
aF-0.3285422891691711
aF0.98284916543657
aF0.33754529122170657
aF0.38737436888130733
aF1.0423851025308966
aa(lp102
F54.496348230761875
aF222.26685887918785
aF-31.663445817148496
aF-101.28759588686168
aF4.547913300908363
aF3.4502782593959007
aF0.8774171653184184
aF0.8089604644654123
aF0.25051308440336817
aF0.43687247806007906
aF1.2990200380554335
aF-0.3928711795520818
aF0.3578018291910121
aF0.024522718616821204
aF-0.22726327803551838
aF-0.41432367672937304
aF-0.05701328822016505
aaa(lp103
(lp104
F940.4728209853397
aF3059.30873928855
aF-366.44950928228405
aF-1313.6731519913974
aF68.25020787071375
aF64.40590510110512
aF7.436938037822936
aF8.413002405849813
aF7.741378866238753
aF7.402195276429434
aF7.004646000812973
aF6.8722334952921305
aF7.552368298982826
aF7.858776760942585
aF7.476805005892552
aF8.49680991993922
aF7.345831750993003
aa(lp105
F-294.6884117549859
aF-985.2866101297625
aF213.8766054794335
aF299.4978000470621
aF-22.39904096679172
aF-19.14804768745952
aF-2.333848024919585
aF-2.461220164125023
aF-1.9190582237041187
aF-2.0992589865659363
aF-2.6717775987075836
aF-2.816270067450634
aF-2.684189723381931
aF-2.6442569729126566
aF-1.6074978477862896
aF-1.5066492960728866
aF-3.0578431829022525
aa(lp106
F-559.6170180622529
aF-1809.508695531981
aF148.55385444329923
aF872.7500410534761
aF-41.47273270441953
aF-39.23285749802168
aF-4.810972747638542
aF-5.3490216439102545
aF-4.8793666579039705
aF-5.153281190383914
aF-5.3289000469148124
aF-4.8959370002203215
aF-3.5178759133904207
aF-5.079908321003914
aF-4.224451671406865
aF-4.439356326212592
aF-4.547340779735803
aa(lp107
F363.7601272430072
aF721.9092789475851
aF-37.62298493884778
aF-240.2045445393077
aF26.517255988759317
aF25.110009605784157
aF2.5948871865157903
aF2.7879136411694985
aF3.043034252946157
aF3.16738006519758
aF2.344234632613899
aF3.112389012425979
aF3.687866474498117
aF2.1525357719126625
aF2.814209898574853
aF2.0302127166294794
aF3.10666622679302
aa(lp108
F347.1583866255884
aF687.8643100291316
aF-38.41095230063345
aF-225.57683718215202
aF25.352469113706267
aF24.693322330048815
aF2.6854777088807813
aF3.193280359344055
aF3.277215679740596
aF2.2006664489798053
aF3.0305115699828473
aF1.793569789406852
aF2.533361375238762
aF2.3819044548698853
aF3.08308769740134
aF2.8075348450253936
aF3.703765589551154
aa(lp109
F108.95085509267997
aF220.56561183400697
aF-24.43029952114929
aF-56.23489423736237
aF8.598006370363276
aF7.805368441678791
aF1.3431646624864293
aF0.031374778330562035
aF1.3706973463091925
aF1.5281950981996595
aF1.0614890093488956
aF0.6397515797010406
aF0.014058446283513888
aF1.7709649291755176
aF1.5064380459892517
aF1.2680982101879934
aF0.4499802994098381
aa(lp110
F126.46204004819032
aF245.8052184873987
aF-4.295134253690644
aF-92.05171597889466
aF8.911334015684963
aF9.729935805901361
aF1.290064798560486
aF1.8006143109241861
aF0.12594250260877557
aF0.6213518217447164
aF1.6363458476584924
aF1.0626766276000255
aF0.5409069296165188
aF0.1774819957731382
aF0.6166701974949584
aF0.79676686481025
aF0.3260959211145912
aa(lp111
F61.102752535874934
aF193.55824067849207
aF-15.425274899195584
aF-90.97256603029118
aF5.364185249980696
aF4.205929180582221
aF0.5673705102209844
aF1.3944451302938927
aF0.19128771337221556
aF0.9942810488886428
aF1.2405518613457542
aF-0.46390463472569254
aF-0.2867941180240189
aF0.003316916740370595
aF0.11264267166094277
aF0.44694205238781287
aF0.2691327666642632
aa(lp112
F129.38672939520328
aF260.0292350776627
aF-18.290656050190385
aF-81.61814033478572
aF10.551923419296765
aF9.878464382918265
aF1.2752278361041267
aF0.7548205041124063
aF1.322719795704096
aF1.8429580033088173
aF0.7538839779350144
aF1.7046565214495037
aF1.1170910161793222
aF1.7040484235254838
aF0.5584086677178267
aF1.8900179296348776
aF1.4119335060546194
aa(lp113
F48.83113456290662
aF159.8701518107062
aF-19.341119371405252
aF-69.32201321359008
aF3.4116259638949598
aF2.997288706482579
aF0.21562646504500219
aF0.7411254152265249
aF0.7380952773545199
aF-0.3534974980584889
aF0.15963610735348976
aF-0.37956606617045624
aF0.4497391223125654
aF0.33382445823061685
aF1.0934725376658712
aF-0.1648393307133584
aF1.1043472748926462
aa(lp114
F103.97847349130942
aF197.9121629906477
aF-7.540765447772035
aF-64.62916251261575
aF6.756383904230766
aF7.5034707488021555
aF1.4302818395953045
aF1.1975935452884958
aF-0.08216472886257835
aF0.49474950488462865
aF0.9338342322132048
aF1.487521236402303
aF0.9111564057084276
aF1.4764575189385187
aF1.1680474762981707
aF1.1553039843596158
aF1.2925098988348422
aa(lp115
F138.4421872370481
aF275.08170155511823
aF-11.828740113683887
aF-93.98588449791887
aF10.10270681538781
aF9.540232319131174
aF1.9671333775120958
aF0.5830294810743554
aF1.2997143797464246
aF1.100350789302267
aF0.8745552295929302
aF1.39279464651139
aF1.2315786471011005
aF1.9378413948262079
aF0.38018650368796614
aF1.6770520057823304
aF1.5071285327862256
aa(lp116
F104.74584273897118
aF198.7607014235225
aF-3.2477118808142507
aF-73.32288932316357
aF8.380671378102958
aF8.224529589185167
aF1.542530470912132
aF0.5928156540140497
aF0.8679017143837461
aF0.11183172718499147
aF0.48544576177862514
aF1.1541717186281875
aF0.4134728628410042
aF0.06087441898159616
aF0.5766459981869354
aF1.1765222531770598
aF1.7411357916403416
aa(lp117
F61.26293477823172
aF196.21924950987895
aF-24.241115709329893
aF-83.07568824462898
aF5.111479751361074
aF4.834420563639466
aF-0.04435011766663168
aF1.4414371451525807
aF-0.016735751001088175
aF1.2323114763777483
aF0.9193156737289357
aF0.6703555955753567
aF0.8410790772987908
aF0.09714975471560235
aF0.9940691679764276
aF1.2279426332502095
aF-0.32341987619391405
aa(lp118
F111.43814095760743
aF224.46193928350542
aF-20.21473381856699
aF-64.17783813470506
aF8.823907537024253
aF7.349728545274853
aF0.9896894310562518
aF0.2587945773967635
aF1.029197615995553
aF1.694582381292012
aF0.2677600870812037
aF1.0580914769822154
aF1.7845986321732676
aF0.23361939043828225
aF0.14485068465867867
aF1.847155518556051
aF1.6070543358539509
aa(lp119
F132.56938029851892
aF267.23644601257604
aF-17.32641934722253
aF-83.56867869891988
aF8.913572878036344
aF8.878186668644963
aF0.576991813455762
aF0.8209215047573631
aF1.8982372938445606
aF1.133716268726764
aF0.32808053172222024
aF1.1150722344599782
aF1.0007526361444699
aF0.25989726173430794
aF1.3619342793520337
aF2.089638708413483
aF0.2538380859805392
aaa(lp120
(lp121
F915.7807935467246
aF2244.2187099051316
aF-198.73454334496856
aF-840.2011968686461
aF67.91822688539831
aF62.79481801832367
aF6.969095562942264
aF7.754352742952027
aF8.469812643948165
aF7.816414349900658
aF7.123196423625374
aF8.057190543292013
aF8.905363864103931
aF6.998377056957387
aF8.48352633716635
aF7.145001217228177
aF8.48744785948615
aa(lp122
F72.6149872604791
aF-173.88126661729822
aF214.50861477869825
aF-47.8329653927151
aF6.093601086979528
aF5.299003374427678
aF-0.1563269322712471
aF1.7486745399584795
aF1.6655292739694643
aF0.4368868891920884
aF0.7957245643392558
aF1.8103275592467822
aF1.4534871939653764
aF1.238801161089594
aF0.4428575938144764
aF0.02319014258474331
aF0.4492290505136478
aa(lp123
F36.98110411123965
aF-277.62315233889194
aF-42.92573156287568
aF355.2608279913958
aF2.384670461528046
aF2.443364886286963
aF0.8640522088664371
aF0.09085491316901627
aF-0.39675400740415995
aF0.5704062293006897
aF0.37679420877023123
aF1.3527785872807192
aF0.45119629509448833
aF0.5422449743916034
aF0.36555571898419814
aF0.6962499592891985
aF0.7357295668904253
aa(lp124
F11.167370935757408
aF-15.53293981384029
aF31.570292603659126
aF-8.068638861997043
aF1.7620530555773122
aF1.2638076288332503
aF0.2033458736556308
aF-0.8359261546327632
aF-0.1937631833396089
aF-0.31035863682761466
aF0.20703480058549106
aF0.2785691238889456
aF-0.49026417153677415
aF0.894451402087713
aF0.38100035380587294
aF0.917810355817207
aF0.6745918558919312
aa(lp125
F11.527705369182057
aF-18.79672279361005
aF26.447282552227556
aF1.6182638052109943
aF0.6202235524301835
aF1.3341201293843663
aF0.7869803890806893
aF0.315156237558225
aF0.3725154345840233
aF0.38015170310925317
aF0.5630006477992829
aF0.9022905942264646
aF0.3515821577891858
aF0.565184923688231
aF-0.1923036044866112
aF0.17526280305169747
aF0.3619971150721451
aa(lp126
F7.714469752939399
aF9.142338742021371
aF2.5480260090353326
aF-2.0952746971926803
aF0.033442433639203496
aF0.17428071975063594
aF0.30837469709997445
aF-0.8010639956662289
aF-0.7381330266220686
aF-0.08697254137594579
aF-0.7547097426518768
aF0.6577641207079833
aF0.43635227030168294
aF-0.7276960879551615
aF0.002630183668336776
aF0.28607887543966776
aF0.27300125122261826
aa(lp127
F9.047946055103198
aF-21.894312428060005
aF10.334312475699551
aF15.248976367175182
aF1.1656778280002402
aF1.448630556052648
aF-0.1994048508896707
aF-0.5152647050333279
aF-0.21034653601617948
aF0.10223373970400902
aF0.9915491094458346
aF-0.4757125438294791
aF0.8906914796390215
aF-0.695457396632096
aF-0.6808792736300945
aF-0.10033035970993898
aF1.0280536072499649
aa(lp128
F7.9315924430311755
aF13.584739996807384
aF11.289901270001522
aF-25.76475331795893
aF0.34330073711044
aF0.5067206489943982
aF0.12810299219197757
aF1.0613251839898836
aF-0.30651203823690326
aF1.0478083029871021
aF-0.16266982133512217
aF-0.7608762579926166
aF0.573877794068447
aF0.6713504644491994
aF-0.7042574892536078
aF-0.16668420306493326
aF-0.758197385851675
aa(lp129
F6.795010853516346
aF-5.598324499955249
aF-0.29628306080964145
aF12.913219854375603
aF-0.3760427520395594
aF1.058494250658407
aF1.145954369464471
aF0.7608834403537231
aF0.8072059468144364
aF-0.22165289304642616
aF0.17324212224035643
aF0.5993363821453266
aF-0.5705894965875303
aF-0.3246559842780678
aF0.18247341669048014
aF0.7409872631820272
aF-0.2856311432954502
aa(lp130
F5.6461312807833695
aF-14.86736250663786
aF15.418563199527433
aF1.4054478138074125
aF0.4322749696763863
aF-0.1949532453425112
aF0.011626373384573431
aF0.4897073484696981
aF-0.7575902721953692
aF0.0033333704625584572
aF0.10367912273031685
aF0.6420332325985777
aF0.8797172085664136
aF0.7107687059140085
aF0.3674820961817922
aF0.6254154932876781
aF0.20982847213637085
aa(lp131
F0.5272633279650738
aF15.806975078599349
aF-2.2870055969201224
aF-14.41148570065672
aF0.6162288960182772
aF-0.6868697308506936
aF0.8922263524569687
aF-0.6913862234861873
aF-0.09443145065238387
aF0.46557608338040923
aF0.9955980203312266
aF0.1277150489920672
aF-0.001717886758242201
aF0.19027595936734995
aF-0.39244555417397614
aF-0.3140978206552825
aF-0.8543124780826191
aa(lp132
F4.387701892920064
aF-12.829002200190104
aF-0.16985130753313912
aF16.34418373451216
aF0.9998737067886985
aF0.37662373391237636
aF-0.4050726993107773
aF-0.10817282962673737
aF-0.619225736229968
aF-0.2814958443244629
aF0.3406544939442253
aF0.7041947700775473
aF-0.5700943446497024
aF0.16401945452842748
aF0.7828564347165573
aF0.8966068794110602
aF-0.5469536972314224
aa(lp133
F4.20628854750192
aF0.8340960355619756
aF1.2908197926670624
aF7.221990798722293
aF0.7195499580206447
aF-0.03987197674846668
aF0.49991056514117505
aF0.5111042496338049
aF0.5282680613882635
aF0.3403314325360987
aF0.8755668853886254
aF0.19781000428151715
aF-0.4338334975631175
aF0.419646815932643
aF-0.7764013873418716
aF0.20111447840247237
aF0.5547701935967978
aa(lp134
F4.925141821760271
aF9.331783916279203
aF-16.349042511497405
aF22.212958992830995
aF0.5784655690498262
aF-0.6299617958936772
aF1.0474307456498197
aF-0.500326003482303
aF-0.3977846288803625
aF0.8066788215930109
aF-0.2212865483877569
aF-0.294733493925616
aF0.5713789999600073
aF-0.09507366892385974
aF-0.9222520433047003
aF-0.6083914591930969
aF-0.18176432074459115
aa(lp135
F7.589589273817791
aF11.74074031226732
aF-0.40491697611590366
aF-1.5003077840863737
aF0.36763848725803694
aF0.3033654945311123
aF-0.6661086771229303
aF0.17729803335246655
aF-0.710508040118409
aF0.1391987685327507
aF0.9142793557880543
aF-0.6468687891543938
aF0.6594385540904595
aF0.4412223250057469
aF-0.23232898950363035
aF0.7659885652977084
aF0.5519199807445446
aa(lp136
F-34.883518624776926
aF-101.61795399138225
aF55.95395435571298
aF-11.41773303790321
aF-3.445309078612272
aF-2.534285269292441
aF-1.1291320061159829
aF-1.2099480253119004
aF-0.5423416522165299
aF-0.474138628353755
aF-1.117471344196968
aF-0.8166829941330864
aF-0.7254953437382756
aF-0.06751615576850037
aF-0.18628397814823752
aF-0.748542989284287
aF-0.6272084423650426
aaa(lp137
(lp138
F3.469904114156576
aF520.8592349759294
aF-132.41131436184273
aF-246.73164552942433
aF0.2759689451436793
aF-0.059579089199589645
aF0.776063486100932
aF-0.7045830025904016
aF0.18819734738298055
aF0.3496097078747748
aF-0.2589688777217079
aF0.3410120359648682
aF-0.17020684947581022
aF0.7131628942433405
aF1.0581540719212021
aF0.9844005505081128
aF-0.6165925311271886
aa(lp139
F91.92241934204031
aF-175.3180649194874
aF281.02059869928956
aF-105.14017686832196
aF7.981242602850984
aF7.354866347173156
aF1.0686322838827034
aF1.6632798510572135
aF0.7570053332786514
aF0.7485565410202977
aF1.855684158245734
aF0.14043379807966727
aF0.597842590092192
aF1.0984025936678803
aF0.3023561263699511
aF0.8944849324725889
aF1.8299623177294528
aa(lp140
F34.99344276868143
aF-280.5609907752186
aF-89.55873163380119
aF451.42246774637164
aF1.970757948399702
aF2.100002657298017
aF0.5837419333104024
aF1.1851499767557272
aF-0.07828174016668904
aF1.2641777236999152
aF0.4869253231625364
aF-0.35595850459605693
aF1.0215666767129952
aF0.9704106583133869
aF1.5233076464503275
aF0.7776331511729784
aF0.13590102135048562
aa(lp141
F31.955250242373822
aF-28.16437077074273
aF16.788864006431172
aF-8.046712675437632
aF2.487132629717055
aF1.9777700908594495
aF-0.21779978234212405
aF1.2170241445177459
aF0.9402325150237602
aF0.48267562189080065
aF-0.035489491986899976
aF1.1436187370518036
aF0.9120874980685381
aF-0.536217741395031
aF0.8170195069824739
aF0.7100259025227946
aF-0.6341418821875342
aa(lp142
F25.39495291619269
aF-25.254516103503917
aF14.428531206494366
aF-1.635171633346918
aF2.8274649410991404
aF2.550693817662129
aF1.3414664594481585
aF1.1668340578587744
aF-0.21149864439124608
aF0.3560085871911174
aF-0.015739266171995926
aF1.3313463259884037
aF0.6912457717506585
aF-0.425746912498976
aF0.010256240374257146
aF1.0773914607927069
aF-0.03395813151331127
aa(lp143
F12.12834641245353
aF9.987347589621521
aF3.6841268413052797
aF-10.777474673481404
aF0.034764243077796
aF0.9422852896743662
aF-0.06671341938040862
aF1.05233451864387
aF0.6868981264968878
aF1.1118262327947825
aF0.20374470486191015
aF-0.31013370720486483
aF1.0745514578039304
aF0.20698149382641723
aF0.15951652735249805
aF-0.4585949787568908
aF0.2794782538594065
aa(lp144
F13.63333153879035
aF3.8343466832186244
aF0.9112712968653628
aF-1.6345268125192127
aF0.2439073279278042
aF1.5061635612415194
aF0.26395108382013455
aF-0.09909286613373537
aF1.09642553366446
aF1.0373649520439268
aF1.2128074583139126
aF1.1883287293592757
aF0.3582220390694591
aF-0.5205731651532213
aF-0.5906494990385741
aF0.42699738009420035
aF0.23988527480854113
aa(lp145
F10.129940258527558
aF0.6700439482348942
aF-1.2512573993151452
aF8.478917598047982
aF0.6272737817914682
aF0.410475550917036
aF1.1419585753132526
aF0.3578652348827507
aF0.6077834731018962
aF0.7050082145726573
aF0.3739627618533301
aF1.1045215732243383
aF-0.4937239730876224
aF0.6727884019765733
aF0.9526546052541917
aF0.3628095917997153
aF0.46988639951483024
aa(lp146
F9.709528628772569
aF-20.76004092867111
aF4.807621493637294
aF16.305103426642237
aF0.11065790895604219
aF1.4254985312863697
aF0.7188505725222814
aF0.9523311614524594
aF0.21762167130954543
aF0.8528766473053052
aF-0.49899287331877024
aF-0.7057808135544043
aF-0.9082690951894493
aF0.6375081757675799
aF0.374283215842375
aF-0.14259602034024788
aF0.2868390555444416
aa(lp147
F9.786240292253181
aF4.993339525181676
aF2.8203576698153836
aF-0.5001843903876526
aF0.8202150507338714
aF0.6400181877429183
aF-0.3809351948774015
aF0.36587216843952036
aF0.7336505441958402
aF0.400629738633719
aF0.6480858252815748
aF0.6415457454523282
aF0.29392081737089853
aF1.1432281278558545
aF0.12334023845506342
aF-0.2636908518613959
aF-0.5659279819763748
aa(lp148
F13.913652686296045
aF-2.508110100676019
aF8.04126454748183
aF-4.806327209844527
aF1.6846810719245109
aF0.3655088846816227
aF-0.08247907481128675
aF0.7584957222625386
aF0.7728975378430332
aF0.49383692829259485
aF-0.38807122953287954
aF0.14186215762372412
aF-0.4260603904301189
aF1.1633086791237786
aF-0.4828722899840108
aF0.591341974228291
aF-0.4115495911177696
aa(lp149
F10.695854795581932
aF5.8403149547484565
aF0.18667424209706657
aF1.5010355975922853
aF0.1509246519635857
aF-0.0632808757575565
aF0.6925924747225132
aF-0.4455431063118927
aF0.9761951319596079
aF0.6559765590755454
aF0.7094648303816712
aF-0.366253571409563
aF0.9442567701598575
aF0.5196664573246691
aF-0.4378670177097873
aF-0.04864338792342547
aF0.8053256393191675
aa(lp150
F11.649800475443918
aF1.26653836363548
aF3.5116488182950256
aF-2.0934905067782257
aF0.49557438298931433
aF1.3224121442608916
aF1.0947741754364892
aF0.631161816980585
aF0.8427135544601171
aF0.7473140814785476
aF-0.1855772103996187
aF0.68945291181456
aF0.8607608481258676
aF0.9957988542079926
aF-0.2967312022241898
aF0.035609728692945535
aF0.9730939099226026
aa(lp151
F10.405107823943439
aF12.25554128381689
aF-0.044476543459275694
aF-7.504595143717769
aF1.7310735024848565
aF1.7454021090568501
aF0.11171932714006165
aF-0.29983065633311295
aF-0.07092152372473924
aF0.43900991426630415
aF0.08751630046190928
aF0.5031272210244568
aF0.5520573664533328
aF-0.6599538863950501
aF0.9817947986342562
aF0.6902874468477528
aF-0.4079166347976797
aa(lp152
F4.984686128820763
aF5.111831259838658
aF-6.560822158423168
aF10.486496526775749
aF-0.5771441351533304
aF-0.38943079589758345
aF0.6478716771382844
aF0.7946775341011626
aF0.43510296776337437
aF-0.09774629897857183
aF-0.838533562607901
aF-0.6304481007418016
aF0.4542339844548992
aF-0.3678524617329879
aF0.5503533309376363
aF-0.6623027240256509
aF-0.26050211291447223
aa(lp153
F13.484897738129076
aF-16.5068688193265
aF14.0671751261163
aF6.2232384134377146
aF0.7421653382381951
aF1.1227876192402595
aF-0.16309814080049198
aF-0.5424949122250365
aF0.06462016681885761
aF0.9457457982524445
aF-0.6540617025715079
aF0.9685483477833725
aF0.43151394957235095
aF1.2002484806345124
aF1.0297729001876135
aF1.0606878479316408
aF0.7186324959158529
aaa(lp154
(lp155
F94.12564535251359
aF-392.79097048542485
aF117.75865343395675
aF154.6732956294408
aF8.818628311380364
aF8.06879202223742
aF0.4276574604808794
aF0.9462765245725165
aF0.7960767174462735
aF1.4628108414414889
aF0.33939887247019124
aF1.2625600511985944
aF0.36425513790228975
aF0.820050583080543
aF0.22663675873439873
aF0.28718280609095165
aF1.9583587052873814
aa(lp156
F30.010640839267072
aF102.40688676010645
aF-230.73251913352297
aF87.29920344997271
aF3.5372633383440157
aF2.6340510498568377
aF0.34945287949224346
aF1.0902753457336765
aF0.8493190265214873
aF0.1964532375182603
aF0.07106579739699159
aF0.3772760059285502
aF0.3518354603379259
aF0.40699163831915564
aF0.8533721062616236
aF0.4508100541150494
aF-0.9858226460140785
aa(lp157
F73.94354946894101
aF144.224349007954
aF99.01297165469342
aF-339.1383172244297
aF7.218185820284858
aF5.993986253636895
aF1.5431335506941712
aF1.2261489565968797
aF-0.0464016523380412
aF0.08481374938283093
aF0.570897050607536
aF1.4584111631541339
aF0.4134691385222477
aF1.1052199548506392
aF1.4261067606639224
aF-0.14277269746387394
aF0.35092115824111403
aa(lp158
F-0.4379591827345377
aF-0.89531263071788
aF0.7722285923997685
aF0.8845913661370881
aF-1.9429753849697655
aF-0.21298649587899188
aF0.39421568760806663
aF-1.0758466502966983
aF-0.4944709096483152
aF-0.2814339039058974
aF-0.298137107636779
aF-0.8865862047984
aF-0.11969224274484987
aF-1.0007644908676137
aF-0.21131047219023827
aF0.3403562916144556
aF-0.4231535689598645
aa(lp159
F-2.088521660585843
aF1.7404340464697499
aF-0.7339964155806532
aF-1.0382176876984808
aF0.24161151910611406
aF-1.872840774660222
aF-0.36774075312133386
aF-0.1772009484266814
aF-0.5721384994585519
aF-0.6054712745648334
aF0.5396153681762073
aF0.4133535804168317
aF0.49617092733271057
aF-0.721761202169829
aF-0.8111873843779286
aF-0.6431220665698928
aF-0.5738700536649303
aa(lp160
F-32.54583386004914
aF-9.639976072311727
aF-7.357174841941532
aF-8.041358507998146
aF-2.157438778538978
aF-3.216924037581488
aF-1.4281359393683801
aF-1.6623797692700246
aF-0.986533037642784
aF-0.8553950991143504
aF-0.5799526102316258
aF-0.13036664960134026
aF-1.5808079082959159
aF-1.7046566634751643
aF0.1029643777151312
aF-0.9656042289881503
aF-0.503564433961705
aa(lp161
F-33.23448745927389
aF-9.694520687855748
aF-7.657678490466027
aF-8.294084410481904
aF-1.9643160337079821
aF-1.4832626027244256
aF-0.9453153318101176
aF-1.5931745409741955
aF-0.9418351240701105
aF-1.479202075285174
aF-0.7478220934379878
aF-1.566823365684847
aF-1.110503600528092
aF-0.40760487210014373
aF-1.138136287376254
aF0.02099631196577401
aF-0.9506872239231536
aa(lp162
F-32.48002004768204
aF-8.741079260295159
aF-7.559597173201865
aF-8.58491420018377
aF-2.5045768551779553
aF-2.812850781986676
aF-0.314013578017819
aF-1.0795452360367037
aF-0.9100694233893477
aF0.11964164933882616
aF-1.2318235591242268
aF-0.9204577422717833
aF-1.621937862113008
aF-1.2853435689506276
aF-0.624920229104948
aF-0.8921509976425408
aF-1.7335759454924475
aa(lp163
F-31.601308791780923
aF-9.830286530268504
aF-8.921057742773378
aF-9.820449642885473
aF-1.824528585752808
aF-2.7784011144365537
aF-1.6789133893900248
aF-0.8020748360815301
aF-1.267614167886022
aF0.21274955536350007
aF-1.7914030129767646
aF-0.7247159576514368
aF0.17479084803795264
aF-0.34077243423654346
aF-0.09668760488972063
aF-0.9157373735505449
aF-1.1305815498318017
aa(lp164
F-32.55848657947358
aF-8.967369717826703
aF-8.584664037802973
aF-9.682236691232752
aF-3.061868330338208
aF-2.664741652729788
aF-0.5055576879616018
aF0.17599725010593947
aF-1.867445084825327
aF-1.1522445294285468
aF-0.5857117571741061
aF-1.0002945170197144
aF-1.3646688968149403
aF-0.05314590096870721
aF-0.8668776545523852
aF0.10609124217045865
aF-0.5763100740299929
aa(lp165
F-32.35876266787584
aF-9.456183998061002
aF-7.460727774385387
aF-8.620368259275896
aF-2.156744985341451
aF-1.5624798005799811
aF-0.16265755706703425
aF-1.5981464763020903
aF-1.5638384266880825
aF-0.40838258866117194
aF-0.44934085331745005
aF-1.2610055813328978
aF-1.6592908412412335
aF-1.148165043522003
aF-1.4102296468925668
aF-0.44175938011567445
aF-1.4388760301995986
aa(lp166
F-33.93148830467509
aF-9.263255774185733
aF-7.66780377636026
aF-9.665960087466129
aF-2.00796154372616
aF-1.867562856956112
aF-1.5719283816978435
aF0.10336494376947425
aF-0.9524932366883923
aF0.20952731039073774
aF-1.0244513049942887
aF0.13191307981681336
aF-1.7630455474370248
aF-0.3009339290517908
aF-1.8315359426528548
aF-0.1945637022108286
aF-1.4080047034184235
aa(lp167
F-32.9947966329346
aF-10.709138616016213
aF-7.510052395938649
aF-10.115526343692558
aF-3.615740640926785
aF-2.016252545441489
aF-0.3753238035930597
aF-1.67095905382385
aF-0.045065779169639296
aF0.06378360737938235
aF-0.9744082816644158
aF0.03917267797487739
aF0.03272544752892652
aF-1.3686321299606816
aF-0.2086094227091967
aF-1.1839840101913768
aF-0.5047820044530172
aa(lp168
F-32.467307716156625
aF-10.025228138833658
aF-8.695634509087439
aF-8.215577993321581
aF-2.193920348039832
aF-2.3879642465088535
aF-0.7976024104528832
aF-0.8103722206364479
aF-1.1291781694794392
aF-0.6116566202368191
aF-0.2528098275636448
aF-0.6279883766057469
aF-1.3261539838281737
aF-0.5744202813034461
aF-1.8578562459395156
aF-0.5253340426124491
aF-0.6690826604233345
aa(lp169
F-32.28719013077983
aF-10.2394078911379
aF-7.394380244930758
aF-8.364009988729508
aF-1.761052604778128
aF-3.22034416699451
aF-0.2533212751468612
aF-1.1908353489637866
aF-1.6279450806686624
aF-0.7202404008680506
aF-1.301133180092292
aF-1.5389328388812984
aF0.11984151239209075
aF-1.6084102992749685
aF-1.0312334812822417
aF-0.05424031640906504
aF-0.6665263520263475
aa(lp170
F-32.595443056810275
aF-8.79216380671715
aF-9.242518695449899
aF-9.203279372807552
aF-2.814621350733582
aF-2.0447023408848586
aF-1.0592840165481172
aF-0.2878124737184547
aF-0.2706077571561001
aF-1.1537287755548666
aF-1.3765055115963882
aF-1.1778830916937137
aF-0.4479536019709516
aF-0.6243988100402843
aF-0.2619624587641758
aF-1.2680429307417729
aF-0.7142098969785289
aaa.