(lp0
(lp1
(lp2
I0
aI0
aI0
aI0
aI0
aI0
aI0
aI0
aI0
aI0
aI0
aI0
aI0
aI0
aI0
aI0
aI0
aa(lp3
I0
aI0
aI0
aI0
aI0
aI0
aI0
aI0
aI0
aI0
aI0
aI0
aI0
aI0
aI0
aI0
aI0
aa(lp4
I0
aI0
aI0
aI0
aI0
aI0
aI0
aI0
aI0
aI0
aI0
aI0
aI0
aI0
aI0
aI0
aI0
aa(lp5
I0
aI0
aI0
aI0
aI0
aI0
aI0
aI0
aI0
aI0
aI0
aI0
aI0
aI0
aI0
aI0
aI0
aa(lp6
I0
aI0
aI0
aI0
aI0
aI0
aI0
aI0
aI0
aI0
aI0
aI0
aI0
aI0
aI0
aI0
aI0
aa(lp7
I0
aI0
aI0
aI0
aI0
aI0
aI0
aI0
aI0
aI0
aI0
aI0
aI0
aI0
aI0
aI0
aI0
aa(lp8
I0
aI0
aI0
aI0
aI0
aI0
aI0
aI0
aI0
aI0
aI0
aI0
aI0
aI0
aI0
aI0
aI0
aa(lp9
I0
aI0
aI0
aI0
aI0
aI0
aI0
aI0
aI0
aI0
aI0
aI0
aI0
aI0
aI0
aI0
aI0
aa(lp10
I0
aI0
aI0
aI0
aI0
aI0
aI0
aI0
aI0
aI0
aI0
aI0
aI0
aI0
aI0
aI0
aI0
aa(lp11
I0
aI0
aI0
aI0
aI0
aI0
aI0
aI0
aI0
aI0
aI0
aI0
aI0
aI0
aI0
aI0
aI0
aa(lp12
I0
aI0
aI0
aI0
aI0
aI0
aI0
aI0
aI0
aI0
aI0
aI0
aI0
aI0
aI0
aI0
aI0
aa(lp13
I0
aI0
aI0
aI0
aI0
aI0
aI0
aI0
aI0
aI0
aI0
aI0
aI0
aI0
aI0
aI0
aI0
aa(lp14
I0
aI0
aI0
aI0
aI0
aI0
aI0
aI0
aI0
aI0
aI0
aI0
aI0
aI0
aI0
aI0
aI0
aa(lp15
I0
aI0
aI0
aI0
aI0
aI0
aI0
aI0
aI0
aI0
aI0
aI0
aI0
aI0
aI0
aI0
aI0
aa(lp16
I0
aI0
aI0
aI0
aI0
aI0
aI0
aI0
aI0
aI0
aI0
aI0
aI0
aI0
aI0
aI0
aI0
aa(lp17
I0
aI0
aI0
aI0
aI0
aI0
aI0
aI0
aI0
aI0
aI0
aI0
aI0
aI0
aI0
aI0
aI0
aaa(lp18
(lp19
F2.185708770957928
aF1.6950268541599736
aF1.5074817698331602
aF1.2880866026251685
aF1.1084613648104702
aF-0.4818619389104164
aF0.13544283910046007
aF0.5247444724170506
aF0.3048006609298318
aF0.2927146580237721
aF-0.04937037034797679
aF0.38059268463458046
aF-0.13757136287190022
aF0.3077674197674413
aF0.9403619672776312
aF-0.24275710063558945
aF-0.7582097082714098
aa(lp20
F-0.10256141000993313
aF0.7044707646019525
aF0.5562901218544799
aF-0.3980961876726602
aF-0.8048534068546376
aF0.4581322363483198
aF0.9838434013375434
aF-0.4956653257468037
aF-0.7798187512340157
aF-0.37569585116337756
aF-0.8758143893290824
aF-0.7600882957253129
aF-0.040785077164923904
aF0.5745785130642973
aF-0.522074686964504
aF0.5932824572497607
aF0.5677450482102365
aa(lp21
F3.2913031708713913
aF0.7025151793939272
aF1.3609847516205764
aF0.30251156536602225
aF-0.6431346673173047
aF-0.2970082123346416
aF1.1893845801358784
aF0.0659925634292001
aF-0.3280566881773078
aF-0.5109735333083525
aF1.1411379549715959
aF-0.6695684115757163
aF0.45216753610007165
aF-0.47749877701260907
aF-0.45660407841568257
aF1.2056964764696876
aF0.07269499896998215
aa(lp22
F-1.8527214193604655
aF-0.22770365962596248
aF-0.16629624951869412
aF-0.613387519976179
aF0.5704085892519559
aF-0.15154510126005993
aF-0.3635572366764278
aF0.8191173275601472
aF0.8095723073826555
aF0.23766211017544683
aF-1.0137892992591528
aF-0.13656460123278405
aF-0.8540055368142215
aF-0.3784256135095553
aF0.2099341538580453
aF-0.9114116669050812
aF-0.37797093512100577
aa(lp23
F2.40067738473766
aF1.6417249446981699
aF1.2338781708021982
aF0.032955339905932565
aF1.016411313390688
aF-0.11135264097059584
aF-0.7379977327346282
aF-0.5942592043687198
aF-0.08698460607785652
aF0.5588846126392373
aF-0.32718527297982714
aF0.4312780631752348
aF-0.46935372055238667
aF0.648135469457315
aF-0.18001270833213787
aF0.4473441045640885
aF-0.5082444635535746
aa(lp24
F1.6308839471305931
aF0.6871908811600732
aF0.680966066995466
aF1.37208107936914
aF-0.37740778439871375
aF0.5608074332431787
aF-0.3241980855708814
aF-0.16542777683084364
aF0.672937922570761
aF-0.45361345010184795
aF-0.4930455959375674
aF0.9613423765020537
aF0.9706077600075556
aF-0.6458691583169838
aF-0.3877210990172436
aF0.7459682504518321
aF0.04446834893732818
aa(lp25
F2.458205568539232
aF0.5204787342630071
aF0.8696971873892553
aF-0.11783451978148007
aF1.1536627737357095
aF-0.7009279848010013
aF-0.39415956518105466
aF-0.2732870616396116
aF0.6603007168167919
aF0.18686247210693158
aF-0.7865213252069789
aF-0.7694059784733729
aF0.4525033290147469
aF0.7519131251403021
aF1.0207173220093377
aF-0.3688548366756319
aF0.8424376225798321
aa(lp26
F1.59536448051073
aF1.4163601534806358
aF0.2632003482363434
aF-0.5775365196154723
aF0.9517817272988108
aF0.4561370832364883
aF-0.22167330603163435
aF-0.2878828751800142
aF0.24334041178408966
aF0.3948835053445319
aF-0.15085008205699293
aF0.14957296285669375
aF0.2226294764083174
aF0.9445229015359443
aF-0.3924529286679017
aF-0.5386247727888709
aF0.39329458401513334
aa(lp27
F2.6301099242746906
aF1.3149119476507027
aF0.9073772706528448
aF0.4673675454917807
aF-0.6093321905849057
aF-0.34478685427242967
aF-0.14868989425299844
aF0.10670718652763524
aF-0.6478777964544187
aF0.7950667054727208
aF-0.1566090117589717
aF0.29754111515718656
aF0.8349998333629475
aF-0.10315899899637769
aF0.4539215366352902
aF0.9288474803272961
aF0.8074094404035785
aa(lp28
F1.942102866051647
aF0.14243096767615948
aF0.28733430812330063
aF0.3476645509160515
aF0.6192103225363832
aF-0.55403322232587
aF-0.24461234782022825
aF-0.7130773749381212
aF0.927475389063871
aF0.7657429655108213
aF0.2636958349346014
aF-0.783243392287696
aF0.196150525426264
aF-0.6228467275576185
aF0.28854356840495415
aF0.3103160918930241
aF0.35465548141638864
aa(lp29
F2.1441456540879744
aF0.6220499625762635
aF0.4520057461222739
aF0.4106350977911971
aF1.100017391408589
aF0.5909474917046724
aF-0.3635230925181569
aF0.533325245908419
aF-0.34838071043223556
aF0.01078230808402559
aF0.5064016516422062
aF-0.44105316233462494
aF0.34393998938472653
aF-0.6692896964182066
aF-0.6312048099657723
aF1.0549558549764386
aF0.1301622182634286
aa(lp30
F2.935053644388798
aF0.5334242325411588
aF0.7961478301316378
aF1.191907862663186
aF0.5577987683140975
aF-0.15817478652646222
aF-0.15967649871472767
aF1.2053802491862533
aF0.47862133886225805
aF0.0686246508487538
aF0.9767805527116623
aF0.6222449837028449
aF0.009321773067826196
aF-0.44275401694333616
aF-0.1852930934705539
aF0.43949892715633243
aF0.12733303897060136
aa(lp31
F0.40973710229064575
aF0.023435809865987086
aF0.2071044809592622
aF-0.38019511934204414
aF0.9703783372069988
aF-0.17642992702895038
aF0.9999584625950959
aF0.9129904714725733
aF-0.3581785302873824
aF-0.3163827910953065
aF0.7171899304635949
aF0.6080492380914868
aF-0.04300249122427314
aF-0.2083057947814698
aF-0.6140558640680351
aF0.4263800635340725
aF-0.7908339157009365
aa(lp32
F2.1352748194814297
aF0.4762871030645664
aF0.6340432052954943
aF-0.08513364599480092
aF0.797010983519327
aF0.21309024542435612
aF0.7633668147560003
aF1.0326285509105677
aF-0.25193680649404765
aF0.9315832101630763
aF-0.7009763111360691
aF-0.15312259494193967
aF1.1327469507215209
aF0.5741147743469222
aF0.036074586079054526
aF0.7709545634746319
aF-0.032922909417991156
aa(lp33
F-0.26477960675877577
aF0.19517020134649918
aF-1.1108027841019996
aF-1.0962619547518773
aF-0.8186286041496281
aF0.1556539546045463
aF-0.3103720823842514
aF-0.77798247478572
aF-0.5475663395676659
aF0.6309012102337496
aF-0.35060233663974816
aF-0.6002327484085078
aF-0.8489941578134671
aF0.3307251791973079
aF-0.9423847933995771
aF-0.0919329493894474
aF0.5067133778313323
aa(lp34
F2.4128153830392827
aF1.780371050974273
aF0.6844608088648406
aF1.389055567309739
aF-0.30599783838326433
aF1.0441154854009256
aF0.9695594037298827
aF-0.3211665776955194
aF-0.6864907671766163
aF-0.1728298608448748
aF-0.4066106634544812
aF-0.5342809805457729
aF-0.014110782057766148
aF0.540617544747699
aF-0.5383391045267777
aF0.0176484118265561
aF0.4534166138672323
aaa(lp35
(lp36
F4.187637916046953
aF1.6239561928894173
aF0.526005758268041
aF0.8725023288711148
aF0.012340697902866035
aF1.1548587369093497
aF0.3702302448602215
aF-0.5141764449748593
aF0.7518574537686153
aF0.8757078611569075
aF0.22308935666374818
aF1.1613374039123403
aF1.1503290445992114
aF0.9449445984219017
aF0.7056724563452527
aF-0.6314571463613968
aF0.981371116483498
aa(lp37
F5.4180952515713
aF1.2807779988774486
aF1.0303438407850651
aF0.8897398369707813
aF-0.3484767728091998
aF0.8095468064748054
aF0.9159533488972902
aF1.420497717646341
aF0.5760470312083283
aF1.2112512998329275
aF-0.5069877777716522
aF-0.2978520323556174
aF1.0144815836452854
aF-0.05611309937921572
aF0.7444734008736632
aF0.4359118591833615
aF0.8739731833953743
aa(lp38
F3.866064178050831
aF1.076399499609356
aF0.18420169099636094
aF1.8125205551039032
aF-0.1215288224425588
aF0.34211246407022694
aF-0.2999214731125093
aF0.970851659353584
aF-0.38334919862613187
aF-0.45061347238614646
aF0.654779736569247
aF0.6515082406211191
aF0.8235953709633748
aF-0.38926120067452735
aF1.0099938122302718
aF-0.2020679745506154
aF0.1599371780012436
aa(lp39
F3.6853219961136228
aF1.9697097695132948
aF0.19106266221282311
aF1.1210923198848184
aF-0.11090659211055136
aF0.4219278793119276
aF0.09542353103559163
aF0.2207049925203658
aF1.0398011533025548
aF1.0811198240039983
aF0.8474551638768659
aF0.9097502189085358
aF0.7147478985043401
aF0.732195100709416
aF0.24782938176151545
aF0.699703176152119
aF-0.5024181141262978
aa(lp40
F4.475763520633083
aF0.44479238741248134
aF0.2814025873026552
aF0.3433385061921478
aF0.9663426089871556
aF0.48909710026028425
aF0.3560051158218098
aF-0.2200207709157502
aF-0.02363325887211961
aF-0.48373844505238434
aF1.0037789513540736
aF0.43233296358610424
aF1.1935324052770493
aF-0.6661335358002484
aF-0.4097705735575365
aF0.15564910200473958
aF0.9642500268757638
aa(lp41
F2.2450548474034613
aF-0.08956071646289943
aF-0.47058407970216787
aF0.7423347673397
aF-0.7178940405600938
aF0.8119900491959415
aF0.878524431962416
aF-0.29849292441310715
aF0.8844704638398565
aF-0.1645387041816367
aF-0.6031880163859106
aF-0.7353094144064499
aF-0.6384297784739816
aF0.17570908715898287
aF-0.4831792070730516
aF-0.10368932836675114
aF0.3777951615894381
aa(lp42
F3.452749227150923
aF1.1411268966315928
aF-0.0809231417907226
aF1.4133147640979566
aF0.06671050196021103
aF0.982462719798274
aF0.1460119268217229
aF-0.13463333832675076
aF-0.10656298547794535
aF1.1534267819643635
aF-0.635942680409167
aF0.020703032525798856
aF1.2291404790784417
aF0.2840725509403574
aF1.0513406782937933
aF-0.2519055302133812
aF0.5363185868966572
aa(lp43
F1.676412550486085
aF1.444844887882413
aF0.8903731033738922
aF0.4259476540387284
aF0.18302991359053417
aF0.9607195764580867
aF0.19595502009042884
aF0.6644566164973437
aF0.06502467390104337
aF-0.05373802302219663
aF0.33865892854866886
aF0.04524705945113213
aF0.49273180658697574
aF0.49856098851220093
aF-0.6486240384838856
aF0.7876453632291097
aF0.6961556380914345
aa(lp44
F1.4227439867897684
aF-0.09879041853315312
aF-0.3682044718679199
aF1.4568620001197528
aF-0.6920856111839568
aF0.03361170036772021
aF-0.9445491838006611
aF0.20287974037214287
aF0.6751668658536898
aF1.0163562676508848
aF0.5852732987844027
aF0.893994927061673
aF-0.24913537397985305
aF0.593587434906207
aF0.8951552232644251
aF-0.8131042221753257
aF0.3826186174960374
aa(lp45
F1.2002255840599598
aF0.5271189334738092
aF1.0974865467903845
aF0.9397195090904836
aF-0.018070966000188007
aF0.013825883469962379
aF0.9296713989435591
aF0.13118981815530115
aF1.0964226669073012
aF-0.07991561506777305
aF0.26739413387972805
aF-0.03721001994924012
aF1.1204807747648224
aF-0.1320883049752374
aF0.5019948289943521
aF0.11191435772962514
aF0.031882454756804415
aa(lp46
F0.5507675394709177
aF0.6163837376405764
aF0.8414943208029309
aF0.4335456442859461
aF-0.6805131825378572
aF-0.4740974748354535
aF0.9568538219079245
aF-0.5886032116615615
aF0.7800950709463327
aF-0.2847767784195292
aF1.0579358685928555
aF0.9609875556552618
aF-0.6371248269424603
aF0.5596307219675823
aF-0.6766766411021305
aF-0.559529939238658
aF1.0316661595099799
aa(lp47
F3.7208635749306134
aF1.1289238032052165
aF-0.2953792304347921
aF0.1849917781378721
aF0.8995666400514568
aF-0.7373744789400619
aF0.5286585491145167
aF0.35168350635653867
aF-0.008172922624679706
aF-0.262795736703139
aF0.4044313765477318
aF0.31224419601075526
aF0.575756451250235
aF-0.362035619109979
aF-0.12479083802001516
aF-0.24000377134326004
aF-0.24993271022635133
aa(lp48
F3.794145033608996
aF0.743097954813245
aF0.4656079838158884
aF0.7026468565234021
aF-0.0839509686159224
aF-0.017149232606787416
aF0.9672409269991198
aF-0.14463725917998646
aF-0.06703836542492454
aF0.08081184893903347
aF-0.5675188458089986
aF-0.18227833512901467
aF-0.36482346612379996
aF1.1121752258144144
aF0.49194674267011523
aF0.3631700963843567
aF1.021705665046071
aa(lp49
F2.1345727909765353
aF-0.3199877138725261
aF1.180939664744203
aF-0.04285995941445257
aF-0.0728366600457998
aF-0.7392647436778994
aF-0.8855586072671925
aF0.5391883010032288
aF-0.43043655491175337
aF0.12111336929346903
aF0.8110330220565438
aF0.09942353311251055
aF0.8904719507965556
aF-0.8747616183584161
aF0.15159988437247943
aF0.8199096252827249
aF-0.5672000731949617
aa(lp50
F3.4414875579968496
aF1.9919997925954536
aF1.2376479031704528
aF1.6778203087693329
aF-0.17130474665569892
aF0.8472494793089098
aF1.0336019292196086
aF1.3868597599691965
aF0.13415320168317899
aF0.9689307853807149
aF0.5470789625226095
aF0.05146185380142172
aF-0.1681342602179293
aF-0.47621057813639806
aF1.2140246649215913
aF-0.17822571870355702
aF1.0062353198599412
aa(lp51
F2.013816699992152
aF1.5770115360755652
aF1.3484588250491987
aF-0.09225525141009755
aF0.4015262888102001
aF-0.7426385912642308
aF-0.06039099603680881
aF1.0503583736290427
aF-0.1952336217523072
aF0.6640841418505457
aF0.8137571856816259
aF0.6557283174634425
aF0.211369458016073
aF0.15833814400413795
aF0.8682155780627602
aF-0.5795384835529348
aF-0.3383050398991091
aaa(lp52
(lp53
F1.3368118169473835
aF-0.4973722543222642
aF1.012112169199056
aF-0.17741008941131697
aF0.8798427207550792
aF-0.24604299466292448
aF-0.9406932887055224
aF0.861756277560896
aF-0.19112400018263284
aF0.845388953216054
aF-0.26222658795013615
aF0.26718747346897914
aF-0.7452655670649436
aF-0.2150835791501282
aF-0.5310372531594886
aF-0.749080531695263
aF-0.4559469208297942
aa(lp54
F1.3318127904895658
aF0.3755880652560552
aF0.24555958470177366
aF-0.39630226159505355
aF0.26078481168262174
aF-1.1073655247739407
aF-1.1162764101202227
aF-0.6478329448230994
aF0.7080180575544586
aF0.8408403525997593
aF0.9103005445662821
aF-0.7532243315363841
aF0.4841892626668269
aF-1.0361898766319395
aF-0.44458195296071656
aF-0.928076915139791
aF0.8192285591000404
aa(lp55
F-0.5372692983151584
aF0.591383396832977
aF0.6173028038223807
aF0.5660277917914024
aF0.7530484618847239
aF0.5087197339996294
aF-0.6858548814371618
aF0.36681364440830316
aF-0.5330013637580522
aF-0.6197055844881272
aF-0.16984153004510558
aF-0.713491077823604
aF-0.9772669142704234
aF0.5355966538466608
aF-0.5317187974035722
aF-0.7882409574039003
aF-0.6273447908228149
aa(lp56
F-4.52828283733838
aF-1.081218079376629
aF-1.412283731045698
aF-1.0191667120467398
aF0.20341160920019247
aF-0.17631565735007076
aF0.030494932204865894
aF-0.39267461549841176
aF-0.06787264079835106
aF-0.4504108302599366
aF-0.3288623842956834
aF-0.29031749544760843
aF-1.0891649234054586
aF-0.5024922502765419
aF0.32304006910991645
aF-0.7490005805359601
aF-0.5317765374790394
aa(lp57
F-2.3801463376705727
aF-0.6586934553258034
aF-1.5347257731440658
aF-0.8009136564279562
aF-0.17340259757363002
aF-0.741935245467982
aF0.05876451070743188
aF-0.2647214894565704
aF-0.5734783800460346
aF-1.2796744870888084
aF-0.3369518522260916
aF-0.4426655474898067
aF-0.6867625713365166
aF0.12302984485674853
aF-0.5517703062227748
aF-0.7214236292323178
aF0.5114382781558768
aa(lp58
F-6.120501327271477
aF-2.569248152524008
aF-1.2688436414811006
aF-0.6134993652801493
aF-0.7117719194065223
aF-1.2520495599195614
aF-1.6126275338090306
aF-1.7503352808232169
aF-0.4696971272795374
aF0.011517561280501257
aF0.14223240240819945
aF-0.6472269969676866
aF0.42729459116959023
aF-0.19395647890801773
aF-0.18614978479334032
aF-0.23064505234005667
aF-1.0093395281403887
aa(lp59
F-7.197273584008863
aF-1.6416611128201957
aF-1.5651225546762557
aF-1.5360587165918524
aF-1.6023352783131906
aF-0.3965320857172699
aF-1.2685588780647306
aF-0.7020839466108948
aF-0.4207840164927988
aF0.0626487946696275
aF-0.8500421604282961
aF-0.7631329550537558
aF0.20827907750208366
aF-0.10254060507211159
aF-0.3510760664338567
aF-0.8895047475039373
aF0.03956331392085495
aa(lp60
F-6.307120802045025
aF-1.334673251514634
aF-0.6777350246641096
aF-2.0182602534903293
aF-1.0874060588376733
aF-0.8883093627380098
aF0.1884106548599517
aF-0.8386924348472181
aF0.31446917957821297
aF-1.042023461340102
aF-0.567530267887774
aF-0.7894050845572534
aF-1.3086007182272579
aF0.16753351150243104
aF0.48900790514744025
aF-1.0567691486194357
aF-1.0325730503813721
aa(lp61
F-4.68963975165742
aF-1.9229727627701791
aF-0.48099986354536167
aF-1.1278903920846721
aF-1.048476452477659
aF0.022418515624509645
aF-1.0662937667378543
aF-0.5451439826400882
aF-1.2009522621360134
aF0.3524979824742517
aF-1.4235649458096788
aF-0.5294695176842106
aF-0.501788258833229
aF0.18446093728039806
aF-1.0930707385194196
aF-1.1125026032147236
aF-0.863035716287092
aa(lp62
F-5.146383782221074
aF-2.7468635207052894
aF-2.0162222058124293
aF-0.4965948143035922
aF-1.2184435745638265
aF-1.4442555684756817
aF-0.4034114774269109
aF0.176432925508813
aF-0.14732620303549807
aF0.31945270583261054
aF-0.013326941666871173
aF0.34153799348361763
aF-0.1896739069175284
aF-0.7858419690420086
aF-1.3043284180356234
aF-1.2202703291217514
aF-1.1792526226553002
aa(lp63
F-5.904992819743186
aF-2.8036558744784137
aF-2.035533124266084
aF-0.6950167851677005
aF-1.2168090803156202
aF-0.3269534713931034
aF-0.244720061009036
aF-0.765210033300988
aF-0.11161332288444338
aF-0.8420676263645643
aF-0.28563320336863424
aF0.41582598355911826
aF-0.6468767172757199
aF-0.9409132167866051
aF0.29618338681429657
aF-1.1931647969328472
aF0.49214210499671923
aa(lp64
F-5.143088148499661
aF-2.62962029893528
aF-1.7219741582183292
aF-0.40877985764272434
aF-1.3404406142671013
aF-0.2438992563343199
aF0.3727730064622744
aF-0.8056848267649191
aF-0.5462615284438856
aF-1.2992568878798927
aF-0.2869733640302172
aF0.08423890617791811
aF-0.3234013205937827
aF-1.2129236312507239
aF0.3315499614628014
aF-0.2564023900643436
aF-0.11127552397696173
aa(lp65
F-5.043260569238673
aF-2.0003067757366573
aF-2.2623516155576597
aF-1.6065126502522697
aF-0.672309219827861
aF0.07929274199666404
aF-0.11149470839045474
aF-0.7193390239322371
aF0.2963451420865875
aF-1.206593344863225
aF-0.5168404785470266
aF-0.10183672780833615
aF-0.4567304755678865
aF-1.0133931867367039
aF-1.1189313519509823
aF-0.4965889691406491
aF-0.234950874459636
aa(lp66
F-3.464860941633268
aF-1.8867169020462087
aF-2.0813774874986803
aF-1.5882032271689839
aF-0.39437839952114506
aF-0.745450355798868
aF0.5086618973701386
aF-0.024461637572752465
aF-1.3007217578455803
aF-0.8606866955495364
aF0.3305411646160958
aF0.14958705952520895
aF-0.7046806835647383
aF-1.0175141481997012
aF0.4312268521627284
aF-1.2816682249068272
aF-0.7261342235993651
aa(lp67
F-5.893774613773024
aF-1.1142032776760438
aF-1.716666902291051
aF-2.3085730420257233
aF-1.429052100928886
aF-0.02519536934930996
aF-0.14372089021911422
aF-1.7286093671754508
aF-0.31785768687659777
aF0.40036605109765994
aF-0.721271573454336
aF-0.658877140342089
aF-0.20186184735656235
aF-0.8803262213263561
aF-0.3892313984176157
aF0.13419493483646106
aF-0.6066738603338915
aa(lp68
F-4.8324821480582925
aF-1.730797648733167
aF-0.5220109170262175
aF-1.5804932370938265
aF-0.4056814860593429
aF-1.48998097436151
aF0.08405871533076051
aF0.12581016893579844
aF-1.5274267652120612
aF0.4467207208819724
aF-0.7946978372156813
aF-0.34517739285227045
aF-0.6476713444547698
aF-0.6370503160572905
aF-0.2938342426069904
aF-1.2796192736462682
aF-1.4028448633188535
aaa.