(lp0
(lp1
(lp2
I0
aI0
aI0
aI0
aI0
aI0
aI0
aI0
aI0
aI0
aI0
aI0
aI0
aI0
aI0
aI0
aI0
aa(lp3
I0
aI0
aI0
aI0
aI0
aI0
aI0
aI0
aI0
aI0
aI0
aI0
aI0
aI0
aI0
aI0
aI0
aa(lp4
I0
aI0
aI0
aI0
aI0
aI0
aI0
aI0
aI0
aI0
aI0
aI0
aI0
aI0
aI0
aI0
aI0
aa(lp5
I0
aI0
aI0
aI0
aI0
aI0
aI0
aI0
aI0
aI0
aI0
aI0
aI0
aI0
aI0
aI0
aI0
aa(lp6
I0
aI0
aI0
aI0
aI0
aI0
aI0
aI0
aI0
aI0
aI0
aI0
aI0
aI0
aI0
aI0
aI0
aa(lp7
I0
aI0
aI0
aI0
aI0
aI0
aI0
aI0
aI0
aI0
aI0
aI0
aI0
aI0
aI0
aI0
aI0
aa(lp8
I0
aI0
aI0
aI0
aI0
aI0
aI0
aI0
aI0
aI0
aI0
aI0
aI0
aI0
aI0
aI0
aI0
aa(lp9
I0
aI0
aI0
aI0
aI0
aI0
aI0
aI0
aI0
aI0
aI0
aI0
aI0
aI0
aI0
aI0
aI0
aa(lp10
I0
aI0
aI0
aI0
aI0
aI0
aI0
aI0
aI0
aI0
aI0
aI0
aI0
aI0
aI0
aI0
aI0
aa(lp11
I0
aI0
aI0
aI0
aI0
aI0
aI0
aI0
aI0
aI0
aI0
aI0
aI0
aI0
aI0
aI0
aI0
aa(lp12
I0
aI0
aI0
aI0
aI0
aI0
aI0
aI0
aI0
aI0
aI0
aI0
aI0
aI0
aI0
aI0
aI0
aa(lp13
I0
aI0
aI0
aI0
aI0
aI0
aI0
aI0
aI0
aI0
aI0
aI0
aI0
aI0
aI0
aI0
aI0
aa(lp14
I0
aI0
aI0
aI0
aI0
aI0
aI0
aI0
aI0
aI0
aI0
aI0
aI0
aI0
aI0
aI0
aI0
aa(lp15
I0
aI0
aI0
aI0
aI0
aI0
aI0
aI0
aI0
aI0
aI0
aI0
aI0
aI0
aI0
aI0
aI0
aa(lp16
I0
aI0
aI0
aI0
aI0
aI0
aI0
aI0
aI0
aI0
aI0
aI0
aI0
aI0
aI0
aI0
aI0
aa(lp17
I0
aI0
aI0
aI0
aI0
aI0
aI0
aI0
aI0
aI0
aI0
aI0
aI0
aI0
aI0
aI0
aI0
aaa(lp18
(lp19
F2.701788027390479
aF1.8872330692239572
aF1.6338274863796751
aF1.4248145521743592
aF1.1402199483944764
aF-0.4504480994723877
aF0.15710323226735984
aF0.5465961606907509
aF0.3261529939838849
aF0.31431348813037746
aF-0.027944531129689826
aF0.40288224761392527
aF-0.11467453287442657
aF0.3292989017757046
aF0.9618938193065407
aF-0.22112647804818186
aF-0.7370444230546344
aa(lp20
F0.5348269398339536
aF0.9428733573835488
aF0.7121755263743057
aF-0.2291716266945137
aF-0.765645938638679
aF0.49690508498078817
aF1.0105655450018407
aF-0.4687081452874363
aF-0.7534685490122986
aF-0.3490546803160985
aF-0.8493860660004664
aF-0.732585669791479
aF-0.012533683021060478
aF0.601138632538498
aF-0.4955028446737504
aF0.6199692282279224
aF0.5938596260248774
aa(lp21
F3.9487289317870364
aF0.9461430681438571
aF1.5227820780747408
aF0.476358973847773
aF-0.6026747268804357
aF-0.2569800872785195
aF1.2169911737625938
aF0.09384316632070829
aF-0.30084748957230595
aF-0.48344374549183244
aF1.1684469455531579
aF-0.6411627140960887
aF0.48134711077086834
aF-0.4500560114781127
aF-0.4291661568445712
aF1.233263772331651
aF0.09966818424234582
aa(lp22
F-1.8493970058355012
aF-0.22496233168563826
aF-0.16610368245867588
aF-0.6126502258961827
aF0.5706140095004342
aF-0.1513462007195225
aF-0.3634226388930643
aF0.8192530965125608
aF0.8097069450649081
aF0.23779590359986114
aF-1.0136564310570368
aF-0.13642487576609227
aF-0.8538619635511157
aF-0.3782917766670432
aF0.21006995500246986
aF-0.9112765926333363
aF-0.37783831078961283
aa(lp23
F2.67215160408069
aF1.7421949033738904
aF1.3012908825584695
aF0.10388856926879018
aF1.0331193227731945
aF-0.09482561807126709
aF-0.7265999810558585
aF-0.5827610214982503
aF-0.07575075845638105
aF0.5702493402985446
aF-0.315911624656377
aF0.4430058098949939
aF-0.45730656451116664
aF0.6594643581164145
aF-0.16868431793997501
aF0.4587252160679712
aF-0.4971085919040676
aa(lp24
F1.8467126723951017
aF0.7684847812280006
aF0.7342222051440627
aF1.4286067200275068
aF-0.3641253668661098
aF0.5739463113913783
aF-0.31513323540603794
aF-0.15628291649157636
aF0.6818710092538385
aF-0.4445737968711624
aF-0.48407859816790677
aF0.970668741568542
aF0.9801879013703175
aF-0.6368585535067203
aF-0.3787129717913833
aF0.755019531382463
aF0.05332441194023649
aa(lp25
F2.72612798201634
aF0.6206693827605114
aF0.9347684076654987
aF-0.04639895041451552
aF1.1701517630317704
aF-0.6846156380618013
aF-0.3829109768415279
aF-0.26193881578101763
aF0.6713887289958317
aF0.19808044378288278
aF-0.7753932529274011
aF-0.7578309079619467
aF0.4643938975554173
aF0.7630959486232132
aF1.0318984929378061
aF-0.35762142256631574
aF0.853429234162615
aa(lp26
F1.8084963758212897
aF1.4951851686125501
aF0.3155456276423567
aF-0.5208493263523787
aF0.9648971143297523
aF0.4691130618396928
aF-0.2127241326542404
aF-0.27885457103081623
aF0.2521609709527211
aF0.4038079012393121
aF-0.14199728639784315
aF0.15878126400776935
aF0.23208863012835385
aF0.9534191168963717
aF-0.38355826437319385
aF-0.5296882308890973
aF0.40203858160940836
aa(lp27
F2.847741425341981
aF1.394114738501626
aF0.9608502276436645
aF0.525454264240262
aF-0.5959381364628746
aF-0.3315358432249104
aF-0.13955438662907652
aF0.1159234841677967
aF-0.6388720878480982
aF0.8041764116738724
aF-0.14757219336461824
aF0.3069421764502379
aF0.8446573096220691
aF-0.09407750563423713
aF0.4630030093811178
aF0.9379706856444957
aF0.8163362684185373
aa(lp28
F2.2292479175644844
aF0.24930787248150424
aF0.3572175048573615
aF0.4244722918987695
aF0.6368798421684067
aF-0.5365504788534441
aF-0.2325566129321939
aF-0.7009148459418711
aF0.9393587523400535
aF0.7777659292755484
aF0.2756224028896988
aF-0.7708379905704095
aF0.20889399314775953
aF-0.6108615100938244
aF0.3005267374325526
aF0.3223554387347432
aF0.3664356257258379
aa(lp29
F2.398614865472034
aF0.715253523423958
aF0.5142379956938876
aF0.47864021700536036
aF1.1156790640168397
aF0.6064419693624518
aF-0.3528406844547074
aF0.5441022219077637
aF-0.33785009038371333
aF0.021434970637483265
aF0.5169690685240115
aF-0.430060215247972
aF0.3552327855434482
aF-0.6586700616701144
aF-0.620585623376101
aF1.0656240229532807
aF0.1406007714931273
aa(lp30
F3.2492657413670494
aF0.6507225111690684
aF0.8730187709249468
aF1.2749178442606903
aF0.5771375392988969
aF-0.13904456267076193
aF-0.14648515108181195
aF1.2186882277403415
aF0.49162423028616137
aF0.08177911294424489
aF0.9898296525830855
aF0.6358191127465485
aF0.023265828618179805
aF-0.4296407535324226
aF-0.17218085336728314
aF0.4526720747511488
aF0.14022259156833156
aa(lp31
F0.5319568079048108
aF0.0667650849546748
aF0.2374970001601672
aF-0.3476560971120729
aF0.977901568909012
aF-0.16898834474740126
aF1.0050880447772812
aF0.9181653167020952
aF-0.35312147662422405
aF-0.3112683136105951
aF0.7222635528023333
aF0.613328182031608
aF-0.0375794568933116
aF-0.20320697212724945
aF-0.6089561978452825
aF0.4315027207313099
aF-0.7858215246854091
aa(lp32
F2.356189299020319
aF0.5577184295185655
aF0.6882073629597646
aF-0.026546032663636216
aF0.8106079993608305
aF0.22654028483911728
aF0.7726401084611085
aF1.0419838211923427
aF-0.24279536761463197
aF0.940830273716559
aF-0.6918032420616428
aF-0.14357979865313328
aF1.1425499466160143
aF0.5833331205947393
aF0.045292936921019225
aF0.7802152784143319
aF-0.023861500303326847
aa(lp33
F-0.2619505377591339
aF0.19687095099766475
aF-1.1099873641116766
aF-1.095925679757741
aF-0.8184562718168422
aF0.15582294240030914
aF-0.3102563965871412
aF-0.777865966583054
aF-0.5474517608281392
aF0.6310157653770346
aF-0.35048866368105125
aF-0.6001134686597975
aF-0.8488717933766999
aF0.33083947444066186
aF-0.9422692250839296
aF-0.09181755065390812
aF0.5068264695159306
aa(lp34
F2.6988982496421663
aF1.8858223844211464
aF0.7554599529720312
aF1.4642222983729354
aF-0.28839124912472963
aF1.061533772708904
aF0.9815731865170166
aF-0.3090467947124142
aF-0.6746505661783092
aF-0.16085014708052053
aF-0.3947270467680214
aF-0.5219198700287754
aF-0.0014129971916688468
aF0.5525592595058894
aF-0.5263993208769143
aF0.029644579857836563
aF0.46515410469767166
aaa(lp35
(lp36
F4.7537292463689
aF1.8368209794662307
aF0.6643843044596917
aF1.0215946656288766
aF0.04718059687202141
aF1.189318128389456
aF0.39399227908945134
aF-0.49020453558692656
aF0.775280703651484
aF0.8994026630307441
aF0.24659435304580143
aF1.1857892443256368
aF1.1754469849642897
aF0.9685652257063329
aF0.7292926674038542
aF-0.6077280354500117
aF1.0045896447722826
aa(lp37
F5.891133371341972
aF1.4534283188515333
aF1.146957718840841
aF1.0151626727597385
aF-0.3193621806416372
aF0.8383489298120693
aF0.9358108999370753
aF1.4405307117111852
aF0.5956217908995602
aF1.231052234556794
aF-0.4873452690257038
aF-0.2774176420227693
aF1.0354732176238308
aF-0.036373653287230794
aF0.7642129109611031
aF0.45574218928410243
aF0.8933765569600085
aa(lp38
F4.410859053052002
aF1.2798852834064791
aF0.31828067924221193
aF1.9554588348511424
aF-0.0879990259012623
aF0.3752771550327686
aF-0.2770514367257713
aF0.9939234868447261
aF-0.3608063332697914
aF-0.42780885433737564
aF0.677401670637739
aF0.6750415096395317
aF0.8477696796593108
aF-0.3665281521605324
aF1.0327263217415616
aF-0.17923030971666265
aF0.18228315583787302
aa(lp39
F4.012305193048161
aF2.088939835055725
aF0.2718484550635989
aF1.2076128973600584
aF-0.09078118671336495
aF0.44183770189850036
aF0.10915085689671135
aF0.2345535619470781
aF1.0533325553833397
aF1.0948079331440521
aF0.861033728246734
aF0.9238760501816222
aF0.7292589144633057
aF0.7458405946909262
aF0.26147468105486443
aF0.7134114685215188
aF-0.489005062287964
aa(lp40
F4.820864479558942
aF0.5742041267713932
aF0.36766991230703205
aF0.432195484587751
aF0.9875810629468604
aF0.5101054193758285
aF0.3704962774505967
aF-0.20540220367893988
aF-0.009352392848158347
aF-0.46928978102676294
aF1.0181116885349255
aF0.4472423968578439
aF1.2088474685290906
aF-0.651731050026844
aF-0.39536950264472936
aF0.17011797827816683
aF0.9784068791140104
aa(lp41
F2.5738710375662035
aF0.04116075375640194
aF-0.3892110350482313
aF0.82721331830503
aF-0.6976745053942589
aF0.8319943765498413
aF0.8923413481896612
aF-0.2845544934508794
aF0.8980799728550274
aF-0.1507590775820927
aF-0.5895201332140032
aF-0.7210988076125816
aF-0.6238344549479616
aF0.18944180745144562
aF-0.4694559117499712
aF-0.08989635891832863
aF0.3912900169934557
aa(lp42
F3.721317057787844
aF1.2367689020802177
aF-0.013562309026844946
aF1.4843312481089619
aF0.0832386951895859
aF0.9988153463465743
aF0.15728719650781886
aF-0.12325872200899819
aF-0.09544936312914692
aF1.1646689406553068
aF-0.6247905232397264
aF0.032305086868592035
aF1.2410588367623303
aF0.29527962799912866
aF1.0625478909308137
aF-0.24064651266776532
aF0.5473348931161633
aa(lp43
F1.8942104096954844
aF1.5267998362942647
aF0.9425925982797506
aF0.48474968081331804
aF0.19643315381203627
aF0.9739816868092126
aF0.2051002632218591
aF0.6736831639829131
aF0.07403948073785913
aF-0.04461651483285198
aF0.34770728680991564
aF0.054657832675404014
aF0.5023991667040524
aF0.5076538858595853
aF-0.6395335928165785
aF0.7967787321634648
aF0.70509244610049
aa(lp44
F1.6303254884935388
aF-0.0272214980710373
aF-0.3177345898675051
aF1.5146916130707087
aF-0.6793119168237182
aF0.04625745404451159
aF-0.9358359877731884
aF0.21167051983791557
aF0.6837580923048016
aF1.0250461855808835
aF0.5938938435455945
aF0.9029626753589036
aF-0.23992232649002634
aF0.6022511813431826
aF0.9038186750281562
aF-0.8044012374634166
aF0.39113437494786546
aa(lp45
F1.4005867838923747
aF0.6036553470280622
aF1.1452568559292566
aF0.9933789398399278
aF-0.0057378556250991565
aF0.026025760537075445
aF0.9380839262894363
aF0.13967714270432235
aF1.1047156323479406
aF-0.0715249918910676
aF0.2757175331167794
aF-0.028552894898876257
aF1.1293739769606006
aF-0.12372390732308151
aF0.5103574212893796
aF0.12031613098507668
aF0.04010352318844399
aa(lp46
F0.6970401675901072
aF0.6659418960673277
aF0.8786993073212293
aF0.47350318549730075
aF-0.6715182995149159
aF-0.46519044133655013
aF0.9629976800035764
aF-0.5824051514200407
aF0.7861492543195573
aF-0.27865025796749504
aF1.0640130994976675
aF0.9673082739405613
aF-0.6306319426099907
aF0.565737698080036
aF-0.6705716459852592
aF-0.5533954287789199
aF1.037668067819197
aa(lp47
F4.051654325060053
aF1.25738710718527
aF-0.21742384975135853
aF0.27469643857768783
aF0.9199227855923926
aF-0.7172354736461568
aF0.5425511763557687
aF0.3656999871173974
aF0.005520484857051002
aF-0.24893707213434943
aF0.4181786107155054
aF0.3265394234338012
aF0.5904410747487574
aF-0.3482210847660542
aF-0.11098280529915305
aF-0.22612911952523645
aF-0.23635662943903396
aa(lp48
F4.116772849299251
aF0.8639929137513588
aF0.5462764410888805
aF0.7857522996442313
aF-0.06409394876773966
aF0.0024896925234146917
aF0.9807890875729334
aF-0.13096997919620715
aF-0.053687017273409264
aF0.09432033553462635
aF-0.5541187819324084
aF-0.16833923723960736
aF-0.35050514338218286
aF1.1256404687845059
aF0.5054104566816227
aF0.3766973437193534
aF1.0349411471585077
aa(lp49
F2.4672670175790894
aF-0.19104697957036568
aF1.2620905012051815
aF0.04497017373609714
aF-0.05238144773444407
aF-0.7190260786592132
aF-0.8715990149611407
aF0.5532708123082911
aF-0.41667730650726936
aF0.13503335298003152
aF0.8248410462649542
aF0.1137867271422123
aF0.9052250990275575
aF-0.8608861236099327
aF0.16547444843201964
aF0.8338486733248236
aF-0.5535607132541309
aa(lp50
F3.6412512659866585
aF2.0672813563242127
aF1.2867363365867335
aF1.7305641714589273
aF-0.1590135697426259
aF0.8594097612969039
aF1.0419911968991136
aF1.395323135814292
aF0.14242075658276568
aF0.977297010494541
aF0.555377920313478
aF0.06009321869802124
aF-0.1592680705935072
aF-0.4678712129759357
aF1.2223616110951654
aF-0.16984884229366007
aF1.0144315965959694
aa(lp51
F2.2736839533822018
aF1.6760812878214664
aF1.4105432708935257
aF-0.022280224149806082
aF0.41752047009723925
aF-0.7268166343465355
aF-0.049476951698379776
aF1.0613694986191717
aF-0.184476165448204
aF0.6749703974624339
aF0.8245560032503464
aF0.6669586708268901
aF0.2229058549778329
aF0.16918988320275377
aF0.8790632249718402
aF-0.5686388954539368
aF-0.3276401385098212
aaa(lp52
(lp53
F1.5310623404698156
aF-0.49706737222733727
aF1.0728424672668826
aF-0.11161376830337291
aF0.8917925519110035
aF-0.23415476997499168
aF-0.9325399202783039
aF0.8699816989205301
aF-0.18307861741085713
aF0.8535109251472192
aF-0.2541676249353373
aF0.2755838289452708
aF-0.7366337402412397
aF-0.20697992191871004
aF-0.5229227614535729
aF-0.7409345603269106
aF-0.44797869538732177
aa(lp54
F1.450693503318275
aF0.43397970946078956
aF0.2589737863641992
aF-0.35547386851961427
aF0.26813448537333323
aF-1.1001063200381151
aF-1.1113011780570679
aF-0.6428086987706447
aF0.7129436947103771
aF0.8458164065053545
aF0.9152383138015854
aF-0.7480893353831221
aF0.4894684333961251
aF-1.0312239141434838
aF-0.43961534476566944
aF-0.9230929747988071
aF0.8241093298288827
aa(lp55
F-0.37087016168651
aF0.6738127718295621
aF0.6616910573623433
aF0.5891097942724086
aF0.763347896142917
aF0.5188274816395292
aF-0.6789028488470795
aF0.3738230059484091
aF-0.526140056199888
aF-0.6127920365967372
aF-0.16298111825608333
aF-0.7063308267780969
aF-0.9699121841606853
aF0.5424911541990269
aF-0.5247973350347005
aF-0.7813015253393918
aF-0.6205524620396953
aa(lp56
F-4.6635137980410235
aF-1.1280261065409913
aF-1.445089548577437
aF-1.0553574021854133
aF0.1950603270258382
aF-0.18454993945660467
aF0.024815049639550717
aF-0.3984051614032825
aF-0.07347381470108032
aF-0.45607508767021615
aF-0.334481737798788
aF-0.29616444624211063
aF-1.0951725207103393
aF-0.508139913664679
aF0.3173914799627962
aF-0.7546743222686054
aF-0.5373281510603767
aa(lp57
F-2.5024077384615997
aF-0.7036822406779001
aF-1.5641723995996595
aF-0.8327809258060497
aF-0.1809257574632954
aF-0.7494029791476251
aF0.0536329797435671
aF-0.2698987937683101
aF-0.5785390941256905
aF-1.2847920884932145
aF-0.34202918020355644
aF-0.44794802487741997
aF-0.6921899690276122
aF0.11792706524483094
aF-0.5568739650389813
aF-0.7265498726070764
aF0.5064221219150524
aa(lp58
F-6.622972958282067
aF-2.7561163311098347
aF-1.392153999970019
aF-0.7465176483910024
aF-0.742693544711213
aF-1.2826383463864142
aF-1.63372190576318
aF-1.7716160073426768
aF-0.49048960315292955
aF-0.009517481323871172
aF0.12136598955642762
aF-0.6689329619610141
aF0.4049973270222706
aF-0.21492542233128462
aF-0.20711703310108626
aF-0.2517098440542179
aF-1.0299507593353965
aa(lp59
F-7.708448905077382
aF-1.8317657558989702
aF-1.690568893060803
aF-1.6713816445889693
aF-1.6337927826706633
aF-0.42765124250698794
aF-1.2900192852589223
aF-0.7237339649370794
aF-0.44193710029675826
aF0.04124862193208496
aF-0.8712707660233174
aF-0.7852154636467509
aF0.18559500508209223
aF-0.1238734846483744
aF-0.37240695106898714
aF-0.9109350324482473
aF0.01859450098861561
aa(lp60
F-6.79577224788065
aF-1.5164044320989598
aF-0.7976493245088305
aF-2.1476188071288633
aF-1.1174749419731924
aF-0.9180524035765377
aF0.16790200274902944
aF-0.859382081274526
aF0.2942524210721677
aF-1.0624734043538684
aF-0.5878163757459284
aF-0.8105092414511137
aF-1.3302797255688432
aF0.14714741503650028
aF0.4686211838436591
aF-1.077249316436212
aF-1.052612604539018
aa(lp61
F-5.189271737754377
aF-2.108783607179066
aF-0.6036143453607021
aF-1.2601591234419651
aF-1.0792247705735214
aF-0.008000247809821167
aF-1.0872724682454356
aF-0.5663081405795293
aF-1.2216296845200916
aF0.33157760875360454
aF-1.444317549270155
aF-0.5510558852879555
aF-0.5239627052592756
aF0.16360656179307143
aF-1.113921950010232
aF-1.1334517228754502
aF-0.8835335360932527
aa(lp62
F-5.638217079230485
aF-2.9297744217927124
aF-2.1369223605670715
aF-0.6267988670467407
aF-1.2487117927970455
aF-1.4741992489870288
aF-0.42406236529298963
aF0.15559948919728386
aF-0.16768062319442353
aF0.29885929286151053
aF-0.03375521652619675
aF0.32028887814453777
aF-0.21150191074720373
aF-0.8063704447168276
aF-1.3248539158366572
aF-1.2408921203119772
aF-1.1994301886308385
aa(lp63
F-6.436430499647875
aF-3.001297562628124
aF-2.1659492160672227
aF-0.8357026227974951
aF-1.2495119482095478
aF-0.35930306646063026
aF-0.2670272727881831
aF-0.7877142069752395
aF-0.13360221593171262
aF-0.8643115043378394
aF-0.3076988205768674
aF0.39287149850436587
aF-0.6704564814535795
aF-0.963087435797889
aF0.27400964780475917
aF-1.215440885957348
aF0.4703454506788664
aa(lp64
F-5.703179098913462
aF-2.837917134587622
aF-1.8594216644315105
aF-0.5570513624846996
aF-1.37490678692375
aF-0.27799318464954986
aF0.3492628778585029
aF-0.8294025455405711
aF-0.5694361180401006
aF-1.3227003050549828
aF-0.310228904904046
aF0.06004663020109684
aF-0.34825259562403926
aF-1.236293619893404
aF0.3081805591130801
aF-0.2798797102654541
aF-0.13424754381719303
aa(lp65
F-5.539855980007648
aF-2.1849887996930057
aF-2.384219615629798
aF-1.7379772711761168
aF-0.7028700717054707
aF0.04905998820663732
aF-0.13234447957398043
aF-0.7403730655927385
aF0.27579438125798145
aF-1.227384888628999
aF-0.53746531506975
aF-0.12329066035378884
aF-0.47876886583706973
aF-1.0341192480049672
aF-1.1396548462018252
aF-0.5174094158160814
aF-0.25532288577677625
aa(lp66
F-3.9615846523822964
aF-2.071450211831749
aF-2.2032726091050145
aF-1.71969859692614
aF-0.4249439589152168
aF-0.7756846541026927
aF0.4878145596468092
aF-0.04549295582952756
aF-1.3212724120888815
aF-0.8814743380706249
aF0.30992005937886186
aF0.12813436597302677
aF-0.7267177206365236
aF-1.0382368988650692
aF0.41050342691148245
aF-1.3024866152530254
aF-0.7465047305267808
aa(lp67
F-6.394892755075803
aF-1.3005685539571386
aF-1.8396434435716875
aF-2.4412334526181665
aF-1.4598900368271617
aF-0.05570100819893592
aF-0.16475748513533572
aF-1.749831777607616
aF-0.33859349082267204
aF0.3793887868324174
aF-0.7420806944204641
aF-0.6805238062627772
aF-0.2240981895148785
aF-0.9012376437931889
aF-0.4101415056845377
aF0.11318778295938943
aF-0.6272287545605282
aa(lp68
F-5.312736678187777
aF-1.9094048795536953
aF-0.6398664744008825
aF-1.7076300833612272
aF-0.4352350157293835
aF-1.5192155715873716
aF0.0638991696700799
aF0.10547259525271263
aF-1.547298414029257
aF0.4266182563431399
aF-0.8146391933039228
aF-0.3659217696773812
aF-0.6689808062480764
aF-0.6570897750616298
aF-0.31387293724894616
aF-1.2997506639103458
aF-1.4225429284188833
aaa.