(lp0
(lp1
(lp2
I0
aI0
aI0
aI0
aI0
aI0
aI0
aI0
aI0
aI0
aI0
aI0
aI0
aI0
aI0
aI0
aI0
aa(lp3
I0
aI0
aI0
aI0
aI0
aI0
aI0
aI0
aI0
aI0
aI0
aI0
aI0
aI0
aI0
aI0
aI0
aa(lp4
I0
aI0
aI0
aI0
aI0
aI0
aI0
aI0
aI0
aI0
aI0
aI0
aI0
aI0
aI0
aI0
aI0
aa(lp5
I0
aI0
aI0
aI0
aI0
aI0
aI0
aI0
aI0
aI0
aI0
aI0
aI0
aI0
aI0
aI0
aI0
aa(lp6
I0
aI0
aI0
aI0
aI0
aI0
aI0
aI0
aI0
aI0
aI0
aI0
aI0
aI0
aI0
aI0
aI0
aa(lp7
I0
aI0
aI0
aI0
aI0
aI0
aI0
aI0
aI0
aI0
aI0
aI0
aI0
aI0
aI0
aI0
aI0
aa(lp8
I0
aI0
aI0
aI0
aI0
aI0
aI0
aI0
aI0
aI0
aI0
aI0
aI0
aI0
aI0
aI0
aI0
aa(lp9
I0
aI0
aI0
aI0
aI0
aI0
aI0
aI0
aI0
aI0
aI0
aI0
aI0
aI0
aI0
aI0
aI0
aa(lp10
I0
aI0
aI0
aI0
aI0
aI0
aI0
aI0
aI0
aI0
aI0
aI0
aI0
aI0
aI0
aI0
aI0
aa(lp11
I0
aI0
aI0
aI0
aI0
aI0
aI0
aI0
aI0
aI0
aI0
aI0
aI0
aI0
aI0
aI0
aI0
aa(lp12
I0
aI0
aI0
aI0
aI0
aI0
aI0
aI0
aI0
aI0
aI0
aI0
aI0
aI0
aI0
aI0
aI0
aa(lp13
I0
aI0
aI0
aI0
aI0
aI0
aI0
aI0
aI0
aI0
aI0
aI0
aI0
aI0
aI0
aI0
aI0
aa(lp14
I0
aI0
aI0
aI0
aI0
aI0
aI0
aI0
aI0
aI0
aI0
aI0
aI0
aI0
aI0
aI0
aI0
aa(lp15
I0
aI0
aI0
aI0
aI0
aI0
aI0
aI0
aI0
aI0
aI0
aI0
aI0
aI0
aI0
aI0
aI0
aa(lp16
I0
aI0
aI0
aI0
aI0
aI0
aI0
aI0
aI0
aI0
aI0
aI0
aI0
aI0
aI0
aI0
aI0
aa(lp17
I0
aI0
aI0
aI0
aI0
aI0
aI0
aI0
aI0
aI0
aI0
aI0
aI0
aI0
aI0
aI0
aI0
aaa(lp18
(lp19
F2.9408596627064463
aF1.9765183707770662
aF1.692581284131432
aF1.4882542258515519
aF1.154721748011172
aF-0.4363150207980288
aF0.16662702916840638
aF0.5561849573751889
aF0.3356810972239647
aF0.32371267375484775
aF-0.018616317877623877
aF0.4127571355565868
aF-0.10453858459840525
aF0.3386993764570862
aF0.9715021515933715
aF-0.21160008351471937
aF-0.7276909815186164
aa(lp20
F0.8461628717096847
aF1.0595810485490704
aF0.7886653510578381
aF-0.14652073069856855
aF-0.7467618486890301
aF0.5153097031726909
aF1.0229693320328666
aF-0.45621968480946107
aF-0.7410596626160934
aF-0.33681295839626063
aF-0.8372368526342947
aF-0.7197249486213095
aF0.0006669565429679137
aF0.613381855585656
aF-0.4829895122476692
aF0.6323762288238454
aF0.6060412975088058
aa(lp21
F4.238504773933696
aF1.053565487977151
aF1.5943256500971321
aF0.5531976825030916
aF-0.5850975485473927
aF-0.23984928339565287
aF1.2285348398605747
aF0.10546556607156696
aF-0.2892986936001227
aF-0.4720513480669427
aF1.1797533372582343
aF-0.6291935573018848
aF0.49363270987782587
aF-0.4386620295542732
aF-0.4175200919525357
aF1.2448104890532883
aF0.11100522196415424
aa(lp22
F-1.8432682850370212
aF-0.2217773696388539
aF-0.1648422388354043
aF-0.6111512603879167
aF0.5709860836991767
aF-0.15098390264723524
aF-0.36317852604655854
aF0.8194988991110121
aF0.8099511971630036
aF0.23803695578008294
aF-1.0134172057343793
aF-0.13617174112772593
aF-0.8536021699148874
aF-0.37805072371590076
aF0.21031625344728924
aF-0.9110323730533832
aF-0.3775984849850455
aa(lp23
F2.7944104072946643
aF1.78726176777107
aF1.331762442173587
aF0.1359453588670832
aF1.0405350782458753
aF-0.08759852071429486
aF-0.7217314380842738
aF-0.5778593892347849
aF-0.07087973558221286
aF0.5750535666132554
aF-0.311143600029627
aF0.4480539481825414
aF-0.4521249936946409
aF0.6642693667785955
aF-0.16377222018894377
aF0.4635950001120474
aF-0.4923271664513928
aa(lp24
F1.9429509313431992
aF0.8045977654339609
aF0.7581055897051175
aF1.45386313390624
aF-0.3582884262226138
aF0.5796340009931943
aF-0.3112999829808333
aF-0.15242359469022607
aF0.6857058318733547
aF-0.44079097466848255
aF-0.4803243512202158
aF0.9746431473277445
aF0.9842672766373552
aF-0.6330752737126323
aF-0.37484585449064506
aF0.7588536295215927
aF0.05708889876167105
aa(lp25
F2.844348011760478
aF0.6651476058749751
aF0.9635808157905672
aF-0.014834139878912434
aF1.1773232422641862
aF-0.6776260662975515
aF-0.37820013563721644
aF-0.25719573383774313
aF0.6761014881145627
aF0.2027300347094899
aF-0.7707788105013998
aF-0.7529464864936779
aF0.46940747703307456
aF0.767746100803287
aF1.0366509061151963
aF-0.3529092469691832
aF0.8580558119999226
aa(lp26
F1.904399808341393
aF1.5306858948863258
aF0.3391659019009869
aF-0.49527620969194386
aF0.9707143177588295
aF0.4747825407820945
aF-0.20890332412676202
aF-0.27500767546727184
aF0.25598342596610507
aF0.4075787577744361
aF-0.13825491568330361
aF0.16274287904480592
aF0.23615499175981747
aF0.9571904777623734
aF-0.37970363008841834
aF-0.5258663957055116
aF0.4057910002700748
aa(lp27
F2.94535201778185
aF1.4297722276979417
aF0.9848592289358478
aF0.5515733810756338
aF-0.5900163886184405
aF-0.3257640359401052
aF-0.1356657767847821
aF0.11983867429592378
aF-0.6349815052058304
aF0.8080141695859349
aF-0.14376337809662265
aF0.31097431659044705
aF0.8487961618283147
aF-0.090239110877031
aF0.46692637162159734
aF0.9418605052500123
aF0.8201554602231653
aa(lp28
F2.356083876971398
aF0.29676933838658637
aF0.38817608299387735
aF0.45846892522007904
aF0.644573440608035
aF-0.5290515024423728
aF-0.2275020886578917
aF-0.6958257186795063
aF0.944415217514993
aF0.782754793608249
aF0.28057353598802326
aF-0.7655972981130795
aF0.21427326562601826
aF-0.6058720710498946
aF0.3056257370616736
aF0.32741136572068086
aF0.37139967825978343
aa(lp29
F2.5120638541490496
aF0.7570496666942315
aF0.5420187342783342
aF0.5090227915930612
aF1.1225617237450891
aF0.6131503955477193
aF-0.3483206537512187
aF0.5486531785224026
aF-0.33332786752612614
aF0.0258960464664678
aF0.5213964803492768
aF-0.4253734002349517
aF0.3600436277771025
aF-0.6542082930433702
aF-0.616025314141628
aF1.070145462525488
aF0.14504010507807294
aa(lp30
F3.3878459878284586
aF0.7026189163157334
aF0.9070515265065193
aF1.3115961177457007
aF0.5855439323914795
aF-0.1308514074782329
aF-0.14096443380116033
aF1.2242466308413573
aF0.4971474349638077
aF0.08722761489084267
aF0.9952370255160964
aF0.6415433614244892
aF0.02914142078097591
aF-0.42419150004115785
aF-0.16661113093665372
aF0.458194311034765
aF0.145644568566803
aa(lp31
F0.5890337384979173
aF0.08706798971004155
aF0.25166923719484496
aF-0.3324208081236864
aF0.981364782688495
aF-0.16561322616868246
aF1.0073609194821438
aF0.920453691018902
aF-0.35084712857275424
aF-0.3090254129045536
aF0.724489589848641
aF0.6156851439384016
aF-0.03516007057238852
aF-0.20096357502470263
aF-0.6066626553234105
aF0.43377637374983086
aF-0.7835891120775
aa(lp32
F2.4551558261385016
aF0.5943282731459669
aF0.7125311569407292
aF-0.00024367885014193669
aF0.8166119260147243
aF0.2323918423633751
aF0.7765825160654323
aF1.0459531526931305
aF-0.23885099992114053
aF0.9447210760507511
aF-0.6879417854463437
aF-0.13949191560064145
aF1.1467459692571675
aF0.5872245368423765
aF0.04927053789540196
aF0.7841588601543095
aF-0.019989505539125985
aa(lp33
F-0.2579449194545798
aF0.19858738868944262
aF-1.1089116768184268
aF-1.0950495092815546
aF-0.818213960191177
aF0.1560591483819353
aF-0.31009737107762547
aF-0.7777059067562765
aF-0.5472926900545542
aF0.6311725539339506
aF-0.3503330558217139
aF-0.5999486337855773
aF-0.8487026605738107
aF0.33099626571961105
aF-0.942108809815079
aF-0.09165856694785163
aF0.5069825850560256
aa(lp34
F2.8254433907688807
aF1.9322855167347268
aF0.7869684322966549
aF1.4975899553120806
aF-0.28071548925947776
aF1.0690143559791172
aF0.9866131784144634
aF-0.30397251040234763
aF-0.6696081557285319
aF-0.15587657228076476
aF-0.3897909769711194
aF-0.516694032543314
aF0.003950989776001982
aF0.5575336041254298
aF-0.5213144078529381
aF0.03468585475653653
aF0.4701038654320639
aaa(lp35
(lp36
F5.010677891667974
aF1.9337725108562647
aF0.7274794256922255
aF1.0893352915212984
aF0.06276684513551292
aF1.204507799506936
aF0.4042277259857838
aF-0.4798992795183674
aF0.7855207523329164
aF0.9095040680188191
aF0.2566194946644225
aF1.196401981103294
aF1.1863402074980698
aF0.9786679754838814
aF0.7396189536705833
aF-0.5974898755303842
aF1.014641972926672
aa(lp37
F6.1026956778489705
aF1.5307046588320845
aF1.1992040552342895
aF1.0714291256985238
aF-0.3065274345039493
aF0.8508584502901038
aF0.9442378539783175
aF1.4490151765015715
aF0.6040531921627418
aF1.2393686093225784
aF-0.4790915658666381
aF-0.26867957784304336
aF1.044442498632943
aF-0.02805583672705862
aF0.7727153866568226
aF0.46417170254473333
aF0.9016530643507795
aa(lp38
F4.656541968458112
aF1.3715663034977859
aF0.37900957165922006
aF2.0200884735901923
aF-0.07309621811686258
aF0.3898008460834188
aF-0.2672660376783047
aF1.003775530657399
aF-0.35101627612506586
aF-0.41815208162654294
aF0.6869856017286248
aF0.6851877398456556
aF0.8581840948613796
aF-0.3568699599278652
aF1.0425988770156551
aF-0.1694423468559004
aF0.19189348034854675
aa(lp39
F4.15658676653105
aF2.1415240533068634
aF0.3075686188633272
aF1.2459085655478233
aF-0.08202832759078595
aF0.4503688974101442
aF0.11489754834234644
aF0.24033944401965193
aF1.059082320418931
aF1.1004790941363374
aF0.866662164775841
aF0.9298349146065458
aF0.7353754486819897
aF0.7515127589409135
aF0.26727292626889526
aF0.719159881086963
aF-0.4833609824342991
aa(lp40
F4.973594358680451
aF0.6309060578355253
aF0.4061050863038755
aF0.47166212981542616
aF0.9968434582375474
aF0.5191322536644689
aF0.37657687817367735
aF-0.19928043455835395
aF-0.0032688452389864693
aF-0.463290011365009
aF1.024066260927059
aF0.4535471147642193
aF1.2153186722063758
aF-0.6457303602246484
aF-0.3892346307326837
aF0.17619984444237988
aF0.9843784198373661
aa(lp41
F2.724566543379605
aF0.10008191137764855
aF-0.35143446797570993
aF0.8662442379271754
aF-0.6885414526723392
aF0.840892227294332
aF0.8983450478473132
aF-0.2785101700609592
aF0.9040842360915198
aF-0.1448343697895598
aF-0.5836404732707761
aF-0.7148754648477352
aF-0.6174473523642742
aF0.19536648193047088
aF-0.4634012398041797
aF-0.0838923966255749
aF0.3971847947077868
aa(lp42
F3.8416176347500124
aF1.2792568458992248
aF0.016643786072642754
aF1.5163042172919337
aF0.09053659783056245
aF1.005928217838965
aF0.16207771790647554
aF-0.11843561038539603
aF-0.09065606032046146
aF1.1693960752336354
aF-0.6200989525896119
aF0.03727258618847233
aF1.24615781984701
aF0.300007726456484
aF1.0673816471906024
aF-0.2358545824927253
aF0.5520398498893622
aa(lp43
F1.9897759341817192
aF1.5632242889212526
aF0.9655457816966464
aF0.5105875553018834
aF0.20223030247962295
aF0.9796323474999155
aF0.20890989717691433
aF0.677518983832215
aF0.07785041187986474
aF-0.040855903756779804
aF0.3514394068332921
aF0.05860772441524289
aF0.5064535206492673
aF0.5114148435381077
aF-0.6356906457270206
aF0.8005895070094589
aF0.7088339494158684
aa(lp44
F1.7232704607405267
aF0.005223125227228525
aF-0.29531960592720613
aF1.5407622611348482
aF-0.6736716221533992
aF0.051757212152651624
aF-0.9321303877324671
aF0.2154017334448776
aF0.6874656592631104
aF1.0287042300525067
aF0.5975242747089209
aF0.9068052713628255
aF-0.2359777251054717
aF0.6059099257814141
aF0.907557436833952
aF-0.800694029523779
aF0.3947741604042837
aa(lp45
F1.4876127539593051
aF0.6374421233067953
aF1.1660635824819368
aF1.0166739723424651
aF-0.0004581984289470964
aF0.0311714682849972
aF0.9415528129233065
aF0.1431698602904827
aF1.1081857694001183
aF-0.06810078112742944
aF0.2791158151207816
aF-0.024956251673954905
aF1.133065713764575
aF-0.12029938109622905
aF0.5138567211787521
aF0.12378606332085784
aF0.043510418355041824
aa(lp46
F0.7648679284941398
aF0.6886302456540848
aF0.8958691616947113
aF0.49219095848930394
aF-0.6674046735061766
aF-0.46118061804528526
aF0.9657001208322277
aF-0.5796842660200658
aF0.7888529224532902
aF-0.27598331762884415
aF1.0666599039778044
aF0.9701103458696516
aF-0.6277556558922973
aF0.568405110748582
aF-0.6678452085160228
aF-0.5506922405115414
aF1.0403220710593286
aa(lp47
F4.1979811735093575
aF1.3151906344471593
aF-0.18278291819600734
aF0.31432631050067944
aF0.9287989745124672
aF-0.7085855027765473
aF0.5483869094302047
aF0.37157593261468996
aF0.01135735404037193
aF-0.24317571323152154
aF0.42389615490878346
aF0.3325894877125027
aF0.5966509816514586
aF-0.34245957049193176
aF-0.10509700609255514
aF-0.22029184065437202
aF-0.23062554875814723
aa(lp48
F4.259253768476023
aF0.9168758887438065
aF0.5821484004051274
aF0.822543200723246
aF-0.05545236538676827
aF0.010910092436493815
aF0.9864616451501618
aF-0.12525902542394596
aF-0.048011691122087564
aF0.09991743856130167
aF-0.5485638454218474
aF-0.16245758440156877
aF-0.3444681735198343
aF1.131238432609934
aF0.5111336654386617
aF0.3823710705474687
aF1.040511952967894
aa(lp49
F2.6232859482515822
aF-0.13080937365131823
aF1.300474566363709
aF0.086294223950324
aF-0.042923294244168624
aF-0.7098069754503823
aF-0.8653808024847051
aF0.5595314288526257
aF-0.4104580770489078
aF0.1411707337600215
aF0.8309318128918781
aF0.12023291969727916
aF0.9118412905604801
aF-0.8547485741536418
aF0.17174589036029986
aF0.8400678271472568
aF-0.5474546886867369
aa(lp50
F3.7311493015137884
aF2.101092033798557
aF1.3089477673528236
aF1.7543587428293068
aF-0.1535616425359323
aF0.8647227801934193
aF1.0455728128031623
aF1.398929158214124
aF0.14600361550519805
aF0.9808317541015914
aF0.5588859191788486
aF0.06380659298060723
aF-0.1554566264123645
aF-0.4643361202391254
aF1.2259746118547166
aF-0.16626645342248625
aF1.0179488987955858
aa(lp51
F2.3862746584843895
aF1.7196125504873216
aF1.43753178512494
aF0.008015477139501433
aF0.42435081910804234
aF-0.7201607609298717
aF-0.04498837161757369
aF1.065888914638426
aF-0.1799862352368301
aF0.6794012382349318
aF0.8289532395202398
aF0.6716123841173012
aF0.22768257781216136
aF0.17362104158271383
aF0.8835908591264444
aF-0.5641490736919889
aF-0.32323193821593865
aaa(lp52
(lp53
F1.6106226160535626
aF-0.5034272472211224
aF1.096391308719889
aF-0.08231591434975767
aF0.8966379414767375
aF-0.22941871778120465
aF-0.9293745955954279
aF0.8731692415326137
aF-0.1799038384555949
aF0.8566325418714774
aF-0.2510682896843578
aF0.27887180240560483
aF-0.7332551264243639
aF-0.20385367308854782
aF-0.5197205045852179
aF-0.7377641847006468
aF-0.44486614733741914
aa(lp54
F1.484492912863681
aF0.4595084741670457
aF0.25952503634508556
aF-0.34290525683263534
aF0.2702003187590286
aF-1.0980880747265112
aF-1.1099313846855943
aF-0.6414273685551732
aF0.7143125398005864
aF0.847177189627804
aF0.9165882123179586
aF-0.7466688560156659
aF0.4909272577670371
aF-1.0298639789476263
aF-0.43823555011586274
aF-0.9217202806870858
aF0.8254568573795971
aa(lp55
F-0.30288349448522606
aF0.7074516806133467
aF0.6811649194079511
aF0.5967302796760932
aF0.767474830892292
aF0.5228442272540421
aF-0.6762273716939369
aF0.37651472421901827
aF-0.5234578942382927
aF-0.610160028155735
aF-0.16036766517486986
aF-0.7035540965056898
aF-0.9670630768968916
aF0.5451251335252434
aF-0.5220916193168799
aF-0.7786260647722427
aF-0.617923839390126
aa(lp56
F-4.72282635118117
aF-1.149190397155618
aF-1.4593182815278911
aF-1.0710150358357282
aF0.1914496094469399
aF-0.1880580290611643
aF0.02245255645715801
aF-0.4007838961093093
aF-0.07583878600069845
aF-0.4584065008459898
aF-0.3367957460772489
aF-0.29861518260369807
aF-1.0976885145752837
aF-0.5104721649793229
aF0.3150064557004463
aF-0.7570381723590496
aF-0.5396492139475653
aa(lp57
F-2.5475086348390588
aF-0.7203854984973966
aF-1.574872222442313
aF-0.8448627291241201
aF-0.1836582932648099
aF-0.7520805713169991
aF0.0518366047546582
aF-0.2717076070996047
aF-0.5803368109852614
aF-1.2865654431089735
aF-0.3437893157532847
aF-0.4498110343192707
aF-0.6941024456796991
aF0.11615319938866564
aF-0.5586868865767307
aF-0.7283472753031981
aF0.5046572800852318
aa(lp58
F-6.849958987042894
aF-2.840654034017143
aF-1.4480643775227258
aF-0.8067325012820213
aF-0.7564618565989429
aF-1.2960567573805108
aF-1.6427642929824697
aF-1.7807200847870148
aF-0.49953599408407184
aF-0.01844147554755575
aF0.1125093841209347
aF-0.6783086303673787
aF0.39537380757164237
aF-0.22385062606623943
aF-0.21623959982091162
aF-0.2607546320548294
aF-1.0388313158705749
aa(lp59
F-7.938476515809099
aF-1.9174362891229588
aF-1.747228281311627
aF-1.7324035844700132
aF-1.6477456072646315
aF-0.44124948450782675
aF-1.2991828786721948
aF-0.732960076623114
aF-0.4511047423163089
aF0.03220500315322998
aF-0.8802460919865663
aF-0.7947168016138343
aF0.17584249310487454
aF-0.1329183270311746
aF-0.3816517898016422
aF-0.9201010574149564
aF0.009594911119435784
aa(lp60
F-7.02296404010759
aF-1.6010182527551893
aF-0.8536108963841839
aF-2.207887026652019
aF-1.1312555865871219
aF-0.9314827764551721
aF0.15885173235278538
aF-0.8684940869107891
aF0.2851980722868864
aF-1.0714051367369881
aF-0.5966806665978752
aF-0.8198931165988491
aF-1.3399116626400425
aF0.13821445473958727
aF0.45949059155597755
aF-1.0863020018827867
aF-1.0615009332854566
aa(lp61
F-5.4104684562123735
aF-2.1911656442642022
aF-0.6580980148472902
aF-1.3188391275711382
aF-1.0926420080246901
aF-0.021076540696668315
aF-1.0960844121999307
aF-0.5751802078654245
aF-1.230445488782395
aF0.3228810156909371
aF-1.4529484674630675
aF-0.5601925977722606
aF-0.5333409555448115
aF0.1549088000883518
aF-1.122811987987279
aF-1.1422659996335678
aF-0.8921877563150549
aa(lp62
F-5.856153605015492
aF-3.010942204219983
aF-2.1906030529223846
aF-0.684613819682516
aF-1.2619312641634581
aF-1.4870827964538187
aF-0.432744406638267
aF0.1468582115095262
aF-0.17636647346287115
aF0.2902909051640238
aF-0.04225889800304776
aF0.3112868533277462
aF-0.22074191231160548
aF-0.814939985195633
aF-1.333612905609977
aF-1.249576461046556
aF-1.2079568337168973
aa(lp63
F-6.680088076661718
aF-3.0920439257874945
aF-2.2259662232133954
aF-0.9003395362307979
aF-1.2642914376235457
aF-0.37370693005435884
aF-0.27673365012405166
aF-0.7974868003237389
aF-0.14331292538238183
aF-0.8738907749051432
aF-0.31720575684785446
aF0.3828073507981651
aF-0.6807866777281011
aF-0.9726680131041663
aF0.2642171682623272
aF-1.2251498463373145
aF0.4608127727983573
aa(lp64
F-5.959596194026196
aF-2.933415328266471
aF-1.9225814171027602
aF-0.6250732392125438
aF-1.3904602428522008
aF-0.2931513495738822
aF0.3390481815429527
aF-0.8396869264184439
aF-0.5796553671036883
aF-1.3327812419092886
aF-0.32023371883362745
aF0.04945542999532048
aF-0.3591237778613017
aF-1.2463759304433142
aF0.29787525777776636
aF-0.29009712395006
aF-0.144279441525549
aa(lp65
F-5.761113176027296
aF-2.267393115444006
aF-2.4387183122582985
aF-1.796672992476017
aF-0.7162909425320383
aF0.03598016816048884
aF-0.1411587575118349
aF-0.7492474806932208
aF0.26697622484922745
aF-1.2360837750929197
aF-0.5460985107357881
aF-0.13242980081647718
aF-0.4881496068661522
aF-1.0428193076220835
aF-1.1485472563178363
aF-0.5262260301458145
aF-0.26397940548133375
aa(lp66
F-4.192538066208632
aF-2.1574649393478986
aF-2.260160756162894
aF-1.780964603305716
aF-0.4389527690820688
aF-0.7893373923010155
aF0.4786144468132468
aF-0.05475582594818444
aF-1.3304766715916907
aF-0.890553949857692
aF0.3009090056500657
aF0.11859512463011447
aF-0.7365091309569616
aF-1.0473177590973828
aF0.4012216615382212
aF-1.3116891832719801
aF-0.7555402208251429
aa(lp67
F-6.621998205351893
aF-1.3851506192511935
aF-1.895583153875616
aF-2.501479831157317
aF-1.4736655687590674
aF-0.06912644620474549
aF-0.1738045770962984
aF-1.7589405904828646
aF-0.3476446007548842
aF0.37046015633278084
aF-0.7509419021257137
aF-0.6899043585472947
aF-0.2337267210264187
aF-0.9101674874401606
aF-0.4192688312831372
aF0.10413828672776079
aF-0.6361139369097769
aa(lp68
F-5.53183676976596
aF-1.9910055063513428
aF-0.6938344821939807
aF-1.7657524733964798
aF-0.4485249291540784
aF-1.5321677181687061
aF0.05517106214623649
aF0.09668494519197447
aF-1.5560304155933546
aF0.41800444399482406
aF-0.8231879615617045
aF-0.37497158848123235
aF-0.678269859618459
aF-0.6657047620913922
aF-0.32267846756581015
aF-1.3084810939353675
aF-1.4311148424739577
aaa.