(lp0
(lp1
(lp2
I0
aI0
aI0
aI0
aI0
aI0
aI0
aI0
aI0
aI0
aI0
aI0
aI0
aI0
aI0
aI0
aI0
aa(lp3
I0
aI0
aI0
aI0
aI0
aI0
aI0
aI0
aI0
aI0
aI0
aI0
aI0
aI0
aI0
aI0
aI0
aa(lp4
I0
aI0
aI0
aI0
aI0
aI0
aI0
aI0
aI0
aI0
aI0
aI0
aI0
aI0
aI0
aI0
aI0
aa(lp5
I0
aI0
aI0
aI0
aI0
aI0
aI0
aI0
aI0
aI0
aI0
aI0
aI0
aI0
aI0
aI0
aI0
aa(lp6
I0
aI0
aI0
aI0
aI0
aI0
aI0
aI0
aI0
aI0
aI0
aI0
aI0
aI0
aI0
aI0
aI0
aa(lp7
I0
aI0
aI0
aI0
aI0
aI0
aI0
aI0
aI0
aI0
aI0
aI0
aI0
aI0
aI0
aI0
aI0
aa(lp8
I0
aI0
aI0
aI0
aI0
aI0
aI0
aI0
aI0
aI0
aI0
aI0
aI0
aI0
aI0
aI0
aI0
aa(lp9
I0
aI0
aI0
aI0
aI0
aI0
aI0
aI0
aI0
aI0
aI0
aI0
aI0
aI0
aI0
aI0
aI0
aa(lp10
I0
aI0
aI0
aI0
aI0
aI0
aI0
aI0
aI0
aI0
aI0
aI0
aI0
aI0
aI0
aI0
aI0
aa(lp11
I0
aI0
aI0
aI0
aI0
aI0
aI0
aI0
aI0
aI0
aI0
aI0
aI0
aI0
aI0
aI0
aI0
aa(lp12
I0
aI0
aI0
aI0
aI0
aI0
aI0
aI0
aI0
aI0
aI0
aI0
aI0
aI0
aI0
aI0
aI0
aa(lp13
I0
aI0
aI0
aI0
aI0
aI0
aI0
aI0
aI0
aI0
aI0
aI0
aI0
aI0
aI0
aI0
aI0
aa(lp14
I0
aI0
aI0
aI0
aI0
aI0
aI0
aI0
aI0
aI0
aI0
aI0
aI0
aI0
aI0
aI0
aI0
aa(lp15
I0
aI0
aI0
aI0
aI0
aI0
aI0
aI0
aI0
aI0
aI0
aI0
aI0
aI0
aI0
aI0
aI0
aa(lp16
I0
aI0
aI0
aI0
aI0
aI0
aI0
aI0
aI0
aI0
aI0
aI0
aI0
aI0
aI0
aI0
aI0
aa(lp17
I0
aI0
aI0
aI0
aI0
aI0
aI0
aI0
aI0
aI0
aI0
aI0
aI0
aI0
aI0
aI0
aI0
aaa(lp18
(lp19
F3.604664248826297
aF2.224891597645794
aF1.855622533015824
aF1.665653634512409
aF1.1942660800582654
aF-0.39793759470402856
aF0.19169488499331455
aF0.5814013085644335
aF0.3609733650450388
aF0.34836623837203945
aF0.005885611850186428
aF0.43881826900046844
aF-0.07782407711259076
aF0.36341778428223415
aF0.9970104917796514
aF-0.18646769621846526
aF-0.7029476348815829
aa(lp20
F1.666495941975038
aF1.3674172221891512
aF0.9899868665333635
aF0.07287396305646204
aF-0.6978866383194677
aF0.562745285467073
aF1.0539662512182164
aF-0.42503893886273997
aF-0.709787586597206
aF-0.3063276582491285
aF-0.8069396471224982
aF-0.6875003643497171
aF0.03369989338305842
aF0.6439465030561722
aF-0.45145036448426934
aF0.6634520805606555
aF0.6366352976282891
aa(lp21
F5.002776485816312
aF1.3378111693264683
aF1.7829169901391209
aF0.757258714982918
aF-0.5395627762826201
aF-0.1956572801352265
aF1.2574076027464796
aF0.13450938503432727
aF-0.2601691055173574
aF-0.4436558099218502
aF1.2079739291365863
aF-0.5991772435754794
aF0.5244018611998317
aF-0.4101922551420317
aF-0.38814163962305287
aF1.2737568609809025
aF0.1395029146091366
aa(lp22
F-1.8106543359643787
aF-0.20719970728230433
aF-0.15756697320684074
aF-0.6027562414380827
aF0.5729272956874374
aF-0.1491007526266536
aF-0.361951335870845
aF0.820733369563967
aF0.81119010138258
aF0.239243992517707
aF-1.0122174685919145
aF-0.1348956656288684
aF-0.8522942564000745
aF-0.37684036143825383
aF0.21156574257176206
aF-0.9098016871804631
aF-0.3763865507416807
aa(lp23
F3.1214738523931205
aF1.9088779179834825
aF1.4132526177726623
aF0.22222886009658352
aF1.0600199305495257
aF-0.0686895374975377
aF-0.7093796428660142
aF-0.565434599282
aF-0.05841801262538488
aF0.5872006478598205
aF-0.2990711826858586
aF0.46089475344581776
aF-0.43896234294216097
aF0.6764483066334125
aF-0.1512039553549292
aF0.4759781507940647
aF-0.48013584647503954
aa(lp24
F2.20259295323763
aF0.9027484433550356
aF0.8223817905646029
aF1.5225670842479915
aF-0.3428223227577318
aF0.5946426204582109
aF-0.3014926103292803
aF-0.14255822371836213
aF0.6956001189419375
aF-0.4311458581083103
aF-0.47073866304082984
aF0.9848386100921833
aF0.9947182116458866
aF-0.6234050857735739
aF-0.3648670506596267
aF0.7686857544107738
aF0.06676866993762978
aa(lp25
F3.15782353893548
aF0.7827372847620694
aF1.0399180914837385
aF0.06952649375240076
aF1.1960013213486846
aF-0.6594981022918037
aF-0.3663561467204798
aF-0.24528140645996477
aF0.6880511938808003
aF0.21437877752309104
aF-0.7592019062587265
aF-0.7406330325001486
aF0.48202991295406955
aF0.7794253195734159
aF1.0487026542974618
aF-0.34103474672141143
aF0.8697462968082683
aa(lp26
F2.1654134657466098
aF1.627438526650737
aF0.40341034319421504
aF-0.42517860836123833
aF0.9862639472438113
aF0.48987395659906724
aF-0.1990443543467941
aF-0.2650902785314618
aF0.26593039885748726
aF0.4172748388991456
aF-0.1286185447128555
aF0.17299243095232716
aF0.24666159072421376
aF0.966911993873781
aF-0.3696716972291202
aF-0.5159821400524665
aF0.4155221319045772
aa(lp27
F3.2066222647294924
aF1.5251980313558469
aF1.0492432808235146
aF0.6218625258848773
aF-0.5744479515339325
aF-0.31065469454272054
aF-0.12579734131224757
aF0.1297656247000464
aF-0.6250246086727481
aF0.817719484941281
aF-0.13411775003892537
aF0.3212339986087566
aF0.8593133008844742
aF-0.08050814617981607
aF0.47696836217775046
aF0.9517544584124645
aF0.8298961445133052
aa(lp28
F2.69059922349556
aF0.4215536792256701
aF0.4697615792827437
aF0.5488159857127877
aF0.664504140215537
aF-0.5097063137383844
aF-0.2148619576365368
aF-0.6831105098851646
aF0.9571679647628349
aF0.795186592744725
aF0.2929286105448923
aF-0.7524562373024721
aF0.22774410692846286
aF-0.5934078060541381
aF0.3184873618939257
aF0.3400839750971241
aF0.38387582516316254
aa(lp29
F2.815632836751594
aF0.8687644664199228
aF0.6164477928551951
aF0.5907971075725738
aF1.1406507545086373
aF0.6307062957156451
aF-0.336853581111607
aF0.5601882982837529
aF-0.3217580115997411
aF0.037173772008802196
aF0.5326047994074881
aF-0.4134516440912655
aF0.3722645755677468
aF-0.6429008151912636
aF-0.6043566025470574
aF1.081642228747669
aF0.15635877172652166
aa(lp30
F3.7496174777783864
aF0.8383077443871646
aF0.9958516206609597
aF1.407992890167173
aF0.607100154363691
aF-0.1099307210063832
aF-0.127296270347416
aF1.2379958385255523
aF0.5109372966217299
aF0.10067004898770268
aF1.0085966318990367
aF0.655753062392327
aF0.04370759502061929
aF-0.4107139202025756
aF-0.152703446301809
aF0.47189744166523223
aF0.1591353085688976
aa(lp31
F0.751776607522787
aF0.1454317440046118
aF0.29220186461009756
aF-0.28883539893834476
aF0.9910616622126971
aF-0.15620391933450065
aF1.0135031698888717
aF0.9266322635794583
aF-0.3446492902390757
aF-0.3029850527581242
aF0.7304929843434219
aF0.6220709992688832
aF-0.028614075547798382
aF-0.19490700751194123
aF-0.6004117987352106
aF0.43993465711007834
aF-0.7775260570309951
aa(lp32
F2.719364451488099
aF0.6921682721959163
aF0.7775183824330844
aF0.07040872210523433
aF0.8323552392604024
aF0.24767029494448736
aF0.78656213770714
aF1.0559919323581122
aF-0.22878206276130983
aF0.9545357566873208
aF-0.6781874784969028
aF-0.1291167224387894
aF1.157381451909544
aF0.5970650740011203
aF0.059425527354588184
aF0.794164206749498
aF-0.010139140111212985
aa(lp33
F-0.24444289120085486
aF0.20445144124808767
aF-1.1053861434817154
aF-1.0919521079947772
aF-0.8174117799318266
aF0.1568380726000283
aF-0.309588793379954
aF-0.7771943918884846
aF-0.5467796977292513
aF0.6316725734807583
aF-0.34983607800316663
aF-0.5994200921083965
aF-0.8481610101677313
aF0.33149755450834917
aF-0.9415914238013439
aF-0.09114880930202313
aF0.507484493850887
aa(lp34
F3.159015981397301
aF2.0556570488456725
aF0.8700312468431088
aF1.586082636368591
aF-0.2608421495160541
aF1.0883007700479284
aF0.9992134177364017
aF-0.2912977519044275
aF-0.6568960280616996
aF-0.14348500846736778
aF-0.37747568368921003
aF-0.5035949766246329
aF0.017378468277952964
aF0.5699575771642267
aF-0.5084936310614546
aF0.04731801394378891
aF0.4825402120416318
aaa(lp35
(lp36
F5.7069619928050965
aF2.1974790790171697
aF0.8981654333851655
aF1.2741984098674841
aF0.10424915209382403
aF1.2447650107529755
aF0.4305262823178467
aF-0.4534449202767133
aF0.8120541006127616
aF0.9353681182996963
aF0.2823243673623465
aF1.2237424330448319
aF1.2143661219607986
aF1.0045997799843471
aF0.7663790037709224
aF-0.5711238840558157
aF1.0405997030154757
aa(lp37
F6.6672172006474355
aF1.73716229902357
aF1.338930843424249
aF1.222340844347905
aF-0.27288902328123316
aF0.8835038306902604
aF0.9655587586248373
aF1.4704623704589457
aF0.6255650482334254
aF1.2603366878602869
aF-0.4582523455070344
aF-0.2465135882471747
aF1.067164587054951
aF-0.00703233926425347
aF0.7944111496738757
aF0.4855475467216172
aF0.9226977933681991
aa(lp38
F5.312986926559643
aF1.6175924211127586
aF0.5411797113541353
aF2.193988188901427
aF-0.033986221514462324
aF0.4277553717438992
aF-0.24247185851403388
aF1.028716459886349
aF-0.3260011696345969
aF-0.3937681041370189
aF0.7112195615454888
aF0.7109639230094607
aF0.8846065252474852
aF-0.33242209269944784
aF1.0678277787133559
aF-0.14458490668165813
aF0.21636586236614974
aa(lp39
F4.532458113718645
aF2.278703130642995
aF0.40085576606432477
aF1.346164900490851
aF-0.05963001542492168
aF0.4721063332749388
aF0.12909545593064614
aF0.2546214380193018
aF1.0734070482741203
aF1.1144419818923372
aF0.8805392074369
aF0.9445954682327176
aF0.7505063667467176
aF0.765512472598732
aF0.2817201353685075
aF0.7333942174228023
aF-0.46934725460018817
aa(lp40
F5.365337213639006
aF0.7784485107556542
aF0.5047266759647042
aF0.5733052882883765
aF1.0201797359984974
aF0.5417794761831791
aF0.39137508214688654
aF-0.18439496945544803
aF0.011659570245228696
aF-0.4487374866355433
aF1.038529222359949
aF0.46893034358501406
aF1.2310872581064691
aF-0.6311401254872789
aF-0.3741785500368038
aF0.1910347731942212
aF0.9989832716404571
aa(lp41
F3.1331231166055433
aF0.2615185586102982
aF-0.25011547203327666
aF0.9736657980527005
aF-0.6642242910573388
aF0.864494267766962
aF0.913785137686435
aF-0.26297895038180275
aF0.9196578870556029
aF-0.12964930710909392
aF-0.5685496317679334
aF-0.6988264658421173
aF-0.6009969587290024
aF0.21058960941345864
aF-0.44769485510713536
aF-0.06841502762161554
aF0.41242192525582444
aa(lp42
F4.154946099550912
aF1.390341165635264
aF0.09575620155338181
aF1.5998600941665444
aF0.10920727506628672
aF1.0240469908324918
aF0.1739115894935746
aF-0.10653181689679352
aF-0.07871673057654544
aF1.1810334591916654
aF-0.6085330375455481
aF0.04957511522542097
aF1.2587689760408067
aF0.3116758800475641
aF1.0794231066159845
aF-0.22399060842746657
aF0.5637198636606459
aa(lp43
F2.2510467201772406
aF1.6619041054806296
aF1.028138490216461
aF0.5818934926596535
aF0.2177965557451685
aF0.9947422175870967
aF0.21878139463521756
aF0.687449266398521
aF0.08781052722150322
aF-0.031146604313636098
aF0.36108877328311667
aF0.06887085102636509
aF0.5169742697325566
aF0.521149605677622
aF-0.6256455494870419
aF0.8104868043281405
aF0.7185779754230874
aa(lp44
F1.979249295099175
aF0.09291099717224109
aF-0.23317686699577908
aF1.6128635379287894
aF-0.658413953746586
aF0.06656919001044619
aF-0.9224612135300249
aF0.22512858839522812
aF0.6972230155643009
aF1.0382142365599565
aF0.6069758043933713
aF0.9168589111153659
aF-0.22567118998268565
aF0.6154456128045149
aF0.9173981246492724
aF-0.7909988528501157
aF0.4043191775730435
aa(lp45
F1.7228622693246267
aF0.7281199144881166
aF1.2220846951408193
aF1.0802716955724432
aF0.01355959153889299
aF0.04477664353506213
aF0.9504414344328059
aF0.1521114250372654
aF1.1171542107996226
aF-0.059358145682958136
aF0.2878044965666705
aF-0.01571492651432548
aF1.142538993605716
aF-0.11153385299642775
aF0.522901703043616
aF0.13269793915774086
aF0.05228432620727721
aa(lp46
F0.9561463764956913
aF0.7529458659408862
aF0.9444995176134827
aF0.5450631905954016
aF-0.6560128204665533
aF-0.4501228875753555
aF0.9729224969138881
aF-0.5724192052798226
aF0.7961398184490526
aF-0.268880797998582
aF1.0737187478832921
aF0.9776186415970893
aF-0.620059031173115
aF0.5755264841467922
aF-0.6604960839531206
aF-0.5434514303131474
aF1.04745060640511
aa(lp47
F4.602105425380899
aF1.4727873038419081
aF-0.08759652442930617
aF0.4250976336517589
aF0.9528750932760971
aF-0.6852173272856458
aF0.5636621189477335
aF0.38694230729937995
aF0.026768959874147777
aF-0.22815052803870828
aF0.43882821070687306
aF0.34847053414039353
aF0.6129306440429277
aF-0.32739552508435443
aF-0.08955408389816313
aF-0.20497689160631158
aF-0.21554787822222227
aa(lp48
F4.622462977101691
aF1.0537440369940756
aF0.6736237511231817
aF0.9167492455381155
aF-0.03381411351079652
aF0.03190614285955924
aF1.000182711882414
aF-0.11145705374816975
aF-0.03417001255336007
aF0.1134106972711578
aF-0.5351536622833554
aF-0.14819411849482328
aF-0.32984739616656145
aF1.144766607728414
aF0.5250937102458587
aF0.39612612185332274
aF1.0540536395542655
aa(lp49
F3.02670006198551
aF0.025035596319398584
aF1.3990835537958697
aF0.19435613341409802
aF-0.018901124721350374
aF-0.6864846055813227
aF-0.8501298353589403
aF0.5748728546489669
aF-0.395073857794136
aF0.15617062573757592
aF0.8458386396429496
aF0.1360867298676903
aF0.9280924664450027
aF-0.8397105884617948
aF0.18726126720018763
aF0.8553566603481697
aF-0.5324032566308228
aa(lp50
F3.9760554092654576
aF2.193613637396707
aF1.3692832989110295
aF1.8197562536444418
aF-0.13897506249400393
aF0.878879654979629
aF1.0548243721040007
aF1.4082354896897566
aF0.15533715041323642
aF0.9899304841361096
aF0.5679285148311138
aF0.0734242640499243
aF-0.1455979330061001
aF-0.45521378634067267
aF1.2353878225812995
aF-0.15699150002371534
aF1.0270801155230913
aa(lp51
F2.691961869069594
aF1.8368683263040517
aF1.5104729330717088
aF0.09121604224279377
aF0.4425639169943789
aF-0.7024853241891493
aF-0.033437231594066856
aF1.0775088509052115
aF-0.1683317280099784
aF0.690762731235435
aF0.8402445037439645
aF0.6836216359617082
aF0.23999321270079885
aF0.18501213917034467
aF0.8953447663533858
aF-0.5525678981146028
aF-0.31183014025528993
aaa(lp52
(lp53
F1.775981268757245
aF-0.5489289870603858
aF1.1548224001900158
aF-0.01863460618649114
aF0.906555351005825
aF-0.21979077843651088
aF-0.92315582030281
aF0.8794246429198953
aF-0.1736193754152596
aF0.8627414333749749
aF-0.2449943970155121
aF0.28534264542787013
aF-0.7266172661136002
aF-0.1977215069816029
aF-0.5133811822013915
aF-0.7315248612780022
aF-0.43872461346353697
aa(lp54
F1.6010745305751937
aF0.5276950096442563
aF0.26478557833743327
aF-0.29999759139167087
aF0.2771941075061781
aF-1.09129162745746
aF-1.105505480262466
aF-0.6369715236131395
aF0.7187886640324066
aF0.8515407854771465
aF0.9209241232306032
aF-0.7420579447703711
aF0.49565729089695715
aF-1.0254874363787676
aF-0.43372187737993323
aF-0.9172748127742575
aF0.8298350788789611
aa(lp55
F-0.27068628845322756
aF0.7556343980759032
aF0.6970572714940036
aF0.5734032446448497
aF0.7694325770437934
aF0.5247112314524209
aF-0.6750159437857848
aF0.3777309364557229
aF-0.5222418294942842
aF-0.6089757469784768
aF-0.1591889984317384
aF-0.7022983840162681
aF-0.9657781420424784
aF0.5463112117701797
aF-0.5208633953541936
aF-0.7774162571166531
aF-0.6167328000072124
aa(lp56
F-4.870255981608842
aF-1.2028069295379076
aF-1.4949484525586134
aF-1.1100346076080148
aF0.18262941438349897
aF-0.1965818398986381
aF0.016879898746023105
aF-0.4063897444694025
aF-0.0814624380573938
aF-0.46388692518021757
aF-0.3422425363277364
aF-0.3044099586958592
aF-1.103629274935949
aF-0.5159674133238242
aF0.3093345978473182
aF-0.7626257698124107
aF-0.5451502285689791
aa(lp57
F-2.6480454329128853
aF-0.7570666660998107
aF-1.599109788138136
aF-0.8708272438665295
aF-0.18965026744273286
aF-0.7579262342575577
aF0.04803427402474908
aF-0.2755326973370857
aF-0.584173704665137
aF-1.2903051352857955
aF-0.34750618666745586
aF-0.4537649523417599
aF-0.6981561714230221
aF0.11240329983758796
aF-0.5625567781269556
aF-0.7321599476707901
aF0.5009037934209556
aa(lp58
F-7.46276764901131
aF-3.0693308538705124
aF-1.5988856456485203
aF-0.970500929011636
aF-0.7929697778068961
aF-1.3314880822611523
aF-1.6659108896453647
aF-1.8040038130586196
aF-0.5228891031710984
aF-0.041205557944606536
aF0.08988544928893741
aF-0.7023721599671021
aF0.3707068661248846
aF-0.24667438120858085
aF-0.2397922094405323
aF-0.2839605188632506
aF-1.0616777361198013
aa(lp59
F-8.558416976948243
aF-2.1487743170229123
aF-1.8998044190952024
aF-1.8980782289906057
aF-1.6846785442595538
aF-0.47709329660991384
aF-1.3225990974714996
aF-0.7565150273606851
aF-0.4747298499446402
aF0.009175746757376974
aF-0.9031335611268715
aF-0.8190606292126612
aF0.15088821725489543
aF-0.1560079416164229
aF-0.4054787211003695
aF-0.9435772467187139
aF-0.013517613380370557
aa(lp60
F-7.646608713355163
aF-1.8337380976488467
aF-1.0071008084698116
aF-2.3745496868729217
aF-1.1684076422801137
aF-0.9675391908523739
aF0.13529833237059036
aF-0.8921869990308754
aF0.2614342323249042
aF-1.0945692240757579
aF-0.6197022165665865
aF-0.8443796168463883
aF-1.3650121033408793
aF0.11498954711443901
aF0.43552373725231813
aF-1.1099158399999534
aF-1.0847490993190192
aa(lp61
F-6.003558846238738
aF-2.4124846058555254
aF-0.8040652392529359
aF-1.4773390021044213
aF-1.127975565651079
aF-0.055368148040802034
aF-1.1184868297089987
aF-0.5977153556698441
aF-1.2530477045565944
aF0.3008487938334409
aF-1.4748450297023548
aF-0.5834824540544644
aF-0.5572148419999242
aF0.13281884851911346
aF-1.145607288216094
aF-1.1647257752501428
aF-0.9142995948882734
aa(lp62
F-6.442118824702705
aF-3.2296020906787293
aF-2.334817195115216
aF-0.8412090878725689
aF-1.2968399973724247
aF-1.5209620964052304
aF-0.45487709324622905
aF0.12459439970920921
aF-0.1986966230242753
aF0.2685239743447273
aF-0.06389182015091106
aF0.28827740127139007
aF-0.24432834419362492
aF-0.8367639740816392
aF-1.3561338165985959
aF-1.2717658403883476
aF-1.2298024919991255
aa(lp63
F-7.341391781223127
aF-3.3388167760725773
aF-2.388722907887871
aF-1.0770674583105686
aF-1.3036881917061616
aF-0.41194188568189816
aF-0.3017115302906229
aF-0.8226126560875017
aF-0.16851371236323887
aF-0.8984558622372435
aF-0.3416196216449038
aF0.3568399813630303
aF-0.7074051860587657
aF-0.9972975125246757
aF0.2388010953611551
aF-1.250191726822457
aF0.436158778527725
aa(lp64
F-6.653749858361883
aF-3.192445832415609
aF-2.093422298215202
aF-0.8105804873915982
aF-1.4318144086431572
aF-0.33328600484960347
aF0.31282884780029474
aF-0.8660615985361338
aF-0.6061086064201187
aF-1.358567285782665
aF-0.3458610039083192
aF0.022197439957180393
aF-0.3870652913866677
aF-1.272229561097958
aF0.2711960343010956
aF-0.31638361016776867
aF-0.17015873197836165
aa(lp65
F-6.35727844430232
aF-2.4898588724795303
aF-2.585442955700383
aF-1.9559940874788284
aF-0.7518072244033949
aF0.0015112405652131994
aF-0.16367650788824323
aF-0.7718986350840334
aF0.24425755068755817
aF-1.2582293995771126
aF-0.5681078011559797
aF-0.1558395754248289
aF-0.5121463933875925
aF-1.0650229912244455
aF-1.1714600114401659
aF-0.5488014685027334
aF-0.2862051520844421
aa(lp66
F-4.826670115331238
aF-2.3940981230156617
aF-2.4162318669370895
aF-1.9504297610293015
aF-0.47672955936560746
aF-0.8260001163498957
aF0.4546650103002102
aF-0.07884711987691004
aF-1.3546400919662138
aF-0.9141075261778177
aF0.2775003620655134
aF0.09369689723572723
aF-0.7620316205589514
aF-1.0709331801705055
aF0.376851813092968
aF-1.3357000760642848
aF-0.7791792949652593
aa(lp67
F-7.237912783305299
aF-1.6149859505827655
aF-2.0471692298153576
aF-2.666077927526064
aF-1.5103580201928166
aF-0.10473684313632277
aF-0.19706760173063237
aF-1.782341426131823
aF-0.37111528189900406
aF0.3475815960329177
aF-0.7736796360563775
aF-0.7140889462567518
aF-0.25851772847158416
aF-0.9331060556834482
aF-0.4429400190997217
aF0.08081563592022378
aF-0.6590753528662765
aa(lp68
F-6.129208591623634
aF-2.2139216760836624
aF-0.8408575920567903
aF-1.9253945668309527
aF-0.4841121819155999
aF-1.566705491287491
aF0.032609329318660764
aF0.07398956684331418
aF-1.5787936554113147
aF0.39581561291657597
aF-0.8452402391197535
aF-0.3984271213132854
aF-0.7023135019967323
aF-0.6879518288357046
aF-0.34563617228805676
aF-1.3311006949433588
aF-1.4533841404350392
aaa.