(lp0
(lp1
(lp2
I0
aI0
aI0
aI0
aI0
aI0
aI0
aI0
aI0
aI0
aI0
aI0
aI0
aI0
aI0
aI0
aI0
aa(lp3
I0
aI0
aI0
aI0
aI0
aI0
aI0
aI0
aI0
aI0
aI0
aI0
aI0
aI0
aI0
aI0
aI0
aa(lp4
I0
aI0
aI0
aI0
aI0
aI0
aI0
aI0
aI0
aI0
aI0
aI0
aI0
aI0
aI0
aI0
aI0
aa(lp5
I0
aI0
aI0
aI0
aI0
aI0
aI0
aI0
aI0
aI0
aI0
aI0
aI0
aI0
aI0
aI0
aI0
aa(lp6
I0
aI0
aI0
aI0
aI0
aI0
aI0
aI0
aI0
aI0
aI0
aI0
aI0
aI0
aI0
aI0
aI0
aa(lp7
I0
aI0
aI0
aI0
aI0
aI0
aI0
aI0
aI0
aI0
aI0
aI0
aI0
aI0
aI0
aI0
aI0
aa(lp8
I0
aI0
aI0
aI0
aI0
aI0
aI0
aI0
aI0
aI0
aI0
aI0
aI0
aI0
aI0
aI0
aI0
aa(lp9
I0
aI0
aI0
aI0
aI0
aI0
aI0
aI0
aI0
aI0
aI0
aI0
aI0
aI0
aI0
aI0
aI0
aa(lp10
I0
aI0
aI0
aI0
aI0
aI0
aI0
aI0
aI0
aI0
aI0
aI0
aI0
aI0
aI0
aI0
aI0
aa(lp11
I0
aI0
aI0
aI0
aI0
aI0
aI0
aI0
aI0
aI0
aI0
aI0
aI0
aI0
aI0
aI0
aI0
aa(lp12
I0
aI0
aI0
aI0
aI0
aI0
aI0
aI0
aI0
aI0
aI0
aI0
aI0
aI0
aI0
aI0
aI0
aa(lp13
I0
aI0
aI0
aI0
aI0
aI0
aI0
aI0
aI0
aI0
aI0
aI0
aI0
aI0
aI0
aI0
aI0
aa(lp14
I0
aI0
aI0
aI0
aI0
aI0
aI0
aI0
aI0
aI0
aI0
aI0
aI0
aI0
aI0
aI0
aI0
aa(lp15
I0
aI0
aI0
aI0
aI0
aI0
aI0
aI0
aI0
aI0
aI0
aI0
aI0
aI0
aI0
aI0
aI0
aa(lp16
I0
aI0
aI0
aI0
aI0
aI0
aI0
aI0
aI0
aI0
aI0
aI0
aI0
aI0
aI0
aI0
aI0
aa(lp17
I0
aI0
aI0
aI0
aI0
aI0
aI0
aI0
aI0
aI0
aI0
aI0
aI0
aI0
aI0
aI0
aI0
aaa(lp18
(lp19
F0.5818409242393086
aF1.097458207578533
aF1.115848857995146
aF0.8626464060645499
aF1.0017168642464125
aF-0.5889780185703407
aF0.05323903956903477
aF0.44189121487199035
aF0.22819965108270035
aF0.21009209056250616
aF-0.1295900516480968
aF0.29851155625252246
aF-0.22142075196531097
aF0.22776246247353446
aF0.8639287230175041
aF-0.3221271149846951
aF-0.8349463134228207
aa(lp20
F-1.1965080923642086
aF0.29652625969548413
aF0.28959302581450186
aF-0.6889204147841783
aF-0.8765680896907462
aF0.38621525286950237
aF0.929559129949899
aF-0.5503891207236481
aF-0.8308027292054396
aF-0.4302239001046718
aF-0.9289871851595922
aF-0.8145142999542602
aF-0.09644528885149908
aF0.5215069907228345
aF-0.5730713914531204
aF0.5405601538419648
aF0.5166851321498614
aa(lp21
F0.7713224620358826
aF-0.23110374913798326
aF0.7417158349025318
aF-0.3641349082432989
aF-0.8114559733283928
aF-0.46596566161929576
aF1.0591554102098046
aF-0.06525161570517043
aF-0.44913913542441636
aF-0.6418667514777671
aF1.0141832301364078
aF-0.7994472778425566
aF0.3195289462020658
aF-0.6040815536200518
aF-0.5773555719257359
aF1.0801574819669006
aF-0.04862083434219228
aa(lp22
F-1.7708784618834537
aF-0.20234003421012764
aF-0.14435160624880342
aF-0.5913134848205419
aF0.575964304447915
aF-0.14595548559266913
aF-0.3591644820127008
aF0.8235424040943043
aF0.8136156794010004
aF0.24207624258120758
aF-1.009528275533844
aF-0.13220752854079404
aF-0.8495610581283605
aF-0.37418109303200586
aF0.21395607531666921
aF-0.9072077321696028
aF-0.3739176970862132
aa(lp23
F1.443895033057194
aF1.2871141582599657
aF0.9965054393050902
aF-0.2172265000364203
aF0.9525558186259048
aF-0.17544724575749962
aF-0.7873533615543498
aF-0.6439997647572262
aF-0.13289146761708845
aF0.5092833106740121
aF-0.37530653270314185
aF0.38204583533586467
aF-0.5196357433152818
aF0.6001532397986744
aF-0.225800518503457
aF0.3997522147184231
aF-0.554239104336296
aa(lp24
F0.8027093141061034
aF0.3752178377198366
aF0.4772533708409942
aF1.1543934313225677
aF-0.43275338105326594
aF0.505260499242174
aF-0.36704559479629373
aF-0.2086098936111457
aF0.6331070120447602
aF-0.49668243270789497
aF-0.5348100401056342
aF0.9186141512854684
aF0.9269746431642082
aF-0.6875108019141797
aF-0.4274370115858943
aF0.7046720577201502
aF0.004562344282301739
aa(lp25
F1.476138961912189
aF0.15268406864716969
aF0.6316620525970013
aF-0.3794541392729427
aF1.0879919608303543
aF-0.7668372017231387
aF-0.44497398252775905
aF-0.3245030733890058
aF0.6130446427645873
aF0.135772370985624
aF-0.8360602071585094
aF-0.8200937982409103
aF0.4007396836684663
aF0.7025147111983451
aF0.9736020070432869
aF-0.4178400867211073
aF0.7950986892946847
aa(lp26
F0.8601221062659941
aF1.1446894021159328
aF0.08316494600802299
aF-0.773424453580335
aF0.9027958089909807
aF0.4069725089540096
aF-0.25945745678986387
aF-0.3259643812314762
aF0.208156580399681
aF0.35690630795713996
aF-0.18770983625726595
aF0.11185984678171211
aF0.18410757089395605
aF0.9077644083278704
aF-0.42755307499546863
aF-0.5750875844778051
aF0.35804709797561207
aa(lp27
F1.9000643546529294
aF1.048978477662071
aF0.7284351763372957
aF0.2725898797552442
aF-0.6580091608164635
aF-0.39364351851309703
aF-0.1862432803256887
aF0.0688576847117695
aF-0.6828417791947777
aF0.7573204408948829
aF-0.1932407746298759
aF0.2600600691421206
aF0.7967143297223748
aF-0.13969053269863024
aF0.41904286159782406
aF0.892611147327193
aF0.7723828069326285
aa(lp28
F0.8904392664464632
aF-0.24885862228403086
aF0.03180378701137628
aF0.06664136748767566
aF0.5488926030712479
aF-0.6246159155555799
aF-0.299036093782295
aF-0.767930464298147
aF0.8768678255991255
aF0.7110258024736301
aF0.21064080148386757
aF-0.837527955540353
aF0.14071405927267133
aF-0.6757507206406154
aF0.23808664495444112
aF0.2578546007418176
aF0.30395835075670097
aa(lp29
F1.215911573451773
aF0.2808595801551263
aF0.22538508243623576
aF0.16306040070785846
aF1.037928731672585
aF0.5286250029867767
aF-0.41158093459766665
aF0.4848885165421268
aF-0.3930631975870933
aF-0.037532602644467235
aF0.45955554514353897
aF-0.48898524045019187
aF0.29498993836986914
aF-0.7160022739204405
aF-0.675754047913735
aF1.0086340424409643
aF0.08540017641133178
aa(lp30
F1.7605312403047177
aF0.0942162774714255
aF0.5091389343617239
aF0.8817235993398592
aF0.4791839221852712
aF-0.23708320960936016
aF-0.22058344972900892
aF1.143994645162845
aF0.4220176794721438
aF0.007392226567608487
aF0.9174220549869798
aF0.5615124443792621
aF-0.05269545973698923
aF-0.5019392738602647
aF-0.2417212440015177
aF0.38081189574140595
aF0.07062655224081138
aa(lp31
F0.052808956101340024
aF-0.10287744075332882
aF0.1184215573335897
aF-0.4752727424699508
aF0.9467212688278664
aF-0.20016966646714937
aF0.9818229245277008
aF0.89471217347992
aF-0.37510704716341525
aF-0.33460261401244235
aF0.6994766797057539
aF0.5899253969739995
aF-0.06152358935041598
aF-0.22597429144514283
aF-0.630961305439503
aF0.40884426993722567
aF-0.8077935840932363
aa(lp32
F1.3584166793449721
aF0.18890761619545532
aF0.44387025913820105
aF-0.2908948585852415
aF0.7450949134075148
aF0.1609837767195136
aF0.7232196179320823
aF0.9921652673826815
aF-0.28927697482073106
aF0.891225063052274
aF-0.7401179138974645
aF-0.1931712443557726
aF1.0918456734103077
aF0.5350842450137749
aF-0.001160255575154629
aF0.7322468889455318
aF-0.07033034381028541
aa(lp33
F-0.1728891397096883
aF0.22804741754476404
aF-1.088802124461947
aF-1.0708076823493904
aF-0.8123513943019789
aF0.16195853712040487
aF-0.3054080202633426
aF-0.7729796346947042
aF-0.5429931459626428
aF0.635897965190049
aF-0.34578491971009184
aF-0.5953046422651592
aF-0.8439682058895986
aF0.3355252165733298
aF-0.9378405898633322
aF-0.08718193108077749
aF0.5112949757946685
aa(lp34
F1.2971793638895246
aF1.3679462525045636
aF0.4082291536116265
aF1.0957016976510578
aF-0.380672851060512
aF0.9691519971472726
aF0.9116597194909348
aF-0.37951752956466744
aF-0.7402741290306271
aF-0.2310286834110343
aF-0.46302532251740464
aF-0.5919975518837876
aF-0.07304630471681167
aF0.4843716191273568
aF-0.5919560196008082
aF-0.038124879629470525
aF0.3995308947545073
aaa(lp35
(lp36
F2.2774147393633712
aF0.9059339028084341
aF0.05945432993627386
aF0.3687035933977372
aF-0.11510349882058399
aF1.0269628589781123
aF0.2718215640735334
aF-0.6133599011506944
aF0.6602675031549873
aF0.7767886837286527
aF0.12711267552619543
aF1.0631375203902107
aF1.050031737600921
aF0.8492365915393717
aF0.6143191885329916
aF-0.7263858093624245
aF0.8896157098045208
aa(lp37
F3.791548506474877
aF0.6837474361423916
aF0.6304809794636888
aF0.458880887876841
aF-0.45702752726981677
aF0.7005922962829954
aF0.8321144441024587
aF1.3359996502830556
aF0.4980307097263461
aF1.1269820466893317
aF-0.5887475682761503
aF-0.3815054102328017
aF0.929039568619987
aF-0.1376438766160765
aF0.6666589125208826
aF0.35504546253466346
aF0.7958147071285244
aa(lp38
F1.8908143772151353
aF0.3354274666529521
aF-0.3011975676693168
aF1.2943864648420806
aF-0.253702131100627
aF0.20945009018506264
aF-0.40231396889954313
aF0.8676564173197481
aF-0.47850618976052556
aF-0.553544682808238
aF0.5549922573284936
aF0.5494115787060603
aF0.719338739892919
aF-0.4887559212392514
aF0.9151277645367059
aF-0.3007290311799754
aF0.06460519136202476
aa(lp39
F2.4723412917258534
aF1.524722995931504
aF-0.10768901522040751
aF0.8003174969916775
aF-0.19204091545806848
aF0.3404823565314527
aF0.03260094112339864
aF0.1573900215801686
aF0.9814078155205311
aF1.017969773656766
aF0.7862246621428062
aF0.8471035126422118
aF0.6507717541885507
aF0.6711425311448964
aF0.18960843877133843
aF0.6391598451590491
aF-0.5609195138731088
aa(lp40
F3.1006472217326086
aF-0.0715550236526718
aF-0.061013280417053464
aF-0.012855517789865116
aF0.8741668485829915
aF0.3965565788095853
aF0.28439992991309326
aF-0.29218072775707116
aF-0.0900869091036101
aF-0.5557114566171159
aF0.9340417152959201
aF0.3609896909487677
aF1.1206922809947328
aF-0.7356540212510804
aF-0.4760030597811105
aF0.08672009707642876
aF0.8976657879221129
aa(lp41
F1.1302637694336166
aF-0.5255837952223249
aF-0.7451993643352149
aF0.4510690337551015
aF-0.7919253182032008
aF0.7377087838415324
aF0.8214870400412057
aF-0.3559745172493138
aF0.8313275091498435
aF-0.2218533058858529
aF-0.6588456054348649
aF-0.7922496273676407
aF-0.6965888288891686
aF0.12020739014578832
aF-0.5362125378536265
aF-0.15875664606113707
aF0.32455133033124367
aa(lp42
F2.4702252268835956
aF0.7873829499496563
aF-0.32582485483033047
aF1.1536293329991485
aF0.001007694581892517
aF0.9165003477017901
aF0.09512895473862168
aF-0.18591300571320019
aF-0.15384988922659676
aF1.1022863221872445
aF-0.6855311790357689
aF-0.03003081405125881
aF1.1773293352935075
aF0.23462947931810815
aF1.0041906518896784
aF-0.30093824548630865
aF0.4889418008384322
aa(lp43
F0.8653492617634473
aF1.140238353858926
aF0.6956154703348215
aF0.20781987030891202
aF0.12883771711761247
aF0.9063299414565834
aF0.15405950707615046
aF0.6222284876097627
aF0.026042521552049846
aF-0.09586430400523303
aF0.29780407386754976
aF0.003443794727234429
aF0.4500391021064209
aF0.4578193837997135
aF-0.6874936716792075
aF0.7472432075586706
aF0.657106915157121
aa(lp44
F0.7056151908004935
aF-0.3489545552907362
aF-0.5419862203240992
aF1.2590794367421285
aF-0.7399416050301152
aF-0.014436684862891085
aF-0.9814709274221275
aF0.16566317321645166
aF0.6407825579754417
aF0.9792343501068569
aF0.5492544933928502
aF0.8571366928586371
aF-0.2867867448027641
aF0.557662511419023
aF0.8608601425761848
aF-0.848734663837469
aF0.34817798739801786
aa(lp45
F0.4513761455252229
aF0.24205226583267522
aF0.9183504201788567
aF0.7396847523323831
aF-0.0681320492194509
aF-0.036408691838923334
aF0.8909648009045912
aF0.09217559200853141
aF1.0604108830133612
aF-0.11883727218734405
aF0.22965039424996883
aF-0.07583024731929622
aF1.0810398551773341
aF-0.16972688096649416
aF0.46608909605342097
aF0.07459050296841371
aF-0.004190656827952947
aa(lp46
F0.04434251035825352
aF0.4431858555455019
aF0.7138026239726164
aF0.2957202933249233
aF-0.7142681474591235
aF-0.5079983557775753
aF0.9307645887859964
aF-0.6148956365476683
aF0.7558240701451395
aF-0.31099308792947555
aF1.0324982517466346
aF0.9349621937968772
aF-0.6637074907708777
aF0.5342644753195416
aF-0.7008871970556181
aF-0.5846911682602269
aF1.0073496451150858
aa(lp47
F2.363709711623772
aF0.6057242500527987
aF-0.6165030001136925
aF-0.18166406952572858
aF0.8086652091228244
aF-0.8285862211795024
aF0.45821195451843905
aF0.2806757099258572
aF-0.07366246705444283
aF-0.3336526226827277
aF0.3357647325055483
aF0.24198284922876295
aF0.504015533680712
aF-0.43050696874098854
aF-0.1900599382388274
aF-0.30788686489546396
aF-0.3155304421088697
aa(lp48
F2.5430822671992237
aF0.27367396829448615
aF0.15406822896492162
aF0.37841469283342366
aF-0.16772939671112008
aF-0.10124202176072504
aF0.9022339985529416
aF-0.21014811161244762
aF-0.12739706089043046
aF0.015474221767618205
aF-0.6308449719530056
aF-0.2470631179202177
aF-0.4309719120553869
aF1.0490434509345008
aF0.4317787181731344
aF0.3005698567833955
aF0.9612285289864918
aa(lp49
F1.3043212578357692
aF-0.6387558135376721
aF0.9787985736418863
aF-0.2630277991979906
aF-0.12785705787385276
aF-0.7944789808068237
aF-0.9277906830886523
aF0.49662136440364363
aF-0.4698590170561714
aF0.07867093613449654
aF0.7697874699702444
aF0.057218037512053704
aF0.847350332719597
aF-0.9159028610381318
aF0.11224433293076025
aF0.7790824806618531
aF-0.6066893129970131
aa(lp50
F2.6789212844624504
aF1.7054523618660067
aF1.0507227403793724
aF1.4760819973885597
aF-0.22232980659693513
aF0.796033172466523
aF0.9940510095693382
aF1.3469990270149192
aF0.09740231203347481
aF0.9291698381957646
aF0.5085368555210057
aF0.012028755622208027
aF-0.20839952127182867
aF-0.5146390345364269
aF1.1773887177572644
aF-0.21633057732616326
aF0.9694169868331841
aa(lp51
F1.0176365007635166
aF1.199020553504374
aF1.1098659591020732
aF-0.35967407803829654
aF0.33494183650614984
aF-0.809447574372704
aF-0.11188231333054889
aF0.9984584561218415
aF-0.2431372664436468
aF0.6123073574743558
aF0.7635481170640777
aF0.6043543786584005
aF0.15890472955889928
aF0.10826950613031694
aF0.8204532142603991
aF-0.6291883463015691
aF-0.38629074649056505
aaa(lp52
(lp53
F0.8787125437235799
aF-0.4816284261411153
aF0.8678948544965819
aF-0.3310712731761896
aF0.8497458667423456
aF-0.27644127743023506
aF-0.9635319573051822
aF0.8387429013223928
aF-0.21249965422656258
aF0.8225105323048691
aF-0.2845556732466295
aF0.24433623317352787
aF-0.7686701701021836
aF-0.23737698976606308
aF-0.5524445014787926
aF-0.7712372435318522
aF-0.47736731871425514
aa(lp54
F0.9650727026012039
aF0.20138600969321618
aF0.19711073947714114
aF-0.5154334680112914
aF0.23646545549178996
aF-1.1316554850529223
aF-1.1344705712356815
aF-0.6662095142102357
aF0.690776953396288
aF0.8224507351079168
aF0.8923920020202025
aF-0.7715829464546898
aF0.4654062594314587
aF-1.0540954048386433
aF-0.46179676794501184
aF-0.9458351466111605
aF0.8020009898849424
aa(lp55
F-0.9125220236423414
aF0.3889189252259655
aF0.5127412504376953
aF0.5207729498706538
aF0.7278005483288504
aF0.4834460864196253
aF-0.7054373155797826
aF0.3470957286981673
aF-0.5511021100750924
aF-0.639334034543648
aF-0.18888334709936946
aF-0.7329557685869816
aF-0.9971345662107287
aF0.5166396585681076
aF-0.549780012812671
aF-0.8070539950922898
aF-0.6455095513978137
aa(lp56
F-3.9426748736078205
aF-0.868959971189882
aF-1.2694323447220062
aF-0.8644957392607241
aF0.24282720337477776
aF-0.13684350069201315
aF0.061064866248625144
aF-0.36186302835144707
aF-0.039495198714598855
aF-0.4196699467506768
aF-0.29908676523473327
aF-0.25984988024891315
aF-1.058055913160321
aF-0.4728048789569208
aF0.3513153739749107
aF-0.7195712693210072
aF-0.5033492064375272
aa(lp57
F-1.782323886802551
aF-0.43563455836688525
aF-1.3897408621252352
aF-0.6442964225800691
aF-0.13326751261898503
aF-0.7015512251271334
aF0.08996894864999744
aF-0.23327154359010754
aF-0.5445181322539768
aF-1.24829754802077
aF-0.30655953575962686
aF-0.4115703956636443
aF-0.655013910372569
aF0.15333054160275583
aF-0.5229130171588025
aF-0.6913866993417566
aF0.5404518535597919
aa(lp58
F-4.283365429455003
aF-1.8855589931194248
aF-0.8188838866781566
aF-0.1269803723577693
aF-0.5889929799929899
aF-1.1288144323429388
aF-1.5176211887394784
aF-1.6545835648336236
aF-0.38135703725415415
aF0.10702131659162616
aF0.23484860992503667
aF-0.5524693529054243
aF0.5240643609850201
aF-0.1016074517522966
aF-0.09806272608584242
aF-0.13906228550936256
aF-0.9208369193251444
aa(lp59
F-5.331822455997405
aF-0.9474319116471593
aF-1.1082305926987233
aF-1.0420412034506799
aF-1.4776684583989517
aF-0.27140256608618357
aF-1.1720973601398719
aF-0.604865402193069
aF-0.33108811047884534
aF0.15961549645433565
aF-0.7560062476812144
aF-0.6669223013617052
aF0.3065331018578926
aF-0.008775537135832491
aF-0.2616366774152162
aF-0.796517365119914
aF0.12942384876956406
aa(lp60
F-4.7045796491344705
aF-0.7383137701150635
aF-0.2852768643367689
aF-1.5938167817940314
aF-0.9805265992100343
aF-0.7810434403647233
aF0.27091934259344913
aF-0.7555339364794892
aF0.3912709555536996
aF-0.9590889077948077
aF-0.48705655527486047
aF-0.7070662230264565
aF-1.224500711081537
aF0.24778378156162081
aF0.5656146990032158
aF-0.9771701817280716
aF-0.9556333390669105
aa(lp61
F-2.8344676524385632
aF-1.2325549206547823
aF-0.02662535581903348
aF-0.6366007589029845
aF-0.9244676940844908
aF0.14688856066903913
aF-0.9703182844498257
aF-0.4484153606574702
aF-1.111717628594379
aF0.44897728821644445
aF-1.330007735945995
aF-0.43374871621425937
aF-0.4040359804708967
aF0.27774788022661834
aF-1.004094716974635
aF-1.0199912504992676
aF-0.773637280223389
aa(lp62
F-3.394068574622567
aF-2.094758895050489
aF-1.5870611249174238
aF-0.03250914852169288
aF-1.1014516417944422
aF-1.3268341477960857
aF-0.3129846600538456
aF0.26757025013470775
aF-0.06320179756405495
aF0.41034931650581724
aF0.07484637136382717
aF0.4317517461015235
aF-0.0975378961036106
aF-0.697918744447326
aF-1.2204314135561585
aF-1.1330689143634205
aF-1.094974736805281
aa(lp63
F-4.072625881163394
aF-2.1217556251527454
aF-1.5867693278188644
aF-0.20973143505518158
aF-1.0944796922997853
aF-0.2041760647660118
aF-0.1501778688366164
aF-0.6699245201416508
aF-0.023655357731970396
aF-0.7470338992281936
aF-0.19344515918962898
aF0.510148459700091
aF-0.5505437352626961
aF-0.8489858024081784
aF0.38390414617132107
aF-1.1019915028217322
aF0.580259698594697
aa(lp64
F-3.2328734618974377
aF-1.9187627006573993
aF-1.2541515674013013
aF0.0971314689068386
aF-1.212952757287642
aF-0.11594628635373697
aF0.47126822914445254
aF-0.7064148111861133
aF-0.4546116395631514
aF-1.20025072119383
aF-0.1909236422649702
aF0.1825131554523143
aF-0.2230301206143514
aF-1.117143990651884
aF0.42295710846477613
aF-0.16140592370441018
aF-0.01945981210497282
aa(lp65
F-3.2999359187155255
aF-1.351549989911529
aF-1.8353979225675514
aF-1.1448032451731807
aF-0.5559393491401692
aF0.19608848165359818
aF-0.021569479113020304
aF-0.6287068163271645
aF0.3800120279269838
aF-1.1162012936155254
aF-0.4291519590257116
aF-0.012118183199777038
aF-0.365098847300893
aF-0.9259522896211997
aF-1.0354882574432154
aF-0.40986445133819016
aF-0.15113196467198456
aa(lp66
F-1.86831747398467
aF-1.2926111504592919
aF-1.6903987295536458
aF-1.1653288057743596
aF-0.2879737180216613
aF-0.6386637865726482
aF0.5907425486903253
aF0.05826581906596829
aF-1.2242931876885075
aF-0.7781851692234905
aF0.4106104642292771
aF0.23151261854874441
aF-0.6209988301438236
aF-0.9376648680257411
aF0.507470166166279
aF-1.2024621317903947
aF-0.6495686921557094
aa(lp67
F-4.176916203148976
aF-0.47530536830755316
aF-1.296200191734935
aF-1.8538632930154824
aF-1.3144922120764773
aF0.08978194473538784
aF-0.05523082180530785
aF-1.6394233009175023
aF-0.2355109541044334
aF0.48931400894265725
aF-0.634974835821501
aF-0.5705820917289961
aF-0.11168169986630185
aF-0.794271714768696
aF-0.3070999127147266
aF0.21954725577862558
aF-0.524177855077992
aa(lp68
F-3.224446115774603
aF-1.1323990200687741
aF-0.12820437164499818
aF-1.1545941283726275
aF-0.2984312461392336
aF-1.3823421945712295
aF0.16686036584428737
aF0.20926357884165303
aF-1.4503557146866426
aF0.5299494246380486
aF-0.7139396625706341
aF-0.2625482710987077
aF-0.56327533643961
aF-0.5565169774141286
aF-0.21695915131550791
aF-1.1997398841267313
aF-1.3256347670252013
aaa.