(lp0
(lp1
(lp2
I0
aI0
aI0
aI0
aI0
aI0
aI0
aI0
aI0
aI0
aI0
aI0
aI0
aI0
aI0
aI0
aI0
aa(lp3
I0
aI0
aI0
aI0
aI0
aI0
aI0
aI0
aI0
aI0
aI0
aI0
aI0
aI0
aI0
aI0
aI0
aa(lp4
I0
aI0
aI0
aI0
aI0
aI0
aI0
aI0
aI0
aI0
aI0
aI0
aI0
aI0
aI0
aI0
aI0
aa(lp5
I0
aI0
aI0
aI0
aI0
aI0
aI0
aI0
aI0
aI0
aI0
aI0
aI0
aI0
aI0
aI0
aI0
aa(lp6
I0
aI0
aI0
aI0
aI0
aI0
aI0
aI0
aI0
aI0
aI0
aI0
aI0
aI0
aI0
aI0
aI0
aa(lp7
I0
aI0
aI0
aI0
aI0
aI0
aI0
aI0
aI0
aI0
aI0
aI0
aI0
aI0
aI0
aI0
aI0
aa(lp8
I0
aI0
aI0
aI0
aI0
aI0
aI0
aI0
aI0
aI0
aI0
aI0
aI0
aI0
aI0
aI0
aI0
aa(lp9
I0
aI0
aI0
aI0
aI0
aI0
aI0
aI0
aI0
aI0
aI0
aI0
aI0
aI0
aI0
aI0
aI0
aa(lp10
I0
aI0
aI0
aI0
aI0
aI0
aI0
aI0
aI0
aI0
aI0
aI0
aI0
aI0
aI0
aI0
aI0
aa(lp11
I0
aI0
aI0
aI0
aI0
aI0
aI0
aI0
aI0
aI0
aI0
aI0
aI0
aI0
aI0
aI0
aI0
aa(lp12
I0
aI0
aI0
aI0
aI0
aI0
aI0
aI0
aI0
aI0
aI0
aI0
aI0
aI0
aI0
aI0
aI0
aa(lp13
I0
aI0
aI0
aI0
aI0
aI0
aI0
aI0
aI0
aI0
aI0
aI0
aI0
aI0
aI0
aI0
aI0
aa(lp14
I0
aI0
aI0
aI0
aI0
aI0
aI0
aI0
aI0
aI0
aI0
aI0
aI0
aI0
aI0
aI0
aI0
aa(lp15
I0
aI0
aI0
aI0
aI0
aI0
aI0
aI0
aI0
aI0
aI0
aI0
aI0
aI0
aI0
aI0
aI0
aa(lp16
I0
aI0
aI0
aI0
aI0
aI0
aI0
aI0
aI0
aI0
aI0
aI0
aI0
aI0
aI0
aI0
aI0
aa(lp17
I0
aI0
aI0
aI0
aI0
aI0
aI0
aI0
aI0
aI0
aI0
aI0
aI0
aI0
aI0
aI0
aI0
aaa(lp18
(lp19
F1.291698346404455
aF1.3622545696511867
aF1.2896728051560309
aF1.0505165093567712
aF1.0510995155681302
aF-0.5393334637093283
aF0.09311304642337957
aF0.4820593080102047
aF0.26457751748141484
aF0.2502327144375569
aF-0.09107324204259315
aF0.33789413353762976
aF-0.18130944305490568
aF0.266097281702338
aF0.8999812526461615
aF-0.284236077428278
aF-0.7984816311416207
aa(lp20
F-0.8619076085922236
aF0.4211932841506202
aF0.3714567266252872
aF-0.6001218616472568
aF-0.8534255479278362
aF0.40948247081490874
aF0.9481753037317223
aF-0.5316388084098994
aF-0.813798042672621
aF-0.4114931754981421
aF-0.9109892602113834
aF-0.7961184127473833
aF-0.0777049703046911
aF0.5394186575347749
aF-0.55620201701456
aF0.5582719828522529
aF0.5337359278963024
aa(lp21
F1.9895160495905515
aF0.2200101630672571
aF1.0419720366510465
aF-0.04261169596797057
aF-0.7267448786655776
aF-0.38079784532884947
aF1.1275600037818225
aF0.0036540486081377793
aF-0.38674293414576344
aF-0.5730164002542625
aF1.080255586082923
aF-0.7318939789376516
aF0.3883340124652925
aF-0.5383241704057794
aF-0.5155105591231207
aF1.1451570707625924
aF0.013929522435149925
aa(lp22
F-1.8241244353991517
aF-0.21958791470724065
aF-0.15825074841911982
aF-0.6055814924677425
aF0.5722510205036931
aF-0.1496912260831229
aF-0.3621745322129187
aF0.8205105402040705
aF0.8108753861173013
aF0.23904815472622107
aF-1.0124321465404498
aF-0.13517678721933543
aF-0.8525855137836574
aF-0.3770710737276859
aF0.21124095807891835
aF-0.9100641691211061
aF-0.37666487044867347
aa(lp23
F1.8944274497988076
aF1.4537293700226248
aF1.1086480986318847
aF-0.09971996874114605
aF0.9839173094291123
aF-0.14391531450431305
aF-0.7620071179348948
aF-0.6184680686863198
aF-0.10978208986036295
aF0.5347926850009984
aF-0.35083100366468556
aF0.40707053658624504
aF-0.49414783951509844
aF0.6245112254534616
aF-0.20289802879651445
aF0.4238288607731234
aF-0.5310722226903889
aa(lp24
F1.2029612020976568
aF0.5258626265731356
aF0.5759643504141642
aF1.2593636343281955
aF-0.40488190896171566
aF0.5332808406975067
aF-0.344510724652789
aF-0.1859089014190631
aF0.6536557304345245
aF-0.4739969948769742
aF-0.5130485035727035
aF0.9408653515725844
aF0.9496360474832449
aF-0.6658530821668496
aF-0.4070759511980991
aF0.7260777146850481
aF0.02516008491562894
aa(lp25
F1.9506387288702065
aF0.33090710646664623
aF0.7470201992374592
aF-0.2534234270985505
aF1.1210696659820107
aF-0.7335847044362249
aF-0.4182353116971713
aF-0.2975646282524512
aF0.6374338171817725
aF0.16269856322393447
aF-0.8102366893245051
aF-0.7936855662436254
aF0.4276341410344238
aF0.7282177527116205
aF0.9977634442469119
aF-0.39243920492090556
aF0.8195417988020314
aa(lp26
F1.194120704368737
aF1.2679761729486463
aF0.16515556144250537
aF-0.6845765416522985
aF0.9260290211419108
aF0.43033082229034403
aF-0.2406952755319283
aF-0.307063884913977
aF0.2252730626174441
aF0.375793573669998
aF-0.16958684157840928
aF0.13039026788660596
aF0.2029810508147438
aF0.9258019633799053
aF-0.41058969402151685
aF-0.5572588591749551
aF0.3752043489668096
aa(lp27
F2.2352422440802275
aF1.1712158282871146
aF0.8107991141269312
aF0.36186043287061836
aF-0.6346796504052288
aF-0.3701896478368357
aF-0.16740492114145658
aF0.0878351639550514
aF-0.6656568745443449
aF0.7762844679493921
aF-0.17504512824376414
aF0.27866544044385805
aF0.8156645422820794
aF-0.12158027520139096
aF0.436073481378109
aF0.9105114297003999
aF0.7896082725034057
aa(lp28
F1.4005370251617568
aF-0.05862782989333982
aF0.15616339297339535
aF0.2025023348118951
aF0.5844374894863714
aF-0.5888788379074088
aF-0.27030251702214464
aF-0.7389827521503648
aF0.9030761670443779
aF0.7399590044619585
aF0.23839090385958
aF-0.8091502508128188
aF0.16961474228907233
aF-0.648130259249026
aF0.26405173090573814
aF0.28515105041645333
aF0.3302253691520322
aa(lp29
F1.6677465133717433
aF0.44750357776642696
aF0.33601339253605117
aF0.28323567574324227
aF1.0694246465311759
aF0.5602888851153628
aF-0.3861219162902647
aF0.5105370650756484
aF-0.3698442391335357
aF-0.01189835389314329
aF0.4841415348206108
aF-0.4638430518059408
aF0.3205960888027543
aF-0.6915311459649875
aF-0.6527503619839253
aF1.032818333534896
aF0.10867143838312959
aa(lp30
F2.3399480873522713
aF0.3112099397719383
aF0.651171944664305
aF1.0343259295152498
aF0.5195822645383652
aF-0.19646882788355138
aF-0.18791560630576704
aF1.1769053959623188
aF0.4518064081700726
aF0.04028442105948726
aF0.9489673487340395
aF0.593770969705259
aF-0.019842713440196436
aF-0.47054256462546235
aF-0.21220990488909547
aF0.41184034785402435
aF0.10048308525719116
aa(lp31
F0.19801297438316554
aF-0.051823741219987306
aF0.15464623950305742
aF-0.43658104989653945
aF0.9567941329079975
aF-0.19004419981638346
aF0.9899375231516592
aF0.9028853485831976
aF-0.3677018452330167
aF-0.3264388645379912
aF0.7073170564755289
aF0.5979402223686893
aF-0.053358526801475875
aF-0.21817127017780424
aF-0.623617215142116
aF0.4165593581826432
aF-0.8003687080169263
aa(lp32
F1.7301122317176676
aF0.3267418737523381
aF0.535126207992234
aF-0.19271004051683546
aF0.7709975652873023
aF0.18702354242476557
aF0.7441550163972604
aF1.013255935930187
aF-0.27018453640750606
aF0.9123025906218906
aF-0.7199004120702515
aF-0.17249725730906332
aF1.1129013441325726
aF0.5552065928344837
aF0.01775658768118817
aF0.7521341832149718
aF-0.051193826703603736
aa(lp33
F-0.23486322207810473
aF0.2053532827578288
aF-1.1037549787037564
aF-1.0876949592394578
aF-0.8166913161134868
aF0.15759668447585046
aF-0.30892488971945314
aF-0.7765234804680434
aF-0.5461992719918374
aF0.6323541872798718
aF-0.3491796924945179
aF-0.5987775628521088
aF-0.8475045409028585
aF0.33214570055560194
aF-0.9410140748113731
aF-0.09052041551818857
aF0.5080830322840395
aa(lp34
F1.852288749424533
aF1.573094062149074
aF0.5460138837666086
aF1.241324767358142
aF-0.3419899034052698
aF1.0080448477255466
aF0.9429466519774392
aF-0.34800001117004653
aF-0.7117520863885581
aF-0.19953459440083718
aF-0.4328169706884403
aF-0.5611085446995417
aF-0.04158720424567103
aF0.5144360636895495
aF-0.5636959408943975
aF-0.00841084923554107
aF0.4281209166899861
aaa(lp35
(lp36
F3.1646946882067404
aF1.2395589224432486
aF0.2768995452896635
aF0.6021454319539122
aF-0.05331962461593604
aF1.0890749775148485
aF0.3217451976913468
aF-0.5630670869942224
aF0.7058021970506556
aF0.8270493352647246
aF0.17532938417851063
aF1.112440209999866
aF1.1002444553036932
aF0.8972249812714145
aF0.6594394392484351
aF-0.678955928277323
aF0.9352575805698822
aa(lp37
F4.552035681484832
aF0.9635356100022935
aF0.817877507640139
aF0.659870930525109
aF-0.40407366925707267
aF0.7538297454833778
aF0.8748946220333397
aF1.3790955228158026
aF0.537047955026933
aF1.1700468883085704
aF-0.5474314967688626
aF-0.3392589624177235
aF0.9720678233544943
aF-0.0965229261792624
aF0.7053234230676168
aF0.39568896470245446
aF0.8349245635289677
aa(lp38
F2.860859842386095
aF0.6996949960956794
aF-0.0621190166386848
aF1.5481303979131815
aF-0.18606210208701335
aF0.2774519389049062
aF-0.347599344558181
aF0.9227765819887253
aF-0.42862386552459536
aF-0.49845900926178144
aF0.6078215006747265
aF0.6034339711140017
aF0.7743558260154477
aF-0.4361774624504619
aF0.964545706293914
aF-0.24876653595038073
aF0.11460319143248762
aa(lp39
F3.0648727839807393
aF1.7425805263264205
aF0.03856206652375924
aF0.956661238403466
aF-0.15074969812486042
aF0.3819958956150866
aF0.06597967650814442
aF0.1910156261174364
aF1.0118438743860303
aF1.0515721257712491
aF0.8184564346431005
aF0.8800624912469566
aF0.6843397507855651
aF0.7032221253976046
aF0.21976539299459222
aF0.670865296318151
aF-0.5304121995304721
aa(lp40
F3.805093659477092
aF0.1922784404042618
aF0.11467417833458599
aF0.16947954436237755
aF0.9232793998164136
aF0.4459405410645011
aF0.3241495701783469
aF-0.2521388182950104
aF-0.053861604944950583
aF-0.5157009176885567
aF0.9724148374080149
aF0.40022694184110175
aF1.1606523091492202
aF-0.6974657298795897
aF-0.44011277214417327
aF0.12446286375760023
aF0.9339788087277409
aa(lp41
F1.612865885673824
aF-0.33843560597099065
aF-0.62592641655599
aF0.5767841829886312
aF-0.7584182903142926
aF0.7714012432665064
aF0.8485697676189424
aF-0.3286947168718973
aF0.8560297938198654
aF-0.19459537024629006
aF-0.6326860086075886
aF-0.765506686918465
aF-0.6693531522346365
aF0.1462395555383366
aF-0.5117279685930685
aF-0.13302348113596596
aF0.3493166767522854
aa(lp42
F2.9509503829022186
aF0.9610508248474203
aF-0.2059270990375827
aF1.2804379701586603
aF0.03449384189163135
aF0.9501680519796506
aF0.12219937353182335
aF-0.15864373292477263
aF-0.12917049745767456
aF1.1295327007862683
aF-0.6593931424832677
aF-0.003304498865596635
aF1.2045505822884013
aF0.2606433064464018
aF1.028646456261376
aF-0.27522623402034996
aF0.5136809079952854
aa(lp43
F1.2509813485733177
aF1.2854231340738853
aF0.7886259214297406
aF0.31113157449439444
aF0.15570965024416938
aF0.93334572795899
aF0.17577483283700693
aF0.6441066525463511
aF0.045855456806751106
aF-0.07399411065861516
aF0.31877929058151727
aF0.024894321292996582
aF0.4718845387428149
aF0.4786975640936612
aF-0.6678656955830633
aF0.7678756352337776
aF0.6769626861998075
aa(lp44
F1.0376892398202342
aF-0.23230324075360675
aF-0.4613672155403659
aF1.3504392668626337
aF-0.7168086402976179
aF0.008822206740309686
aF-0.9627966149123763
aF0.1844775266688824
aF0.657824612724125
aF0.9980397948642745
aF0.5672936430709001
aF0.8755852402994141
aF-0.26799591245914883
aF0.5756201182523153
aF0.8777457404150586
aF-0.8309875667527897
aF0.36525639739048926
aa(lp45
F0.8089254897708339
aF0.3784407325810692
aF1.004300169098168
aF0.8348644813685794
aF-0.043204574708507436
aF-0.011351303193660822
aF0.9111096700636875
aF0.112471851627509
aF1.0787905275659495
aF-0.09854745988337626
aF0.2491084458934734
aF-0.05593084954380042
aF1.1013050782176619
aF-0.15035897198532838
aF0.48429600412720336
aF0.09372992065200021
aF0.014228389794955328
aa(lp46
F0.2816507037947275
aF0.5246420127419008
aF0.7736481530212515
aF0.36008082438375116
aF-0.6977728065360734
aF-0.49140830190003754
aF0.9440957189518607
aF-0.6014673759048553
aF0.7679798736240744
aF-0.29757811569407466
aF1.045371406382564
aF0.9481239697560566
aF-0.6503008055832467
aF0.54707683286499
aF-0.6888385651018974
aF-0.5720261476870251
aF1.0195355754000692
aa(lp47
F3.0370262305033755
aF0.8660430993626704
aF-0.45638264445267335
aF-0.0005139478605727804
aF0.8556309645592399
aF-0.7813790341758292
aF0.49618793444852066
aF0.3189397911331517
aF-0.039009306519113315
aF-0.29539182385828894
aF0.37244689444618306
aF0.27950035329042183
aF0.5422195579703293
aF-0.3939928036368276
aF-0.15574055895052044
aF-0.27180770733041343
aF-0.2808078117107946
aa(lp48
F3.1723636325090148
aF0.5093689901056492
aF0.3109987016648018
aF0.5413717730206494
aF-0.12387371812332484
aF-0.0571514142154559
aF0.9377163444539981
aF-0.1744053515614232
aF-0.09505764412291273
aF0.0511881281687822
aF-0.5965891131105632
aF-0.212036793153672
aF-0.39529989239210156
aF1.0831340950120745
aF0.4638214303775769
aF0.3342638599294513
aF0.9936470305953733
aa(lp49
F1.6451176880509648
aF-0.5084341117109694
aF1.0621419586456824
aF-0.17302555366682934
aF-0.10418221305088217
aF-0.7706682288975509
aF-0.9086639028614917
aF0.5158886729696669
aF-0.45240812051938
aF0.09792538695489945
aF0.7882645056630536
aF0.07610895163897143
aF0.8665898247381504
aF-0.8975140343720232
aF0.12953999527392937
aF0.7972589189024066
aF-0.5891959711198826
aa(lp50
F3.055745394436286
aF1.8469551717421409
aF1.1433589229439227
aF1.575485459650613
aF-0.1960676286048982
aF0.8224373920614971
aF1.0152961420586786
aF1.368401786448389
aF0.1167736880305153
aF0.9505603039252781
aF0.5290512313712828
aF0.033006412158510606
aF-0.1870359001241969
aF-0.49422169546201195
aF1.1965796604601495
aF-0.19615260961344277
aF0.9888327967792123
aa(lp51
F1.4935775687279722
aF1.3800903574414956
aF1.2243995712912226
aF-0.23243567840193652
aF0.36811048457791157
aF-0.7761091853927661
aF-0.08507747071656228
aF1.0254644769167216
aF-0.2186803375395672
aF0.6393046165162451
aF0.7894396473155031
aF0.6308326830926189
aF0.1858697946746018
aF0.13404102391852807
aF0.8446809748806121
aF-0.6037205287668947
aF-0.361781172932972
aaa(lp52
(lp53
F1.0417351677048736
aF-0.49700015237091005
aF0.9203149913758757
aF-0.27383067323961535
aF0.8609172555899678
aF-0.2651852405551516
aF-0.954649910622591
aF0.847679701046781
aF-0.20440076935987925
aF0.8313958406087705
aF-0.275979380390139
aF0.2530968392029121
aF-0.7597209028641103
aF-0.2288357722088944
aF-0.5443762081270058
aF-0.762775387331561
aF-0.4692359027293773
aa(lp54
F1.0646344747744523
aF0.2574278208660736
aF0.20465202179583591
aF-0.4800636368967649
aF0.2435261526849909
aF-1.124594622089683
aF-1.1288783014086832
aF-0.6605573253189604
aF0.695964494812139
aF0.8281500414524177
aF0.89783608058947
aF-0.7659961231889
aF0.471090034954825
aF-1.0486598599658499
aF-0.4566813089816288
aF-0.9404803745525034
aF0.807172971801368
aa(lp55
F-0.7193410256352565
aF0.48484924887886466
aF0.5657100404782968
aF0.5497209158359015
aF0.7413198474644767
aF0.49702156918809537
aF-0.694500521141835
aF0.35810381848001044
aF-0.541179913289856
aF-0.6283594652335701
aF-0.17834148418994594
aF-0.7221882149780187
aF-0.9861682900419891
aF0.5271153881073206
aF-0.5399354612211708
aF-0.7966902265018646
aF-0.6355443105125534
aa(lp56
F-4.248096108847792
aF-0.9819567134354449
aF-1.3439831845421761
aF-0.9452395693711416
aF0.22146352386402313
aF-0.1582700589991859
aF0.04381312594360295
aF-0.3792445330056694
aF-0.05522729531821937
aF-0.43704428408606627
aF-0.31574475535420676
aF-0.276887364733166
aF-1.0754069009027132
aF-0.4893857972581281
aF0.3357335531844329
aF-0.7359559841634742
aF-0.5191146289114531
aa(lp57
F-2.096252301907735
aF-0.551824526238964
aF-1.4662498500709773
aF-0.7268418606481566
aF-0.15516466199896303
aF-0.7236063242783005
aF0.07226040897881526
aF-0.25111262285734987
aF-0.560667164833355
aF-1.2661289967600404
aF-0.3236598303850181
aF-0.429058716558445
aF-0.6728253306691208
aF0.1363095549320118
aF-0.5389110562004101
aF-0.7082073073397468
aF0.5242670886604895
aa(lp58
F-5.168547944554317
aF-2.2152798004502303
aF-1.0363245137739985
aF-0.3607611400266985
aF-0.6506454127656783
aF-1.1907975499167482
aF-1.5674519493801244
aF-1.7047830348709843
aF-0.4268026757185454
aF0.056854062114344184
aF0.18672492749986971
aF-0.60167786404914
aF0.47394751856051937
aF-0.1495037748381068
aF-0.14309273811435536
aF-0.18640027954801996
aF-0.9663887881249673
aa(lp59
F-6.229679239600961
aF-1.281877256432804
aF-1.328783807749658
aF-1.279167848611091
aF-1.5402068543090974
aF-0.3342763758625711
aF-1.2226457858498188
aF-0.6557879404259668
aF-0.37718785115519965
aF0.10872545427982946
aF-0.8048226744752195
aF-0.716839350778873
aF0.25569473755965444
aF-0.057361379883890146
aF-0.30731438952319445
aF-0.8445366567432722
aF0.08321650640205318
aa(lp60
F-5.445145653147768
aF-1.0141555863742313
aF-0.4671944015525687
aF-1.789412847634066
aF-1.0320896499956134
aF-0.8328830973673715
aF0.229252782034007
aF-0.7975084292752349
aF0.35326823721214107
aF-1.0010356124437614
aF-0.527297745223099
aF-0.7482137553227514
aF-1.266408301740838
aF0.2077328334113224
aF0.5279574321660209
aF-1.0167552202978325
aF-0.9937255496012493
aa(lp61
F-3.731045673196746
aF-1.5665350286898345
aF-0.24686126116214255
aF-0.8733882251650738
aF-0.9869239181877361
aF0.0840973908103433
aF-1.0208038407414355
aF-0.49927475008787514
aF-1.1577590783094653
aF0.398149965341851
aF-1.3787626996756135
aF-0.4836032812478733
aF-0.45481049644367355
aF0.2292231231250053
aF-1.0497137775895933
aF-1.0679497700167007
aF-0.8197858753515118
aa(lp62
F-4.221684320567122
aF-2.4030271576782547
aF-1.790361774421474
aF-0.2510934370448502
aF-1.1590808955136804
aF-1.3847725658693697
aF-0.35955626993720374
aF0.22065436866420476
aF-0.1056772428969694
aF0.3634642533961174
aF0.029868603343840866
aF0.3857607388917774
aF-0.14437826187178449
aF-0.7426838890711516
aF-1.2625201210722015
aF-1.1773130119358097
aF-1.137550038157936
aa(lp63
F-4.9366899537853355
aF-2.4436054711649575
aF-1.7990220466141325
aF-0.4379393278985851
aF-1.1546532876719942
aF-0.2646724167192442
aF-0.19880882693999608
aF-0.7189151468651492
aF-0.06800816189288489
aF-0.7959926964076945
aF-0.24041111361608083
aF0.46212413663671237
aF-0.5994547788018293
aF-0.8957298202246097
aF0.339955992662517
aF-1.1481910771961754
aF0.5358029225128932
aa(lp64
F-4.128258275939691
aF-2.252271721414799
aF-1.4740992006735734
aF-0.13935012785055137
aF-1.2753035541930005
aF-0.17863153281822342
aF0.4208798339463087
aF-0.7571757740397227
aF-0.5005678760348665
aF-1.2509784886856672
aF-0.23958731472109135
aF0.13275305735469092
aF-0.27370911225926214
aF-1.1655776628669292
aF0.377419642363341
aF-0.20927570203245205
aF-0.06552395213238119
aa(lp65
F-4.119939698414429
aF-1.6569833204859836
aF-2.036828131424603
aF-1.3613771885957804
aF-0.6130399385402286
aF0.13868159396997143
aF-0.0677144731170198
aF-0.6751929752337145
aF0.33792581267107025
aF-1.1626570007189827
aF-0.47371758094687366
aF-0.057687845318824836
aF-0.4115100475788823
aF-0.9703072660737875
aF-1.0771910931835929
aF-0.4537030756326552
aF-0.19331704297426536
aa(lp66
F-2.5961735322600124
aF-1.56370286660019
aF-1.8691968709459923
aF-1.3575747882109506
aF-0.3386370170033582
aF-0.6895989272213513
aF0.549810777537339
aF0.017031929620480637
aF-1.2616278657436792
aF-0.8193909536288325
aF0.37107728478415947
aF0.1910898093412542
aF-0.662168760498998
aF-0.9770109807691707
aF0.47047296636606784
aF-1.2413513841833155
aF-0.6869919532044316
aa(lp67
F-4.97863295937392
aF-0.7739198862143671
aF-1.493140164048415
aF-2.065609905773643
aF-1.3703124719569775
aF0.03366222693151044
aF-0.10033749207200554
aF-1.6848632839104547
aF-0.2766511929454264
aF0.44390416748437633
aF-0.6785384468644542
aF-0.6151268143843134
aF-0.15704924407211804
aF-0.8376293398597362
aF-0.34786627418318034
aF0.17669397465096917
aF-0.5654150400860442
aa(lp68
F-3.9685215844894386
aF-1.4095424506099543
aF-0.31098538183625685
aF-1.3511188868988806
aF-0.3502334793490888
aF-1.4344223559989893
aF0.1250031185603857
aF0.16709713590143094
aF-1.48853303290214
aF0.4878111898639232
aF-0.7543655653431169
aF-0.3038843944582119
aF-0.6053751564519634
aF-0.5967516916093352
aF-0.25479010482941056
aF-1.239506848440326
aF-1.3639022374135326
aaa.