(lp0
(lp1
(lp2
I0
aI0
aI0
aI0
aI0
aI0
aI0
aI0
aI0
aI0
aI0
aI0
aI0
aI0
aI0
aI0
aI0
aa(lp3
I0
aI0
aI0
aI0
aI0
aI0
aI0
aI0
aI0
aI0
aI0
aI0
aI0
aI0
aI0
aI0
aI0
aa(lp4
I0
aI0
aI0
aI0
aI0
aI0
aI0
aI0
aI0
aI0
aI0
aI0
aI0
aI0
aI0
aI0
aI0
aa(lp5
I0
aI0
aI0
aI0
aI0
aI0
aI0
aI0
aI0
aI0
aI0
aI0
aI0
aI0
aI0
aI0
aI0
aa(lp6
I0
aI0
aI0
aI0
aI0
aI0
aI0
aI0
aI0
aI0
aI0
aI0
aI0
aI0
aI0
aI0
aI0
aa(lp7
I0
aI0
aI0
aI0
aI0
aI0
aI0
aI0
aI0
aI0
aI0
aI0
aI0
aI0
aI0
aI0
aI0
aa(lp8
I0
aI0
aI0
aI0
aI0
aI0
aI0
aI0
aI0
aI0
aI0
aI0
aI0
aI0
aI0
aI0
aI0
aa(lp9
I0
aI0
aI0
aI0
aI0
aI0
aI0
aI0
aI0
aI0
aI0
aI0
aI0
aI0
aI0
aI0
aI0
aa(lp10
I0
aI0
aI0
aI0
aI0
aI0
aI0
aI0
aI0
aI0
aI0
aI0
aI0
aI0
aI0
aI0
aI0
aa(lp11
I0
aI0
aI0
aI0
aI0
aI0
aI0
aI0
aI0
aI0
aI0
aI0
aI0
aI0
aI0
aI0
aI0
aa(lp12
I0
aI0
aI0
aI0
aI0
aI0
aI0
aI0
aI0
aI0
aI0
aI0
aI0
aI0
aI0
aI0
aI0
aa(lp13
I0
aI0
aI0
aI0
aI0
aI0
aI0
aI0
aI0
aI0
aI0
aI0
aI0
aI0
aI0
aI0
aI0
aa(lp14
I0
aI0
aI0
aI0
aI0
aI0
aI0
aI0
aI0
aI0
aI0
aI0
aI0
aI0
aI0
aI0
aI0
aa(lp15
I0
aI0
aI0
aI0
aI0
aI0
aI0
aI0
aI0
aI0
aI0
aI0
aI0
aI0
aI0
aI0
aI0
aa(lp16
I0
aI0
aI0
aI0
aI0
aI0
aI0
aI0
aI0
aI0
aI0
aI0
aI0
aI0
aI0
aI0
aI0
aa(lp17
I0
aI0
aI0
aI0
aI0
aI0
aI0
aI0
aI0
aI0
aI0
aI0
aI0
aI0
aI0
aI0
aI0
aaa(lp18
(lp19
F4.204595187029684
aF2.449843912556296
aF2.0036712712400773
aF1.8257599253608041
aF1.2291900294092666
aF-0.36399759996391295
aF0.212910976846588
aF0.6027301944788763
aF0.38249008198929807
aF0.369224065679252
aF0.026653599612275203
aF0.4608631298476778
aF-0.05527801247450304
aF0.3843715271302061
aF1.0187097329862755
aF-0.16514891054202482
aF-0.6819019081687591
aa(lp20
F2.353218733350668
aF1.6255604911189239
aF1.1593274283575317
aF0.2562648228995284
aF-0.6579082539887593
aF0.6015976291381041
aF1.078259715273441
aF-0.4006162592491278
aF-0.6851503254402503
aF-0.28244447594196337
aF-0.7831595660662276
aF-0.662257721114919
aF0.05951673669177877
aF0.6679392997861572
aF-0.4266040975135658
aF0.6878628883852425
aF0.6607331595550018
aa(lp21
F5.6583977149136135
aF1.5819563969832748
aF1.9454307267721263
aF0.9322288016307949
aF-0.501394437790087
aF-0.15856461613292064
aF1.2805979060753634
aF0.15782297400672338
aF-0.2366505848818756
aF-0.42085731873916954
aF1.2306741224264146
aF-0.5750810268029288
aF0.5490461161681779
aF-0.38728900810675254
aF-0.36442358356281324
aF1.297059195940234
aF0.16250654884587296
aa(lp22
F-1.763438817379727
aF-0.18712663526809076
aF-0.14655707625516584
aF-0.590591323313087
aF0.5756744714559139
aF-0.1464303778891161
aF-0.36028392020278704
aF0.822409654036272
aF0.8128813210240228
aF0.24088339314085389
aF-1.0105850766181264
aF-0.13316311875996764
aF-0.8505224418805466
aF-0.3751934125849947
aF0.2132713027198853
aF-0.908126095265206
aF-0.3747322753929435
aa(lp23
F3.4126946468791015
aF2.0172362001029627
aF1.486152424348117
aF0.2991113131853352
aF1.0769735772709563
aF-0.052213700199113
aF-0.6990794619931558
aF-0.5550797321408164
aF-0.047972303124840535
aF0.5973266165498109
aF-0.2889888103212869
aF0.47159708883164414
aF-0.4280166766720508
aF0.686620784387223
aF-0.14066958681179587
aF0.48632795026131315
aF-0.46991874006546763
aa(lp24
F2.431500419604223
aF0.9893659588844795
aF0.8793120150787209
aF1.5831244368395183
aF-0.32949784780372493
aF0.60759087074058
aF-0.29339500299642157
aF-0.13441760643418466
aF0.7038120212445939
aF-0.4231851245519275
aF-0.46281228653885426
aF0.9932523691804901
aF1.0033232648301809
aF-0.6154078967392649
aF-0.35658547622265857
aF0.776822300921988
aF0.07480088052608799
aa(lp25
F3.4231759680655998
aF0.8824637070855709
aF1.1048232327385281
aF0.1408053561689759
aF1.2114500378811703
aF-0.6444844685898521
aF-0.3569704411583743
aF-0.2358457364263863
aF0.6975700598851268
aF0.2236061108463745
aF-0.7500143785382708
aF-0.7308804583831718
aF0.49200433889642947
aF0.7886950917411157
aF1.0583022577362036
aF-0.33160351365879637
aF0.8790567119428332
aa(lp26
F2.3936654040288246
aF1.7121879592101517
aF0.4598143568890531
aF-0.3639208743403386
aF0.9995516727680938
aF0.5027871840983793
aF-0.19097155227651952
aF-0.25697454490878435
aF0.2741175861639856
aF0.4252113112528147
aF-0.12071628593564845
aF0.18138062470193447
aF0.25524055057980993
aF0.9748849654212592
aF-0.36141506529652184
aF-0.5078702668115975
aF0.4235300634188014
aa(lp27
F3.4335484705018784
aF1.6082250198728862
aF1.105433351888389
aF0.682841310258268
aF-0.5612351623920272
aF-0.2978144268324366
aF-0.11777251454455834
aF0.13783313329692767
aF-0.6168858828085585
aF0.8256087664607483
aF-0.12626241614350187
aF0.3295724239206354
aF0.8678413890744281
aF-0.07258247214110426
aF0.48517613941163373
aF0.9598182370215457
aF0.8378566255778304
aa(lp28
F2.9702764935872543
aF0.5261118660035159
aF0.5382353116858675
aF0.6242544050368941
aF0.6807860427658806
aF-0.49388236051781764
aF-0.20496907936368114
aF-0.6731649611169226
aF0.9672011705399753
aF0.8049125437607147
aF0.3026125771553291
aF-0.7421766679054433
aF0.23825753844862863
aF-0.5836371343488628
aF0.32860565520623697
aF0.35002482296263
aF0.3936892993671912
aa(lp29
F3.077113464523968
aF0.9652491963661556
aF0.6808462911027447
aF0.6611242916834713
aF1.1558752701459634
aF0.6455018323704339
aF-0.3276063019988978
aF0.5694847841029792
aF-0.3123794408831245
aF0.04626493100671076
aF0.5416568107485978
aF-0.40384293173485475
aF0.3820918595542697
aF-0.6337677433753773
aF-0.5948984699580605
aF1.0909344179418223
aF0.16553193842732547
aa(lp30
F4.056687290953823
aF0.9536696526284261
aF1.0716139560048485
aF1.4896739315410485
aF0.6249778804963725
aF-0.09255623927091346
aF-0.11643451891966654
aF1.248915354579285
aF0.5219528669798784
aF0.1113483358607581
aF1.019228885737683
aF0.6670392195845743
aF0.05525046474983128
aF-0.3999865592098191
aF-0.14159440424394992
aF0.4828117227119138
aF0.16990970964652055
aa(lp31
F0.9052384130234177
aF0.2008095403383286
aF0.3305615254339554
aF-0.24776574080539618
aF0.9999972360769709
aF-0.1475210987025573
aF1.0189282173073375
aF0.9320861302503508
aF-0.33914721624237165
aF-0.2976517079991323
aF0.7358034500576108
aF0.627707953673397
aF-0.02284897172408276
aF-0.1895490026271645
aF-0.5948630331282775
aF0.44538605145506865
aF-0.7721444570920826
aa(lp32
F2.9495109850073082
aF0.7775358724272684
aF0.8344132963665158
aF0.13187071377590368
aF0.8457551936877411
aF0.2606924313995781
aF0.7947013955955807
aF1.0641744733550915
aF-0.22052738559852944
aF0.9625375337621052
aF-0.6702201469445661
aF-0.12065942568938295
aF1.1660310976361568
aF0.6051037075814036
aF0.06775024676445028
aF0.8023429143606379
aF-0.0020652093362953706
aa(lp33
F-0.22605810805953858
aF0.21199200704768378
aF-1.1006280711928107
aF-1.0874905034263513
aF-0.8163431494218049
aF0.1578773622939213
aF-0.308938861468979
aF-0.7765410394539858
aF-0.5461207266394656
aF0.6323114726758741
aF-0.34919991898809744
aF-0.5987449059991158
aF-0.8474705363909822
aF0.3321393434917852
aF-0.9409268545524242
aF-0.0904958268447301
aF0.5081291076412021
aa(lp34
F3.448213261146857
aF2.162677747357574
aF0.9423918730772842
aF1.6628413711775296
aF-0.24400601493552915
aF1.1046620257837994
aF1.0094429835577583
aF-0.2810138552046661
aF-0.646521926642077
aF-0.13342844111146582
aF-0.3674624560218858
aF-0.4929659613492286
aF0.028249200960937915
aF0.5800603255329094
aF-0.4980314919224506
aF0.057596857764547774
aF0.49268723594817837
aaa(lp35
(lp36
F6.325835480860231
aF2.432752981448503
aF1.0505537125096944
aF1.4381154407798316
aF0.14027675063466227
aF1.2797780913087755
aF0.45241464168263196
aF-0.43144019612474466
aF0.8342523754335104
aF0.9568868366473829
aF0.30375036710963776
aF1.2464858453486556
aF1.2376266422555446
aF1.0262173277597988
aF0.788765627918491
aF-0.549129701115356
aF1.0623121333656158
aa(lp37
F7.163904416257404
aF1.9187210535603374
aF1.4625884588071936
aF1.3550267095076671
aF-0.24396927187185288
aF0.9116082606334575
aF0.9831227201255823
aF1.4881196856783716
aF0.643378066733856
aF1.277603804702568
aF-0.44105947327541756
aF-0.22826343711284006
aF1.085829789261505
aF0.010314414163235495
aF0.8123753348734074
aF0.5031966318483148
aF0.9401207614253807
aa(lp38
F5.891944045156992
aF1.834492780213547
aF0.6849845487295777
aF2.347323152275392
aF-0.00028090052258607955
aF0.4605108177925389
aF-0.22199484220051077
aF1.049302276724828
aF-0.3052344660780978
aF-0.3736371676930208
aF0.7312637934520078
aF0.7322406997000862
aF0.9063671011850206
aF-0.31219866152023995
aF1.0887707138534715
aF-0.12400903296643283
aF0.23667803023090345
aa(lp39
F4.855004384403151
aF2.3962705131404918
aF0.4814075021346788
aF1.4321492245521172
aF-0.04084905524082918
aF0.49035796839509105
aF0.14050246865796204
aF0.2660890703492005
aF1.0849756990205561
aF1.1256561293648655
aF0.8917051269807108
aF0.9564481217793263
aF0.76262861895109
aF0.776778323556774
aF0.29338697844589245
aF0.7448564509649033
aF-0.4580319314537517
aa(lp40
F5.706763126285718
aF0.9068550978047963
aF0.5912872193976901
aF0.6619535347377578
aF1.0400537146550644
aF0.5610946867297304
aF0.4034546282350519
aF-0.17225139279906607
aF0.023908934727652202
aF-0.43686257042359494
aF1.050352949513864
aF0.48148114815511467
aF1.2439233909722387
aF-0.6192109127942053
aF-0.3618251682843966
aF0.20317202896505493
aF1.0109647101096755
aa(lp41
F3.483992513293146
aF0.4000698243229535
aF-0.16285685830271965
aF1.066117414340673
aF-0.6438139980630577
aF0.8843295407362264
aF0.9262058218726195
aF-0.25049234886974886
aF0.9322524536906176
aF-0.11743857349702491
aF-0.556392017195017
aF-0.6859214017271098
aF-0.5877985792222032
aF0.22285555546651725
aF-0.434993527452874
aF-0.05593544802904195
aF0.42474117246811577
aa(lp42
F4.426126305528184
aF1.4860106063835503
aF0.1647385924360829
aF1.67229138361255
aF0.12499768544966652
aF1.0393908532084783
aF0.18350174258512217
aF-0.09689076944224441
aF-0.06899093787676563
aF1.1904612125369778
aF-0.5991457965058178
aF0.05953970761546638
aF1.2689602110771392
aF0.32114712859934696
aF1.0892314618382226
aF-0.21435418166951278
aF0.5732326821810013
aa(lp43
F2.4728877211164386
aF1.7461317015892832
aF1.0813240687908916
aF0.6423404654383804
aF0.2307111256306484
aF1.0072942626032777
aF0.22662724578145416
aF0.6953369670719396
aF0.09576810521953062
aF-0.02343286107284602
aF0.36876920887837217
aF0.07702361611168392
aF0.5253125160945632
aF0.528898875954894
aF-0.617620522888797
aF0.8183709488689421
aF0.7263612320256964
aa(lp44
F2.191916109026118
aF0.16528548315675498
aF-0.18150134269006057
aF1.6730232701452008
aF-0.646027146373665
aF0.0786076340766896
aF-0.9149441628182202
aF0.2326857872706895
aF0.704847976538186
aF1.0456046835139747
aF0.6143345060125275
aF0.92467033394501
aF-0.2176818900651085
aF0.6228705692069971
aF0.9250877065410633
aF-0.7834446258603459
aF0.41177680681511786
aa(lp45
F1.922926550196684
aF0.8058142797492869
aF1.2697728864151565
aF1.1341472335890357
aF0.025207415722850818
aF0.05609711372648106
aF0.9575173910461424
aF0.15922512483770102
aF1.1243309096806682
aF-0.05240131732402472
aF0.2947312959439082
aF-0.008362145542066622
aF1.150059041969963
aF-0.10454501469589475
aF0.5301392529562854
aF0.13980842426234294
aF0.05930384470283445
aa(lp46
F1.1283569085953227
aF0.8106492249604507
aF0.9884082449164916
aF0.5929195382014604
aF-0.645988653604812
aF-0.44038247907014333
aF0.9790111821231993
aF-0.566298182247767
aF0.802314803780748
aF-0.26289510587820497
aF1.0796786695521106
aF0.9839450244803083
aF-0.6135887710876737
aF0.5815398470355702
aF-0.6542687646428939
aF-0.5373332776587773
aF1.0534903026329652
aa(lp47
F4.932357404082158
aF1.6028268753062698
aF-0.0099297991784821
aF0.5153207926634166
aF0.9720996109361063
aF-0.6665345714842508
aF0.5753465208582206
aF0.3986891256149629
aF0.038619636937458006
aF-0.21666255925255448
aF0.45026635212321586
aF0.3606121918535917
aF0.6253486009025242
aF-0.31585490055554616
aF-0.07760301811098239
aF-0.19323553184514405
aF-0.20395679349402687
aa(lp48
F4.936426747215826
aF1.1719698127965033
aF0.7532798200366233
aF0.9981669802375882
aF-0.015537189298441017
aF0.049666378052296345
aF1.0112911930532689
aF-0.10028969503387913
aF-0.022905426349165255
aF0.12433096998501245
aF-0.5242804773792096
aF-0.13665227247176326
aF-0.318043150852203
aF1.1557367877764586
aF0.5364539546801502
aF0.4072876338648003
aF1.0650718387587677
aa(lp49
F3.355016417763109
aF0.1520481681558562
aF1.479573217155086
aF0.2823302080218592
aF0.00020196143960803372
aF-0.667915175238481
aF-0.8385103950506597
aF0.5865541077173119
aF-0.38329065784941707
aF0.167593965923789
aF0.8572123939925786
aF0.14815992989269353
aF0.9404402622393098
aF-0.8282352190110506
aF0.19914434581263685
aF0.8670318341612885
aF-0.5208778995136315
aa(lp50
F4.191472001757503
aF2.275180771449496
aF1.4225595656263368
aF1.8772704037149692
aF-0.12643746923048757
aF0.891063988202565
aF1.0624447761576654
aF1.415896395541602
aF0.16306518995032296
aF0.9974221807258566
aF0.5753878393390429
aF0.08134222815759867
aF-0.13749994397362914
aF-0.447687794812701
aF1.2431813976909913
aF-0.149334410924618
aF1.0346390349797983
aa(lp51
F2.9495940359118866
aF1.936431029089342
aF1.5719600222108217
aF0.1611366728764079
aF0.4575624849205037
aF-0.6879107800196226
aF-0.024324401157031557
aF1.0866702910154362
aF-0.1590892593581238
aF0.6997221555344028
aF0.8491651888464636
aF0.6930909231209093
aF0.24967791775364076
aF0.19401272908355657
aF0.9046655676807545
aF-0.5434106696112497
aF-0.3027901031449589
aaa(lp52
(lp53
F1.877316367169006
aF-0.6173188415633554
aF1.1972250301750356
aF0.029352984953684363
aF0.9125221760281096
aF-0.2140152638140991
aF-0.9196190661234557
aF0.8829800651287644
aF-0.17002615723852516
aF0.8662158877660655
aF-0.24153284357618524
aF0.2890187694249037
aF-0.7228561720192149
aF-0.1942261725765756
aF-0.5097573756833749
aF-0.727967474910377
aF-0.43521286353719557
aa(lp54
F1.6278812726900918
aF0.5649362189297166
aF0.24810713001361712
aF-0.28428038257100446
aF0.2787847504569912
aF-1.0897364076311635
aF-1.1045675845443401
aF-0.6360268979968835
aF0.7197489383850519
aF0.8524680263180944
aF0.9218472272444619
aF-0.7410772359746651
aF0.49666137943716687
aF-1.0245545116720003
aF-0.4327538203252607
aF-0.916327113825703
aF0.8307728794763963
aa(lp55
F-0.21704160043626228
aF0.8091714340922949
aF0.7203022810868221
aF0.5562823803718219
aF0.7725738490254619
aF0.5277732590303408
aF-0.6731015087700052
aF0.37965420437153197
aF-0.5203074861437194
aF-0.607097657707141
aF-0.1573180788443833
aF-0.7003124314568293
aF-0.9637479093107205
aF0.5481963771920025
aF-0.5189113099781132
aF-0.775496474546022
aF-0.6148387133556148
aa(lp56
F-4.981330911929159
aF-1.2437881628854293
aF-1.5219078631886265
aF-1.1387023604486357
aF0.17613172374278546
aF-0.20286737575871827
aF0.012950162079744778
aF-0.41034044722132185
aF-0.08544851794966062
aF-0.46775018488612796
aF-0.3460892713565034
aF-0.308493887207918
aF-1.1078063691974722
aF-0.5198487110962151
aF0.3053145815670177
aF-0.7665748830480745
aF-0.5490487610850081
aa(lp57
F-2.717066065697897
aF-0.7815133717816699
aF-1.6159316562899149
aF-0.8885525034252435
aF-0.19366461709121063
aF-0.7618586083993399
aF0.04559220440340696
aF-0.2779878380399808
aF-0.5866508099509399
aF-1.2927059628549287
aF-0.34989681276459744
aF-0.4563028950639801
aF-0.7007521051522219
aF0.10999116524197246
aF-0.5650550151295867
aF-0.7346141560787924
aF0.49848105077135213
aa(lp58
F-8.001687376677797
aF-3.2707799447764767
aF-1.7321296146601317
aF-1.1143862472313422
aF-0.8243425368744844
aF-1.3619767938756833
aF-1.684971109725611
aF-1.8231653649628692
aF-0.5422192590928775
aF-0.05994384800310582
aF0.07122791079227596
aF-0.7221769390059691
aF0.3504517436771765
aF-0.26549880537433396
aF-0.25928634850813065
aF-0.303112916055992
aF-1.080584736311275
aa(lp59
F-9.102973698820277
aF-2.3523305368951966
aF-2.0344420187020487
aF-2.0434686388285304
aF-1.7163795018454722
aF-0.5079009498838157
aF-1.3418587626598306
aF-0.7758770853182981
aF-0.49426227204292167
aF-0.009758618772915518
aF-0.9219863281633393
aF-0.8390726469772143
aF0.13042114035928953
aF-0.17502934100659168
aF-0.4251768425420965
aF-0.9629300515671119
aF-0.03262245056779369
aa(lp60
F-8.200627386336434
aF-2.0408304816687926
aF-1.1440773801570512
aF-2.5224665684910454
aF-1.2006590990574388
aF-0.9988818924949863
aF0.11570458002827781
aF-0.9118849160437178
aF0.24156296570190103
aF-1.1138320409528286
aF-0.6388820334120594
aF-0.8647387547553915
aF-1.385834170513033
aF0.09563817535538222
aF0.4154838989664298
aF-1.1296043622443745
aF-1.104185372787572
aa(lp61
F-6.52475375500735
aF-2.607308388027955
aF-0.932926598774726
aF-1.6164922421575576
aF-1.1583164158588075
aF-0.0848540438078762
aF-1.1369200417663106
aF-0.6162465651775603
aF-1.2717419782428263
aF0.2827269198178055
aF-1.4928888116473527
aF-0.6026357278082097
aF-0.5768036392417364
aF0.11461367143416522
aF-1.1644601501395868
aF-1.183248135354916
aF-0.9325846351554565
aa(lp62
F-6.958918936662172
aF-3.422782841429903
aF-2.4625919716666087
aF-0.9791888816003079
aF-1.3269248644062406
aF-1.5501992499969808
aF-0.47315462229180094
aF0.10621970280653163
aF-0.21723302027634275
aF0.2505551507046898
aF-0.08178321750041785
aF0.2692859001055893
aF-0.26375167989631115
aF-0.8548154022369173
aF-1.3748274617851781
aF-1.2901317710068376
aF-1.2479331161942806
aa(lp63
F-7.922394773251016
aF-3.555996479672129
aF-2.5323714004334263
aF-1.2321886757485077
aF-1.3375109907435738
aF-0.4448115597156439
aF-0.32226046924064644
aF-0.8432708441379917
aF-0.18935365588530897
aF-0.9186577221185646
aF-0.3617344144238261
aF0.33548831748097707
aF-0.7292423824293479
aF-1.01759222754743
aF0.2177843593230889
aF-1.2708400340221957
aF0.4157750475345578
aa(lp64
F-7.260936427648999
aF-3.419412833436075
aF-2.2435444961712623
aF-0.9726924774355036
aF-1.4671617330746465
aF-0.36763719268831063
aF0.29135339504097973
aF-0.8876512297123366
aF-0.6278881643145172
aF-1.3796800045826498
aF-0.3668827187693042
aF-0.00011694587429574165
aF-0.40988712063501975
aF-1.293439312831922
aF0.24923171097652894
aF-0.3379629000463294
aF-0.1914615001264032
aa(lp65
F-6.883194762840867
aF-2.6864470065411004
aF-2.7154715763106756
aF-2.0964079335508234
aF-0.7824228105907933
aF-0.028241671931489493
aF-0.1822764998223518
aF-0.79059750958167
aF0.2253941256610095
aF-1.2765152390697636
aF-0.586314847077771
aF-0.1751661375993303
aF-0.5319124110337211
aF-1.0833928916063116
aF-1.1904834588639046
aF-0.567491420376886
aF-0.30465564424681923
aa(lp66
F-5.389949341528271
aF-2.6046520615815583
aF-2.5554980706253945
aF-2.1008190192931253
aF-0.5095201310018105
aF-0.8578667373762396
aF0.4347437026208534
aF-0.09887433389571525
aF-1.3748435514238548
aF-0.9336923654793771
aF0.25799991133232153
aF0.0729974074077168
aF-0.7832017803476076
aF-1.0906080539708731
aF0.3564769637392317
aF-1.3557177369213198
aF-0.7989404886434099
aa(lp67
F-7.78196894290185
aF-1.8183546390545178
aF-2.1816828690891676
aF-2.811334787783192
aF-1.5420296390491732
aF-0.1355160228296479
aF-0.21630921694520114
aF-1.8016853355172378
aF-0.3906294143573024
aF0.3286649712586969
aF-0.7925147474036033
aF-0.7340821979250891
aF-0.2789655982040026
aF-0.9521096396976139
aF-0.46261969437329636
aF0.06148095935708434
aF-0.6781623066745609
aa(lp68
F-6.659673798471599
aF-2.4122100358152387
aF-0.9720108138777264
aF-2.067022833304621
aF-0.5149924038842694
aF-1.5967156155654034
aF0.01384875722002907
aF0.05512926079060499
aF-1.5978199487249416
aF0.3773719017368358
aF-0.8636044839259861
aF-0.4179205268405828
aF-0.7222501443280158
aF-0.7064803326470177
aF-0.36482386846923853
aF-1.349952011392449
aF-1.4719939406679774
aaa.