(lp0
(lp1
(lp2
I0
aI0
aI0
aI0
aI0
aI0
aI0
aI0
aI0
aI0
aI0
aI0
aI0
aI0
aI0
aI0
aI0
aa(lp3
I0
aI0
aI0
aI0
aI0
aI0
aI0
aI0
aI0
aI0
aI0
aI0
aI0
aI0
aI0
aI0
aI0
aa(lp4
I0
aI0
aI0
aI0
aI0
aI0
aI0
aI0
aI0
aI0
aI0
aI0
aI0
aI0
aI0
aI0
aI0
aa(lp5
I0
aI0
aI0
aI0
aI0
aI0
aI0
aI0
aI0
aI0
aI0
aI0
aI0
aI0
aI0
aI0
aI0
aa(lp6
I0
aI0
aI0
aI0
aI0
aI0
aI0
aI0
aI0
aI0
aI0
aI0
aI0
aI0
aI0
aI0
aI0
aa(lp7
I0
aI0
aI0
aI0
aI0
aI0
aI0
aI0
aI0
aI0
aI0
aI0
aI0
aI0
aI0
aI0
aI0
aa(lp8
I0
aI0
aI0
aI0
aI0
aI0
aI0
aI0
aI0
aI0
aI0
aI0
aI0
aI0
aI0
aI0
aI0
aa(lp9
I0
aI0
aI0
aI0
aI0
aI0
aI0
aI0
aI0
aI0
aI0
aI0
aI0
aI0
aI0
aI0
aI0
aa(lp10
I0
aI0
aI0
aI0
aI0
aI0
aI0
aI0
aI0
aI0
aI0
aI0
aI0
aI0
aI0
aI0
aI0
aa(lp11
I0
aI0
aI0
aI0
aI0
aI0
aI0
aI0
aI0
aI0
aI0
aI0
aI0
aI0
aI0
aI0
aI0
aa(lp12
I0
aI0
aI0
aI0
aI0
aI0
aI0
aI0
aI0
aI0
aI0
aI0
aI0
aI0
aI0
aI0
aI0
aa(lp13
I0
aI0
aI0
aI0
aI0
aI0
aI0
aI0
aI0
aI0
aI0
aI0
aI0
aI0
aI0
aI0
aI0
aa(lp14
I0
aI0
aI0
aI0
aI0
aI0
aI0
aI0
aI0
aI0
aI0
aI0
aI0
aI0
aI0
aI0
aI0
aa(lp15
I0
aI0
aI0
aI0
aI0
aI0
aI0
aI0
aI0
aI0
aI0
aI0
aI0
aI0
aI0
aI0
aI0
aa(lp16
I0
aI0
aI0
aI0
aI0
aI0
aI0
aI0
aI0
aI0
aI0
aI0
aI0
aI0
aI0
aI0
aI0
aa(lp17
I0
aI0
aI0
aI0
aI0
aI0
aI0
aI0
aI0
aI0
aI0
aI0
aI0
aI0
aI0
aI0
aI0
aaa(lp18
(lp19
F0.9520665382160639
aF1.2361194887692024
aF1.2063507073147504
aF0.9601524417734723
aF1.02809361816451
aF-0.5624721965816982
aF0.07486674370478946
aF0.46369292188711936
aF0.24783324044228966
aF0.23191045807017924
aF-0.10877078042426487
aF0.31982971294697543
aF-0.19972703095395952
aF0.24848951789041543
aF0.8833093303046579
aF-0.30167521467564673
aF-0.8152916057499863
aa(lp20
F-1.0503876988311132
aF0.35117081205254363
aF0.32524515885792427
aF-0.6503190973105907
aF-0.8661813470719989
aF0.39665306834864017
aF0.938066385572225
aF-0.5418142496615218
aF-0.823077952527784
aF-0.42164377680241816
aF-0.9207959222952042
aF-0.8061281601181829
aF-0.08791080194903507
aF0.5296615107304371
aF-0.5654430348432288
aF0.5486076455435726
aF0.5244195168746504
aa(lp21
F1.405577423837173
aF0.003921786266155421
aF0.8977591269979055
aF-0.19741361603595303
aF-0.7663024946513334
aF-0.42058803514603216
aF1.0961729040734536
aF-0.027938818994338102
aF-0.41553983219007734
aF-0.6045318027536414
aF1.049815944181958
aF-0.7629640521740637
aF0.35665693299657497
aF-0.5686084155086292
aF-0.5441827314959614
aF1.1151627385858853
aF-0.014981326361860454
aa(lp22
F-1.8014360621429384
aF-0.212115534195326
aF-0.15220765552893206
aF-0.599531620006102
aF0.5737850624602098
aF-0.14814573152998853
aF-0.36095377411211577
aF0.8217390027608183
aF0.8119938052096416
aF0.2402728337876725
aF-1.011249166955366
aF-0.1339695564938568
aF-0.8513546692533238
aF-0.3758943521967849
aF0.21235474472079618
aF-0.9088984956593146
aF-0.37554169190760617
aa(lp23
F1.6856276691401877
aF1.3761814637811773
aF1.0566245298835018
aF-0.15437215936737553
aF0.9697782647428629
aF-0.15813647058818245
aF-0.7732235552395049
aF-0.629757560304234
aF-0.1200721434183362
aF0.523532197811522
aF-0.3617086155302014
aF0.39596818082037055
aF-0.5054672101095287
aF0.6136896090906064
aF-0.21314458757912896
aF0.41311011493206395
aF-0.5414037378558456
aa(lp24
F1.018174449377521
aF0.4562202818150344
aF0.530390440177062
aF1.2106842922415693
aF-0.41739722802099866
aF0.5206943225216842
aF-0.3544418124459804
aF-0.19590497421937125
aF0.6445443465009016
aF-0.48396867129698923
aF-0.5226798437473519
aF0.9310347794082291
aF0.9396137819241684
aF-0.6754349917959589
aF-0.4161478856457752
aF0.7165874818882451
aF0.01601247891927692
aa(lp25
F1.7367625932171402
aF0.2512404813275011
aF0.6949505247411079
aF-0.31063702913687163
aF1.106575576547324
aF-0.7481627598904859
aF-0.4297326180524981
aF-0.3091379614906827
aF0.6268827372785934
aF0.15115197905182445
aF-0.8213882682489663
aF-0.8050687436004876
aF0.41602857330151183
aF0.7171224840550894
aF0.987258868728425
aF-0.40342761081764994
aF0.808949840271709
aa(lp26
F1.0340629410305895
aF1.2090120083473672
aF0.12574013155856273
aF-0.7273249163761766
aF0.915188632564357
aF0.4194259862133068
aF-0.24929557198781432
aF-0.3157206987824838
aF0.21738140416567336
aF0.3671577138398472
aF-0.17792806053544316
aF0.12187619757537016
aF0.19430056440363913
aF0.9175031003904174
aF-0.4184471799959383
aF-0.5654782366825214
aF0.36728167620474
aa(lp27
F2.0774820160479774
aF1.1139706051408191
aF0.7718612735525578
aF0.31964243634029654
aF-0.645367053390319
aF-0.38094100886203
aF-0.1758819426415063
aF0.07930238529337129
aF-0.6734355175701783
aF0.7677726030354934
aF-0.18326678129102275
aF0.2702732598563449
aF0.8071080030238489
aF-0.12976033069755225
aF0.42832837522054545
aF0.9024096590818609
aF0.7817991003433797
aa(lp28
F1.16838923489162
aF-0.14464576089638267
aF0.09945845091954517
aF0.1402685376542126
aF0.5687075744985068
aF-0.6047025717902919
aF-0.2827834352815691
aF-0.7515460745664256
aF0.8916232794240907
aF0.7274249502585154
aF0.22628579800967386
aF-0.8215066320338751
aF0.15701701905575022
aF-0.6601741452645126
aF0.25264936020261153
aF0.2732231438095696
aF0.3187279986939781
aa(lp29
F1.4643472961067372
aF0.37302065196411455
aF0.2860541784789724
aF0.22879953531711458
aF1.055641797398249
aF0.5464240926178907
aF-0.39705612647355815
aF0.49953079101685643
aF-0.37987740424750915
aF-0.022878291290418767
aF0.4735368230816796
aF-0.4746678629547537
aF0.3095595354997522
aF-0.7020822068189813
aF-0.6627396890199555
aF1.022368605943989
aF0.09859910374971075
aa(lp30
F2.082036673475365
aF0.2150149845801426
aF0.587893414979621
aF0.9659884907932588
aF0.5021066462330193
aF-0.21404557674017569
aF-0.2017786551789819
aF1.1629511580522423
aF0.43908605155675745
aF0.026363660209631865
aF0.935521990194742
aF0.5800468571145364
aF-0.03383495785109726
aF-0.4839195078770111
aF-0.2248748972709864
aF0.3985917140150943
aF0.08771273296907973
aa(lp31
F0.12302082309609785
aF-0.07829993791972704
aF0.13583527370270126
aF-0.4565949689145172
aF0.9517165207331574
aF-0.19515219572292625
aF0.9859115786750343
aF0.898833110577805
aF-0.3713959392400181
aF-0.3304804323860267
aF0.7034125092018662
aF0.5939548489253229
aF-0.05742219662535115
aF-0.22205600331795902
aF-0.6272959370842011
aF0.41271144075240934
aF-0.8040775602797805
aa(lp32
F1.561805679376983
aF0.26465346649643307
aF0.4937132541368977
aF-0.2374307400376109
aF0.7595938195030923
aF0.17555356747920725
aF0.7351096752116885
aF1.0041511116271737
aF-0.2784844190161842
aF0.9032198717836902
aF-0.7286732264797864
aF-0.18145198210618416
aF1.1037714713101403
aF0.5464783302367978
aF0.009492640241169956
aF0.7434895294562897
aF-0.059526341687219146
aa(lp33
F-0.2105302133892487
aF0.21405192030756715
aF-1.0978605711019327
aF-1.0809628446578778
aF-0.8150400877040612
aF0.1592579131587113
aF-0.30761342554782845
aF-0.7752032604009064
aF-0.544996055401003
aF0.6336715874127634
aF-0.347907912789785
aF-0.597479230044138
aF-0.8461808690640986
aF0.3334111499884241
aF-0.9398165065960078
aF-0.08926735901345786
aF0.5092907472252702
aa(lp34
F1.6026639732173584
aF1.4806250988667649
aF0.48394473148904166
aF1.1755862762644378
aF-0.3588969967592015
aF0.9910383508306853
aF0.9295296750664511
aF-0.3615045346515706
aF-0.724060184270721
aF-0.2130050792687132
aF-0.445828120831743
aF-0.5743887426152028
aF-0.0551267513386333
aF0.5014917847809844
aF-0.5759511791511859
aF-0.021231592424904275
aF0.4157635526823865
aaa(lp35
(lp36
F2.753328985572676
aF1.0853383239056396
aF0.17604559533693726
aF0.49331695955476207
aF-0.08118724694206395
aF1.0610485821264415
aF0.29964190350993003
aF-0.5853157163149046
aF0.685519456867353
aF0.8048541473197866
aF0.15389122400014987
aF1.090557796405537
aF1.077934557748971
aF0.8758959474548264
aF0.6392444558931286
aF-0.7000806724730654
aF0.9148950031713093
aa(lp37
F4.1991980975924035
aF0.8342233318683042
aF0.7306498083629357
aF0.5661598724004627
aF-0.4279756533070989
aF0.729786674329188
aF0.8559354281520555
aF1.3600119286181072
aF0.5196518744912202
aF1.1510105263162533
aF-0.5658191077759236
aF-0.3580275843853548
aF0.9529319090606374
aF-0.1148170148993723
aF0.6880020747583491
aF0.3775697116031006
aF0.8174597286031396
aa(lp38
F2.431850939302266
aF0.5387475312221005
aF-0.1678785228980116
aF1.4353196091775304
aF-0.21512602783385845
aF0.24822220504396858
aF-0.3706565439241302
aF0.8995683242937033
aF-0.44977850376914863
aF-0.5216103567010762
aF0.5854599099519647
aF0.5806094600243915
aF0.751085654492865
aF-0.45842453307397973
aF0.9434824037744847
aF-0.27080081756540986
aF0.0933645398167177
aa(lp39
F2.7978003810753687
aF1.6446707668449962
aF-0.027555914155707906
aF0.8858474834260007
aF-0.16884228212150182
aF0.36379607712676426
aF0.05162673621872844
aF0.17656860881323455
aF0.9986751159119449
aF1.0371610315925328
aF0.8045366340707529
aF0.8658543408545971
aF0.6698536227640843
aF0.6893732693749708
aF0.20665325048653743
aF0.6571487896242043
aF-0.5436331387266742
aa(lp40
F3.4953787702825614
aF0.07544595196427684
aF0.0374276980344555
aF0.08912861002096033
aF0.9023054911475066
aF0.4248452492821524
aF0.3075047562456316
aF-0.26889172415485385
aF-0.06912912107980826
aF-0.5324107335613666
aF0.9562740263467385
aF0.38375302943859857
aF1.1438570710644813
aF-0.7135227794913127
aF-0.4553153540947186
aF0.10855856511338913
aF0.9186493354449694
aa(lp41
F1.371078885887739
aF-0.43314699952529206
aF-0.6854555836665803
aF0.5136368406118489
aF-0.7747761554357503
aF0.7549517218649656
aF0.8355830969311682
aF-0.3417658902038688
aF0.8441152855331446
aF-0.20763497603859365
aF-0.6452808827739479
aF-0.7783610937745898
aF-0.6824569598298069
aF0.1337101337823684
aF-0.5235910441047187
aF-0.14543325225837345
aF0.3373542433171127
aa(lp42
F2.732215216650774
aF0.8819976406563315
aF-0.2607490741941168
aF1.2225482110797434
aF0.019680010748295507
aF0.9352646222753568
aF0.11044391290501576
aF-0.17047576456431124
aF-0.13995388043695514
aF1.1177313640459146
aF-0.6707925954407037
aF-0.014939678565654842
aF1.1926877044736832
aF0.2493023244938506
aF1.017908945880381
aF-0.28645926804463534
aF0.5028542224021899
aa(lp43
F1.0743231031863647
aF1.2195995944248677
aF0.7459680652357449
aF0.2634257800997559
aF0.14373725078055896
aF0.9213025572323278
aF0.16627757562619752
aF0.634546276340561
aF0.0371386013628066
aF-0.08353325173492579
aF0.30956702202335745
aF0.015490447884332402
aF0.46229698007091674
aF0.4695314794169141
aF-0.6765436645696379
aF0.7587981946996089
aF0.6682125240983207
aa(lp44
F0.8829283335262551
aF-0.28576592586556454
aF-0.4993553116783473
aF1.307603743943077
aF-0.7272974875960986
aF-0.0017360296506749996
aF-0.9711186440211389
aF0.17610018081800236
aF0.6501871536107858
aF0.9896820189356285
aF0.5592221635252148
aF0.8673455630992764
aF-0.2763973980289382
aF0.5675885941948512
aF0.8701421620464441
aF-0.8389415362485994
aF0.3575899219600619
aa(lp45
F0.6474712717766505
aF0.31754590142751604
aF0.9655170235424503
aF0.7915035815296404
aF-0.05414929758238779
aF-0.02235789698561894
aF0.9024305934247883
aF0.10373498974210066
aF1.0708239513190307
aF-0.10726516342517955
aF0.2406893629761291
aF-0.06452512974645083
aF1.0925429335068708
aF-0.158735872680344
aF0.4763649586839045
aF0.08543406226572789
aF0.006231439636290428
aa(lp46
F0.16610993647181674
aF0.4846267594613034
aF0.7442538802840257
aF0.32875850927882516
aF-0.705591665503592
aF-0.4992800974381154
aF0.9378829940987968
aF-0.6077203704738631
aF0.7622825156252379
aF-0.30381456076491337
aF1.0393479612017527
aF0.941976128034914
aF-0.6565688489956574
aF0.5410842990354525
aF-0.6945114074955916
aF-0.5779615749324712
aF1.0138153079251628
aa(lp47
F2.7344355847256105
aF0.7507247009941189
aF-0.5282598238487916
aF-0.08275010700385713
aF0.8351137885925013
aF-0.8020118161233266
aF0.4799091607703004
aF0.3025520263879208
aF-0.05395197713059324
aF-0.31174623404754453
aF0.35665581508974836
aF0.263380122716777
aF0.5257854024014565
aF-0.4097051295999934
aF-0.1706144021536449
aF-0.2873666878722041
aF-0.2958063744503103
aa(lp48
F2.891844456078824
aF0.40366349382432076
aF0.24103823771660712
aF0.4685331495342341
aF-0.14287127249393225
aF-0.07625576756075265
aF0.9226415918534393
aF-0.18957802571086474
aF-0.10888532310143521
aF0.036054462175061926
aF-0.6112075316952219
aF-0.22695694482443943
aF-0.410511100093791
aF1.068591475691767
aF0.450052525618817
aF0.3198595578302055
aF0.9797632905459147
aa(lp49
F1.4763988979300222
aF-0.573161689895991
aF1.0209423384429943
aF-0.2177607126955586
aF-0.1156014077819609
aF-0.7821559909016543
aF-0.9177267514824528
aF0.506766334496943
aF-0.46072467795945166
aF0.08882439095194106
aF0.7794741862472024
aF0.06713686575436138
aF0.8574431205901167
aF-0.9062593747584072
aF0.12125965195718581
aF0.7885974504586765
aF-0.5975453091633168
aa(lp50
F2.8860112095187476
aF1.7832105963521028
aF1.1016080009953326
aF1.5304892803217747
aF-0.20756473057912245
aF0.8108732104543549
aF1.0061710005820126
aF1.359216799384722
aF0.10840175332053734
aF0.9413973256118958
aF0.5202015931755051
aF0.02397355637775142
aF-0.1962448343249425
aF-0.5030260484768044
aF1.188244380649961
aF-0.2048724627794493
aF0.9804278103998963
aa(lp51
F1.2755557596108706
aF1.2980449980169135
aF1.1719546973994537
aF-0.2912391781067669
aF0.35333260151994944
aF-0.7909697865918868
aF-0.09679939779286731
aF1.0136645615362805
aF-0.22943933568357822
aF0.6275304554233504
aF0.7780692882645948
aF0.6192257739372686
aF0.17403639306877283
aF0.12272768456462284
aF0.833970241816057
aF-0.6149243016180824
aF-0.3725811581981458
aaa(lp52
(lp53
F0.9300779065042382
aF-0.5013050938929133
aF0.8841232171802442
aF-0.3095997880858702
aF0.8533815560970542
aF-0.27282406473299
aF-0.9606509455843226
aF0.8416423543194801
aF-0.20989032321192866
aF0.8253890761320881
aF-0.2817873090939403
aF0.2471691237317531
aF-0.7657717198129764
aF-0.2346154225455619
aF-0.5498481027708827
aF-0.7685041444410772
aF-0.4747499856490708
aa(lp54
F1.0250518211642219
aF0.2394073521726333
aF0.20333470374284165
aF-0.4963111177194607
aF0.24077123930111746
aF-1.127351099911764
aF-1.1310148519728962
aF-0.6627155502790825
aF0.6939729503210387
aF0.8259797406445811
aF0.8957477909288766
aF-0.768135460258302
aF0.46890732237717464
aF-1.050745142611769
aF-0.4586563364311543
aF-0.9425388666281806
aF0.805183476612809
aa(lp55
F-0.7804373567373316
aF0.4481201760044738
aF0.5491952528667325
aF0.5444988278268658
aF0.7371808443548448
aF0.4928985570306076
aF-0.6977298527342314
aF0.3548564476301072
aF-0.5441410829309337
aF-0.6315898945721807
aF-0.1814753665075334
aF-0.725383271414253
aF-0.9894264454827709
aF0.524002079828072
aF-0.5428931132612366
aF-0.7997796143997329
aF-0.6385235636411992
aa(lp56
F-4.115800175831834
aF-0.9346026310273062
aF-1.3114545996162712
aF-0.9098303295325163
aF0.2304545922910666
aF-0.14924770007547009
aF0.05093624569099335
aF-0.372074159754856
aF-0.04869194384638068
aF-0.4298909066497844
aF-0.308837074671736
aF-0.2698354398717031
aF-1.0682167487049758
aF-0.48251271703336157
aF0.342239572094629
aF-0.7291492677710013
aF-0.5125542592898042
aa(lp57
F-1.9596666766737312
aF-0.5013354233110227
aF-1.432769400752783
aF-0.6909122178589849
aF-0.14591278187196216
aF-0.7142805537899053
aF0.07959993494954216
aF-0.2437247079140867
aF-0.5539319002394122
aF-1.2587592127580631
aF-0.3165408913457823
aF-0.4217921253972766
aF-0.6654161866460834
aF0.14339243192963141
aF-0.5322045962329546
aF-0.7011922252416671
aF0.5310289146733382
aa(lp58
F-4.7618833686528514
aF-2.0641968585702988
aF-0.9362839985239171
aF-0.2527837086992411
aF-0.6230973745383057
aF-1.1630888076665893
aF-1.5455967171904972
aF-1.6827842428252773
aF-0.40674916561668767
aF0.07879965001124256
aF0.20792146865461322
aF-0.5800421282023425
aF0.496005938517496
aF-0.12841517052822843
aF-0.12312620524648334
aF-0.16551372294459793
aF-0.9462562760003247
aa(lp59
F-5.8178091759155715
aF-1.1288606877696021
aF-1.2274630141358769
aF-1.1698078220955719
aF-1.5123061610804287
aF-0.3062129225550633
aF-1.2005107574477965
aF-0.6335075137300968
aF-0.35687761618677194
aF0.13095199759134954
aF-0.7833547731811853
aF-0.694926630992447
aF0.27803555190024265
aF-0.03600279712992263
aF-0.28709224874733225
aF-0.8233827102077318
aF0.10360675374916774
aa(lp60
F-5.101095041564407
aF-0.8863388208939605
aF-0.3825546086852404
aF-1.698064285800418
aF-1.0087852320302952
aF-0.8094429150451516
aF0.24773967937739608
aF-0.7789001029542245
aF0.37023168922922944
aF-0.9824723880171727
aF-0.5093676869045853
aF-0.7299122247900097
aF-1.2477491427347223
aF0.22557162992776766
aF0.5448475554979116
aF-0.9990872035003758
aF-0.9766952441557861
aa(lp61
F-3.3211203756245857
aF-1.4142396457672557
aF-0.14602014632492186
aF-0.764542754286651
aF-0.9591545761997238
aF0.11202875310402576
aF-0.9987727098693575
aF-0.47709890136812083
aF-1.137544283352428
aF0.4202722044005659
aF-1.3573956258582578
aF-0.46179346925590703
aF-0.4325746162394057
aF0.25048138519465
aF-1.029586710799747
aF-1.0468952087424799
aF-0.7994914503498679
aa(lp62
F-3.8384686796926797
aF-2.2606578548239793
aF-1.69608825490437
aF-0.14934479648441698
aF-1.1331225502604219
aF-1.358662896267357
aF-0.3389632093154274
aF0.24138269475717414
aF-0.08678149909865802
aF0.38414238926679173
aF0.04984121241380557
aF0.40614715778198923
aF-0.12359351669862526
aF-0.7228129602006089
aF-1.2437061855973095
aF-1.157632385484216
aF-1.118579837875855
aa(lp63
F-4.53788954278359
aF-2.2954467689974263
aF-1.7009150624982365
aF-0.3320518842968342
aF-1.1276390951230033
aF-0.23750073810204986
aF-0.17737802918845372
aF-0.6973435797700975
aF-0.04834377091624284
aF-0.7744733529378519
aF-0.21962603218553142
aF0.4833398657344889
aF-0.5778245255925551
aF-0.8750505573611219
aF0.35953522798982984
aF-1.1277098685221423
aF0.5555447956433625
aa(lp64
F-3.7141677903990438
aF-2.0984346539223875
aF-1.3722302338460577
aF-0.029403711516336046
aF-1.247253954335666
aF-0.1504184377286301
aF0.4431317721707087
aF-0.7347776737167735
aF-0.4801499326607364
aF-1.2286346292550512
aF-0.21800578129478426
aF0.15478173376191878
aF-0.25125001414545434
aF-1.1441059962818367
aF0.397749206467105
aF-0.18800965770763825
aF-0.04502555316421848
aa(lp65
F-3.740505790408537
aF-1.516020164537431
aF-1.943484911006699
aF-1.2606323519665568
aF-0.5873379037623048
aF0.16453344290179744
aF-0.047324865127520564
aF-0.6546694380742709
aF0.3566349162989925
aF-1.1421831642297897
aF-0.4539422706566522
aF-0.03750281514599215
aF-0.3909306199432609
aF-0.9506326279472542
aF-1.058562973004154
aF-0.43421685104145596
aF-0.17453421728220248
aa(lp66
F-2.2549918925881407
aF-1.4369536679416808
aF-1.7852611699233463
aF-1.2669907127782745
aF-0.31552780879745834
aF-0.6663551609083458
aF0.5681421166969072
aF0.03548367254371211
aF-1.244806904697188
aF-0.8009839768631444
aF0.3888566110591872
aF0.2092374661390651
aF-0.643666446731416
aF-0.9593221329117051
aF0.4872213210683274
aF-1.2238318235486143
aF-0.670104687775286
aa(lp67
F-4.606223043829831
aF-0.6355670171511348
aF-1.4015238676806763
aF-1.9667316070590912
aF-1.3450867168065015
aF0.05903498100471028
aF-0.08032611030467005
aF-1.6647204592872156
aF-0.25828900433223445
aF0.4639981889857768
aF-0.6591298895510628
aF-0.5953161463064589
aF-0.1368514736874607
aF-0.8183195786516742
aF-0.32958350828532434
aF0.19581884826153875
aF-0.5469804894724314
aa(lp68
F-3.6218222080329525
aF-1.2807413343120542
aF-0.22569351585034983
aF-1.259068019920307
aF-0.32674974714895433
aF-1.4108018177561032
aF0.14363218505919623
aF0.18584856421829035
aF-1.4714391018463655
aF0.5065171635556074
aF-0.7362976049984582
aF-0.28544210786742813
aF-0.5865724870097786
aF-0.5787756939606336
aF-0.2377700537402834
aF-1.221702937205586
aF-1.3467409363174183
aaa.