(lp0
(lp1
(lp2
F-0.8649783314080464
aF-0.18798342939953017
aF-0.898507018427738
aF0.5331942204850229
aF0.32341374272950674
aF-0.5362049180442976
aF0.39329138558536036
aF0.003142937550821845
aF0.9052300619967315
aF-0.688159301201611
aF0.9913567842925808
aF0.9539353185431909
aF-0.9216820988814893
aF-0.23292723820431127
aF-0.9537738553600119
aF0.6766825574179649
aF-0.33630742815407255
aa(lp3
F-0.6255215498297226
aF0.02689463656278268
aF-0.5904836846506945
aF-0.6707160421652438
aF0.376196875524351
aF0.6213461629458172
aF-0.546034201356923
aF-0.6092988809275135
aF-0.5888392257168649
aF-0.6330884061503552
aF0.45950029105770196
aF-0.040950019491531764
aF0.3557779488264341
aF0.5751328325350049
aF-0.54081738269536
aF0.9754566322380878
aF-0.5646680252765408
aa(lp4
F0.6407623523242139
aF0.18894987193800739
aF0.38593027727275375
aF-0.13229970365078003
aF-0.5147097149845541
aF-0.8045547759585665
aF0.9642214789092836
aF-0.25077891218856707
aF-0.9276424734999604
aF-0.807939851418876
aF0.10518757008312396
aF-0.7348198280113747
aF-0.5334678478790187
aF-0.3955168953052661
aF-0.15607828887021413
aF0.5259537823665115
aF0.2891040065185655
aa(lp5
F-0.1743521466231428
aF-0.6134021497529918
aF-0.16808290419030625
aF0.8109634798324039
aF-0.5464421795124155
aF-0.044343467371852796
aF0.06212448714759233
aF-0.4250962926401911
aF0.01967899323736466
aF0.5481241912042958
aF-0.01594742655610304
aF-0.686619992652522
aF-0.23330670869152192
aF-0.14863247874314656
aF-0.36222148323468906
aF0.24997522300787245
aF-0.6746841300762101
aa(lp6
F0.030171082175894703
aF-0.26823320192598477
aF-0.5266305823807154
aF0.5208735144692234
aF0.03223824736849146
aF-0.9436636528898095
aF0.12075714888619715
aF0.9134676187698398
aF-0.45263811611708515
aF0.37966178096582426
aF0.02944047116717785
aF0.9069816432675661
aF-0.4054594736380357
aF0.7510637141328766
aF-0.21127678970924002
aF-0.8117474609408071
aF-0.07970127092298007
aa(lp7
F-0.9493157635012013
aF-0.7379768439360344
aF-0.6060679389216603
aF-0.07757326625890149
aF0.6580772384011244
aF-0.41111101476189726
aF0.3544219574428238
aF0.10264175864022151
aF-0.437832252136483
aF0.017001776244309985
aF0.1887070669863784
aF-0.5346681879340325
aF0.4274197888360953
aF0.5745620408632748
aF0.4959632280261912
aF-0.8922623375013414
aF0.5545020965314307
aa(lp8
F0.2342544426087234
aF-0.2657711860472225
aF0.10769877066307765
aF-0.08275943215488835
aF0.7112741791123374
aF0.4573197751083842
aF-0.006978953192444459
aF0.3702821388879136
aF-0.23283448086263747
aF-0.4523496932123321
aF-0.7174367416490977
aF0.38789021166984217
aF-0.9226698648022689
aF-0.8728944340693536
aF-0.4365720254005856
aF0.24066021899018586
aF0.7099859762509209
aa(lp9
F0.8169574350195947
aF0.48606845078339256
aF-0.1508908114225982
aF-0.1295891271570655
aF-0.6175003430010595
aF0.2804165367572031
aF-0.5294745731499528
aF0.6845056315556854
aF-0.30750116098868663
aF-0.3655476833476954
aF0.5513700050751764
aF-0.894770940757996
aF0.22954853946495546
aF-0.6219597039301621
aF0.4495019456098568
aF-0.3228978470732422
aF0.3203093524483329
aa(lp10
F-0.08875945745801772
aF0.05950565346322123
aF0.9242380505179775
aF-0.47749788866878706
aF0.8945845620911683
aF-0.9483121866610986
aF0.9696327105680982
aF-0.13353788015841017
aF-0.32103934624848196
aF-0.5278837485404859
aF-0.3116451348816842
aF-0.9812417038557903
aF-0.06495997985278645
aF0.7174049302891234
aF0.6898620731870235
aF0.8185021291877013
aF-0.4490835344070181
aa(lp11
F-0.9120176823017829
aF-0.46772987230679974
aF-0.760758686455483
aF-0.5793622691318152
aF0.775305960842678
aF0.7141752632212981
aF0.29568271274616076
aF0.002202035996244911
aF0.492573866689898
aF-0.7707650826319721
aF0.1879266658688099
aF-0.8359209845909752
aF-0.8237792275408893
aF0.880471298457274
aF-0.7890048294725625
aF0.5745169027212482
aF0.6937222665220115
aa(lp12
F-0.8425991341119405
aF0.7923771236821853
aF0.23116285989506635
aF0.813006550705293
aF0.515135374321831
aF-0.23974491259802733
aF0.08360250639113076
aF0.23093170395595686
aF-0.19894809494566457
aF0.8055808108320917
aF0.831288366804533
aF-0.1379604285831233
aF0.49902270819842753
aF-0.4434557642651833
aF0.6357561603680613
aF-0.5681634169939347
aF0.5741145250159934
aa(lp13
F-0.6555259099116666
aF-0.19833460044107976
aF-0.1575714452465482
aF0.028841591154263657
aF-0.6945247683359321
aF-0.43850829708706107
aF-0.131966583604612
aF0.877141540168999
aF0.18118244274032902
aF-0.7205956392892796
aF-0.8923872508744652
aF-0.2749273252237936
aF0.1932679801895385
aF0.9824132693431689
aF0.6385137617013601
aF-0.9242319702103876
aF0.7360740272967103
aa(lp14
F0.2650980173678237
aF0.5852132413848241
aF0.681858040739127
aF0.4658008496607575
aF0.2244510083486606
aF-0.09813933614441916
aF-0.20313271139327727
aF-0.38813400461130776
aF0.15223135633973262
aF0.10080704470381385
aF0.9553319379688923
aF0.7679296021692001
aF0.57469684380607
aF-0.38639363390660586
aF-0.12422086363249374
aF-0.057211924076012055
aF0.9964745658775047
aa(lp15
F-0.34825198448040706
aF0.4724754485725424
aF-0.037581411043414725
aF0.7133730318048339
aF0.7078208897381095
aF-0.06798221310041064
aF-0.9948481219500995
aF0.41034105314651903
aF-0.6674262123830443
aF0.4749035857163544
aF0.9643955916610174
aF-0.1830297677429833
aF-0.3055809871720361
aF0.7899445267945917
aF-0.9053276209530219
aF0.7700770781182653
aF0.786072723861128
aa(lp16
F-0.10452520873701276
aF-0.9623443822862947
aF-0.7110333632681363
aF-0.5677723268880912
aF0.5884542960327825
aF0.39887565616441156
aF0.03898562460342769
aF0.6829739780557895
aF-0.10765566348411526
aF-0.6471805724142654
aF0.6654782825892789
aF-0.6683625434766871
aF0.1618819685466888
aF0.6535671295797265
aF-0.7961872611952923
aF-0.36541793993025595
aF-0.9612303484641889
aa(lp17
F-0.8914412173557407
aF-0.23381243829730614
aF-0.9467456508040186
aF-0.2934278438636144
aF0.48367310297949095
aF0.8876467002723041
aF0.9663910892766199
aF0.9736883693410276
aF-0.4612138083527386
aF-0.47995860496051423
aF-0.07053504612683215
aF-0.33910646223576335
aF-0.06628372600827825
aF0.12888661533993395
aF-0.1373794023374202
aF0.7044077603903163
aF0.4128966773158709
aaa(lp18
(lp19
F0.9950396355117948
aF-0.3985104556844875
aF-0.3259581950201173
aF1.06638166330709
aF-0.495062966760989
aF0.10613014669623036
aF0.7335318732447635
aF0.2135793853398078
aF0.7314280487481307
aF0.060389446732929404
aF-0.7154578747041467
aF-0.2994942053204154
aF-0.7930058983714352
aF0.696067742002757
aF0.06852973092156854
aF0.09191558218489186
aF-0.040895545981101414
aa(lp20
F2.2020805520091864
aF0.19670015704324947
aF0.7597708561529387
aF0.04949684243380092
aF-0.397933205203551
aF-0.21987595501937782
aF-0.4595183224483879
aF-0.16092371684562912
aF0.3887981431270616
aF-0.7965296314216009
aF0.2963239639696028
aF-0.3306961320166935
aF0.099906178216005
aF-0.2101073299610442
aF-0.44078563380052826
aF0.18488033768322548
aF0.06642256986206577
aa(lp21
F-0.004351353041097464
aF0.681061898119319
aF-0.43583150222047023
aF1.0658620912470542
aF-0.8385477123038184
aF-0.6574486204990009
aF0.6639168740202711
aF0.5139797883679653
aF0.3026765751059535
aF-0.7540856154301998
aF0.5338641766301286
aF0.43536114721052516
aF0.05941995849505083
aF-0.2062169514624711
aF0.9734062357558131
aF0.586699917932297
aF0.7649761937146885
aa(lp22
F0.3763929608004802
aF0.1971660551286897
aF1.0811018024581265
aF-0.5155691000404842
aF0.12067116736951009
aF0.2037305954234717
aF-0.3152223253022415
aF0.018309938166731418
aF0.7093255747794802
aF0.8659738227933981
aF0.7501720412481842
aF-0.5447538319740467
aF0.44914116066855286
aF0.30585095231225407
aF-0.8918809089140584
aF-0.3916692531171029
aF-0.36552364215188693
aa(lp23
F1.1024778952005356
aF1.247710629535463
aF-0.029499912632203015
aF-0.025890325129105135
aF-0.17127116864213854
aF0.20229791075886763
aF-0.10628665363538162
aF0.9264344204627706
aF-0.6632518345603151
aF0.8805798046784511
aF0.6368351320238884
aF0.45827812264555934
aF-0.45270436594461877
aF-0.27290557925115216
aF0.35002085479717826
aF0.8231041570633544
aF0.7350910749112156
aa(lp24
F-0.10105412473186402
aF-0.7048417443877338
aF-0.5657575854950073
aF-0.09699599560942229
aF-0.5493375231823703
aF-0.3730868249649218
aF-0.3975905886459897
aF0.24812721082746111
aF0.6585429184976821
aF0.12391192658779818
aF0.9525913273568793
aF0.6484758398504454
aF0.033689270256849986
aF-0.5948473761456752
aF0.013841465611018502
aF-0.17177019593082754
aF-0.2858810310572132
aa(lp25
F0.4222343727220709
aF-0.36838811318267956
aF0.511732423783175
aF-0.7130662602510552
aF-0.17585611602315712
aF0.4943087611580371
aF0.6464076364895902
aF0.4494964859475057
aF0.5649765997740404
aF-0.6884930214806906
aF-0.4179767850035189
aF-0.6499712448890035
aF-0.23387447868106712
aF-0.8370168670721956
aF-0.005487820228644395
aF-0.0591394571114099
aF-0.5417159186018359
aa(lp26
F-1.179310813477965
aF0.19207602469521695
aF-0.33575873510044757
aF0.8310158943932057
aF0.9573864555941167
aF0.21004014424769268
aF-0.8299425728749193
aF-0.745504460005238
aF-0.5590898084922138
aF0.11132297816873983
aF0.7906352136498349
aF0.768527175820485
aF-0.4451164012183068
aF-0.8405517122390822
aF-0.6462067769219292
aF-0.30375991201724606
aF0.3521286091122097
aa(lp27
F-1.0928495272068683
aF-0.402963473833038
aF0.3191326117278244
aF-0.6574451236415553
aF-0.5747190868942033
aF-0.9305680746426356
aF-0.3254088517639159
aF0.07785549013984948
aF-0.15754403056449512
aF-0.7070093750977436
aF-1.0114689068719054
aF0.41302041739076334
aF-0.6766870822558602
aF-0.8822201902588358
aF-0.9394468493359456
aF0.1550808208725207
aF0.16302913284911083
aa(lp28
F0.0346355011132041
aF-0.24187334773107347
aF-0.4653491226686044
aF0.4279477000206766
aF0.4428517067169812
aF-0.7533338414817983
aF-0.4688000622681882
aF-0.13794018009302203
aF-0.4722641024534017
aF-0.679825769586278
aF0.5888881888577319
aF-0.8313825349259127
aF0.5730786021741627
aF-0.16634532470521793
aF0.25741519056441725
aF-0.709047507762419
aF-0.2783439918041015
aa(lp29
F-1.0809059490488817
aF-0.31336341265786294
aF0.37745338605003
aF0.036419195486350225
aF0.1560900400442114
aF0.9402498080811323
aF-0.3593662191966451
aF0.3822117717415049
aF-0.6331030457477108
aF0.5958917558919087
aF0.7128405017102738
aF-0.8705943071721306
aF0.3705473175083241
aF0.45155172603465443
aF0.9149355855905625
aF-0.34145114294238876
aF0.2883571791932385
aa(lp30
F0.8861270494041511
aF-0.563678050543749
aF0.5804537814159079
aF0.11453244939958965
aF-0.7369556481828498
aF0.11431327940017431
aF-0.6784086612267135
aF-0.8693562077154574
aF0.09781169439512934
aF-0.2684661466437731
aF-0.5911228093344844
aF0.3316033345235331
aF-0.2583841758460961
aF-0.6952468927684611
aF-0.7138559150589696
aF0.10861209885034773
aF-0.2685895412838387
aa(lp31
F1.0464614850498801
aF0.2238880510478061
aF0.3296711986980569
aF-0.18245758679667531
aF-0.2899056409980656
aF0.6661840694496245
aF0.34208811101612585
aF-0.2888773482511863
aF-0.15765898087903704
aF-0.6973575473266087
aF0.3093644430880148
aF-0.6483051267754076
aF0.4069693805785499
aF0.9752626537954773
aF1.0913768552424983
aF0.35772009920502484
aF0.17492205165023833
aa(lp32
F0.2397209213993672
aF-1.04234878708413
aF-0.8155598770872879
aF0.7846093024959444
aF0.40137943292520645
aF0.5989061258238076
aF0.9334185013465882
aF0.16408146427660808
aF0.022776976097788455
aF0.5808311825713028
aF-0.2092011182530209
aF0.05240103209921721
aF0.7338750731687451
aF-0.5511864290655044
aF-0.66681910302427
aF-0.5291702770013361
aF-0.3734613218831084
aa(lp33
F1.366035064723411
aF0.8589443656703661
aF0.058839233049891165
aF-0.1096679311145681
aF-0.8583503693468156
aF-0.26225627237926763
aF0.9386704504660494
aF-0.10976204084155447
aF0.18833430744831686
aF-0.5605011409085462
aF0.7560189072000176
aF-0.019623012980388904
aF-0.6174035662239727
aF0.3024363300113441
aF0.948603297795782
aF-0.116120900976753
aF0.9034545492101531
aa(lp34
F0.9169342021447853
aF0.2460912723638984
aF0.6344229710978907
aF-0.3403322935024309
aF-0.8081572399320199
aF0.24531543833291564
aF0.48127728637339157
aF-0.43467332077087484
aF0.26537843655713383
aF-0.47381600562148324
aF0.5193956207075872
aF-0.7785744050913358
aF0.9488790745433886
aF-0.34779355082179286
aF0.9941954421746735
aF-0.5620113163460054
aF0.6873820573482605
aaa(lp35
(lp36
F2.9441555201288843
aF0.22031485371961163
aF1.6591822601191923
aF0.06113634152610589
aF1.0285772361916203
aF-0.12590506463215662
aF-0.12398599510444308
aF0.6799114146467358
aF0.22781895982955866
aF1.108794956862557
aF-0.4987458556090586
aF-0.4013654547068314
aF0.2878223283513645
aF1.034017456915596
aF-0.36104511780084275
aF1.137254268275979
aF0.41094766378589986
aa(lp37
F1.800664406461588
aF1.2148713937937066
aF-0.14675535101026538
aF0.76819606158661
aF-0.3835580917597601
aF0.3877847659051891
aF0.6875847916992066
aF1.0552724630852164
aF0.14284081245813635
aF0.22354269922162817
aF-0.46859231277789065
aF-0.15008597574101779
aF0.09832060375935786
aF0.0741044251283842
aF0.41801726332724765
aF0.21366976346030875
aF-0.23737049894014264
aa(lp38
F1.4728041639516345
aF0.47870760371894705
aF0.054680567285884725
aF-0.10831546307534724
aF0.3661704885751769
aF-0.2615161537576974
aF-0.22790348253668724
aF-0.22870687658052
aF-0.3732744129622482
aF0.6332379280767386
aF0.15266405118315218
aF0.5990776172845305
aF-0.47091602142345196
aF-0.5608458412217436
aF-1.0041141188590406
aF0.5321862679365958
aF-0.14646402786886797
aa(lp39
F0.0022109881310147534
aF0.14546356533851665
aF0.7656888192050825
aF0.29924743803910014
aF-0.27207012049892865
aF0.9185724749890019
aF-0.6156230659821819
aF0.44698816374465
aF0.26289467620723905
aF0.44133846842939856
aF-0.5447144601163455
aF-0.5337025798870486
aF-0.4418496044989254
aF0.8998612201349483
aF-0.10053714075031658
aF0.11904952549220736
aF0.7276685113454524
aa(lp40
F-1.5731346865907
aF0.03439787943540356
aF-1.0856698011033352
aF-0.08828416687584316
aF-0.19329543637099156
aF-0.5500625785910292
aF-0.9241500477544023
aF-0.9981358257072223
aF0.2603470269072916
aF0.6552569819793205
aF0.6474885890699612
aF0.14868199565201112
aF-0.32992081352298724
aF0.09372223193584782
aF-0.13419032647613388
aF0.6333895121639832
aF-1.2783774037676825
aa(lp41
F0.8551226509550085
aF-0.3661907246814709
aF1.0173280272674032
aF1.182318953573777
aF-0.11008725670314229
aF0.6136518102940306
aF0.9716573751442411
aF-0.5821304241398241
aF-0.41979125589873917
aF-0.8495198396744559
aF-0.21180776300175394
aF-0.16460850954186473
aF0.44427178305216425
aF0.06876871536618284
aF-0.2203088984947909
aF0.3641135562064967
aF0.214164049686897
aa(lp42
F0.17555139207988085
aF-0.5947780925852026
aF0.12706306091805394
aF0.4694729904240116
aF-0.5168225950488505
aF0.29207840302133947
aF0.06818339152910262
aF0.5618550848258806
aF0.5936470979878189
aF-0.5086104337408835
aF0.27727615689128443
aF0.4970831871025281
aF-0.03348856884392437
aF0.7312957936641596
aF-0.6042695462084867
aF-0.4528450911757162
aF-0.9976050005232384
aa(lp43
F-0.7175396302354311
aF-0.051715107400231414
aF-0.05073677918334918
aF-0.8434945897362109
aF0.4557980676209148
aF0.49408482041941626
aF-0.118450108537198
aF0.014986380379320638
aF0.5149116357867569
aF0.07135701111678756
aF-0.07471163164475246
aF-1.0843575043737606
aF-1.0014156048348541
aF-0.3056940565426051
aF0.41278798304716063
aF-0.7306263845375067
aF-0.3103952731048339
aa(lp44
F1.6165431117259854
aF0.13749850584282083
aF0.3957938405613477
aF0.9946271681413238
aF0.8384278829863059
aF-0.4865257453046453
aF-0.4820095949638525
aF0.03195140316720958
aF-0.15480786860066692
aF-0.5482955460551155
aF-0.16371409828981862
aF0.473684982788577
aF0.7402823465207757
aF-0.6305982387153405
aF0.8873825334858034
aF0.03339694858970881
aF0.19230017034974745
aa(lp45
F2.6941562893444955
aF0.8398256893607529
aF-0.2962354595302706
aF0.41093490243857606
aF-0.3557812491894316
aF1.101240180461567
aF0.5350343634001874
aF-0.2542209817715704
aF1.1857765049677063
aF-0.5052214094191216
aF0.07089902609924811
aF-0.6018661724584408
aF-0.36483791456355447
aF0.48542850311907304
aF-0.007214891969436849
aF0.060944990711555146
aF0.6098431948035329
aa(lp46
F0.3692967534784526
aF-0.15090598462780727
aF0.1582559605790518
aF0.03894101913156424
aF0.6412353133832424
aF0.8854767932467931
aF-0.27418444759898186
aF-0.326903848141189
aF-0.5651126094295132
aF-0.6786918188314057
aF-0.49226818435971803
aF0.3080632972037199
aF0.014251799637127081
aF-0.19713066754248976
aF-0.054159649622958606
aF-0.964481359209716
aF-0.9114738766273872
aa(lp47
F-0.9198828671529076
aF-0.6564037576017131
aF-0.24861381047348433
aF0.26505312356002037
aF0.14489269817822634
aF0.17682644049070567
aF0.6879035518541377
aF0.23443704606247934
aF0.5043554176735241
aF0.050266120641057545
aF-0.31837816992332163
aF-0.519370260195335
aF-0.766537084237445
aF-0.17911321897354335
aF0.23745396569100316
aF0.07778758362768884
aF-0.484779937901106
aa(lp48
F2.604592587533637
aF1.5413328567625313
aF-0.1418020732793107
aF0.3600404131887242
aF0.15271233595864156
aF1.2225703589187344
aF-0.68936757688343
aF0.43683465656627873
aF-0.7938503800155249
aF-0.2123024719222802
aF0.3289292223683327
aF0.22029435640540596
aF0.9844228378440708
aF0.876832939633096
aF0.17129347021690336
aF-0.17655261210901782
aF0.2354215934983374
aa(lp49
F0.6576496021402423
aF-0.05191776191730158
aF0.5738088607617707
aF0.20306024889626723
aF0.6681832748480224
aF1.0724345385399208
aF-0.17754469873317114
aF0.0447559386731525
aF-0.06714398576290406
aF0.658307121257426
aF-0.696256020654655
aF0.7825728493569016
aF-0.7592406310269835
aF0.9099211581455335
aF0.24416449409207755
aF-0.5858201782451732
aF0.17307563715155033
aa(lp50
F0.9651632689501803
aF0.9488732761646067
aF0.2012774270669951
aF-0.9072999882377627
aF0.09864551911249862
aF-0.112396256632152
aF0.3552922816179131
aF-0.8392498633012656
aF-0.6879104105888875
aF-0.7233558451165064
aF-0.4573510406932586
aF-0.3403437963186167
aF-0.21709246381266656
aF0.5235329790406779
aF0.16349441666835882
aF-0.951964592329059
aF-0.06234802609292542
aa(lp51
F1.428351278454556
aF-0.009174546197795326
aF1.0887044724225918
aF1.1763872239728472
aF0.7680253123795123
aF0.2649787167839883
aF-0.2875550122753775
aF0.5421225675718553
aF-0.4073205398511206
aF-0.7895771540359872
aF0.4041900764190721
aF-0.14973502422655646
aF-0.6114696074512579
aF1.1286245196854787
aF0.539701987837391
aF0.8476302398121955
aF0.32884461157891043
aaa(lp52
(lp53
F0.4566369769904481
aF-1.2636045526429178
aF0.9297116863503097
aF-0.2814867723733521
aF-0.8084059622671722
aF-0.9824412093815454
aF-0.1869008717691324
aF-0.8115422411011528
aF-0.885500006217502
aF0.5318494612498195
aF0.3781821939067534
aF-0.5460120534502807
aF0.8715496642035523
aF-0.4002928030240386
aF0.7104011531619165
aF-0.03704158706806728
aF0.2896857298702768
aa(lp54
F-0.06981852319912543
aF0.2443306327831446
aF0.22854930565518575
aF-0.27518848976101556
aF-0.7189235193258331
aF-0.5342426904142558
aF-0.8315794746645264
aF0.9729845014368425
aF-0.22767902184749542
aF-0.1276311478603114
aF0.02477178952750199
aF-0.4280738369081963
aF-0.01278227119844423
aF0.04876022983098923
aF0.9632721900402915
aF0.201923032537669
aF-0.9519968754532977
aa(lp55
F-0.7324050478757784
aF-0.04927480332287232
aF-0.12965480634627216
aF-0.10384022041979647
aF0.333929187379114
aF-0.20069993911487866
aF-0.775431080577516
aF-0.8881533882941196
aF-0.19695056627815177
aF-0.12612863032888405
aF-0.9295895127887069
aF0.5884553289500176
aF-0.2902856667367695
aF0.5620433925708077
aF0.20698627955711715
aF0.8572974024999843
aF0.5258170287662697
aa(lp56
F-2.5063970685045045
aF-0.8493501701531073
aF-1.364157411145583
aF0.30465839053658345
aF0.30067832616474255
aF-0.41147952845391833
aF-1.0272629502499613
aF-0.10016256914661066
aF0.18491604922925162
aF-0.2625300915432439
aF0.5512737201334897
aF0.4342278267971951
aF-0.5455798623338675
aF-0.6041388091098788
aF-0.7617407934167288
aF0.5149103719874384
aF-0.599376156356675
aa(lp57
F-3.645655259969511
aF-0.5260591924658982
aF-0.9843247633469859
aF0.21462828939543305
aF-0.27635185191855705
aF-0.8217620804399608
aF-0.08197038445490042
aF-0.6751236276281317
aF-0.601862620961481
aF-0.15278939850669013
aF0.3557224502065532
aF-0.6977389848130043
aF0.6311248722866221
aF0.33173382854271716
aF-0.42179304830754377
aF-1.192937229978603
aF-0.026077804184171414
aa(lp58
F-4.869925774005079
aF-2.371236270329255
aF-0.9553915817955431
aF-0.1450662987568739
aF0.34902846562789464
aF0.07935477511627612
aF-1.327692873133619
aF0.15437613471369885
aF0.18221932897062573
aF0.4480731602084522
aF0.4833208534273424
aF0.29425627399461235
aF-0.9658612586433515
aF-0.364016498752821
aF-0.35238292869679283
aF0.1469381201826325
aF-0.21541740927858882
aa(lp59
F-3.8190261854234984
aF-0.6201063988002335
aF-0.05242079295636862
aF-1.0575716095058934
aF-0.35692405486094453
aF0.20826714530876858
aF-0.5565180036539883
aF-0.8979387209252307
aF0.5701120850322764
aF-0.9015490198354629
aF-1.1524854448066033
aF0.08501120557238279
aF-1.2633729323993812
aF-0.4759195312849784
aF-0.1126683179319718
aF-0.5206401471988898
aF-0.4146558861676887
aa(lp60
F-3.963625871390824
aF-0.7552722183072709
aF-1.359717202131356
aF0.017545630149945497
aF-0.9120155867051226
aF-0.42158139862551713
aF0.2900609160438832
aF-0.8969645141009164
aF0.12572293694919948
aF-0.7760241866030627
aF-1.2366656726491523
aF0.5467412153225444
aF0.3047247158116185
aF0.023319846324769616
aF-0.01078617420011113
aF0.38148751726828617
aF-1.004683402882653
aa(lp61
F-3.7025792203025896
aF-1.5130282691940735
aF-0.8864353055911661
aF0.16855174282986485
aF-0.31179355996107533
aF0.5511089741095376
aF0.02549014771872488
aF-0.46428576724697074
aF-0.8128559392431811
aF-1.2633327450155971
aF-0.43682156520053733
aF-0.8583768685832753
aF0.4859066214608827
aF-1.279547771595679
aF0.3137155598066555
aF-0.1709265791054938
aF-0.07692354304551897
aa(lp62
F-3.0745594535112692
aF-1.0511745026600434
aF-0.9088767379681782
aF-1.4422946736333797
aF-0.25291761062143775
aF0.018198445711868915
aF0.10778172009436697
aF0.4449706458183315
aF0.5495643354664104
aF-1.1471322029471067
aF-1.078912077116297
aF-1.0045345222986715
aF0.6143050611846764
aF-1.2428618225407988
aF-1.245696230339117
aF0.6276186461010441
aF0.1478193572904774
aa(lp63
F-3.0572259763309195
aF-1.5756911490047478
aF-1.226029435493742
aF-0.5655674988997337
aF-0.15913520003078885
aF0.1691832974388958
aF0.3987415307973949
aF0.1886801904759245
aF0.1085623190214985
aF-0.1994234662229934
aF-0.9400015370083666
aF-0.8543419490372189
aF-0.07886934405038025
aF-0.9044217293202649
aF-1.3041966852501707
aF-0.010134570426045006
aF-0.4536403179588047
aa(lp64
F-4.1894487162487035
aF-0.764745332612542
aF-0.1763972378748553
aF-0.7157600511701678
aF-1.0578191437268074
aF0.1626115416200095
aF-0.9182084979109102
aF0.1751073422358449
aF-0.6418894915424112
aF0.2686444143459715
aF-0.5339447944386159
aF-0.5560207433732886
aF-0.33944280789036807
aF-0.889207272282992
aF0.48383273697585816
aF0.06590165920957472
aF-1.0473558247662829
aa(lp65
F-3.51768037306567
aF-1.41738202923645
aF-1.332400873680847
aF-0.9161245264442119
aF-0.4668510908852319
aF-0.31440339531615913
aF-0.02922255195878744
aF0.41045910680965825
aF0.23983159221412576
aF-0.347814559749279
aF-0.817774360170588
aF0.0132940125593399
aF-1.0125504029553114
aF-0.19439629157984814
aF-0.03221559426189381
aF0.02224657875870805
aF-0.9701952549652443
aa(lp66
F-3.9288747395019645
aF-1.9867553863023142
aF-0.3658021988842966
aF-0.42268666852979064
aF0.16882655423317386
aF0.33024326959001243
aF-1.5144997928213393
aF-0.4058884205267751
aF0.005920502045930974
aF0.4555552080869911
aF0.03355727286163
aF0.40033573303909736
aF0.4349214614300039
aF-1.0930746245454301
aF0.16377668604828358
aF-0.29418182853298236
aF-0.9600862807124847
aa(lp67
F-2.8423079211985036
aF-0.4484700882819722
aF-0.5354503580996067
aF-1.43448705241787
aF-0.4499273301827985
aF0.022699936886402806
aF0.06456971742501331
aF-0.5992362310147258
aF0.3102337590051226
aF-0.64898033339347
aF-1.0965863089142747
aF-0.10764490535626876
aF0.1716965689897967
aF-0.2999272780753816
aF-1.3474117817372337
aF-1.398009712262019
aF-0.8764394937036508
aa(lp68
F-3.9479685695354076
aF-2.243178239788881
aF-0.360971071778184
aF-1.1896079599690472
aF0.03092259509574304
aF0.3432812936207521
aF0.3593368316621218
aF0.27618493065331773
aF-0.29545572068514403
aF-0.21404324252847381
aF-1.2004370507598787
aF0.12170413022415949
aF0.2915658764235058
aF-0.7527654683516894
aF-0.4056019897633363
aF0.18197126771421124
aF-0.3233969385224783
aaa.