(lp0
(lp1
(lp2
F-0.3822204618128
aF-0.8795205144767897
aF0.24208425685415413
aF0.24867386838366712
aF-0.3253328698717317
aF0.7056141248003664
aF-0.9834332235116405
aF0.44501490254452136
aF-0.15731162720339054
aF0.040123840533816235
aF-0.8827828707643564
aF-0.832964189055424
aF0.9606065824962606
aF0.12227057869300872
aF0.203730919996435
aF0.6658096099802566
aF0.39790219864451726
aa(lp3
F0.29474023171711283
aF0.03299894266342229
aF0.8422209409673922
aF0.8945183936807368
aF0.05545209482925162
aF0.6604135044067447
aF-0.9614873257832548
aF-0.8231199258831785
aF-0.37816079570769734
aF0.8170364007309212
aF0.6917234713054006
aF-0.09477305142734793
aF-0.5664893781530258
aF0.319755244770336
aF0.623635591320872
aF0.32826800365540665
aF0.5641124266677562
aa(lp4
F0.4868625169647529
aF0.5810249796928921
aF0.3211764736831635
aF-0.8568468568487482
aF-0.1531385994527794
aF0.9532562862958565
aF0.1330635689474038
aF-0.8539118199923521
aF-0.1852641407290363
aF0.5617597658004743
aF0.36084459358293475
aF0.2823831853582728
aF0.5381923115737539
aF-0.07608751162912397
aF0.8299428734294538
aF0.3150983516710828
aF-0.619597058215978
aa(lp5
F-0.8119205396501197
aF0.08957824048211505
aF0.8727304265919704
aF-0.5720137255946707
aF-0.327336453262272
aF-0.6543893538045229
aF-0.4340574890292832
aF-0.6034601088830256
aF-0.2957147392643491
aF0.8332336451784101
aF0.7556190610454003
aF0.3027404222353016
aF-0.7162540164034696
aF0.3812871235016706
aF-0.30460493878352324
aF0.5317625941270616
aF0.3378979354544307
aa(lp6
F0.38006636905111835
aF0.20005160887052997
aF-0.856337245854222
aF-0.661540890782994
aF-0.6154085190397616
aF0.6385419491933819
aF-0.07527750143522915
aF0.7227658173440299
aF-0.9705518722294355
aF-0.08771201427787823
aF-0.27720531909503054
aF-0.6916339540678702
aF-0.15561820291796913
aF-0.2869494474270986
aF0.9594760233353874
aF-0.9283134254806049
aF0.17181636003695067
aa(lp7
F-0.8813389117425272
aF0.43610029609000933
aF0.5825863701363156
aF0.7977167469679702
aF0.9449622190504017
aF0.9520257064195696
aF0.22740173658930307
aF0.4148873537698683
aF0.19862977233405177
aF-0.4748975634320578
aF-0.12632641351384266
aF0.08717265997337953
aF-0.2722463259215153
aF0.4461352490366517
aF0.9500597099184644
aF-0.9106670877381133
aF-0.028730999416874292
aa(lp8
F-0.7492029477382163
aF-0.2706105490641446
aF0.5156563668177279
aF0.552208249911321
aF0.03252538413743955
aF-0.024777875864761878
aF-0.4173823234156169
aF0.37300294676214474
aF0.010354085261674806
aF0.5190952093703145
aF-0.490387186357655
aF0.9209931461191214
aF-0.8638716621566578
aF-0.5887397499594951
aF-0.1726101156108344
aF0.139788320318321
aF-0.45962969315957203
aa(lp9
F0.8461605291915626
aF0.24700437596743052
aF0.43536828588421606
aF-0.745422203063959
aF-0.3505966092202728
aF0.9364994300129383
aF0.21428996507993547
aF0.09220282320791218
aF0.9222508498714876
aF-0.4331374256473546
aF-0.8217637308835544
aF-0.6097608689644891
aF0.8891285196297063
aF0.29456787414839747
aF0.22989656684257542
aF0.7717603632641876
aF-0.2682793588387644
aa(lp10
F0.2430406084532699
aF-0.19198392753456273
aF0.23360469555340901
aF-0.14491987356007918
aF0.08254427186619862
aF-0.052778372393054385
aF-0.5451494316549963
aF-0.8568965351550533
aF0.19523002988027582
aF-0.11123156976621895
aF-0.541837394245233
aF0.06079255333198974
aF-0.5767969407590356
aF-0.18273258844206564
aF-0.9218891788344707
aF0.029322521324526063
aF0.8228439123769666
aa(lp11
F-0.2858427135625832
aF0.8774241150574371
aF-0.33047838964590714
aF0.9651104284589003
aF0.6216908110252344
aF-0.5203938698744275
aF-0.11690809667581781
aF-0.3881562659933335
aF-0.5745813247537259
aF-0.9751945321872586
aF0.6327597145173371
aF0.6229522668361203
aF0.15121767209071946
aF-0.14368235934822216
aF-0.05762649957869348
aF-0.1439165835840408
aF-0.6958892037140623
aa(lp12
F0.4632617439556561
aF-0.4316985202290562
aF-0.7182154490758326
aF0.3736658918180342
aF0.5550607016833904
aF-0.9609201634322482
aF0.3988233979319282
aF-0.4457776452479829
aF0.5501912309291392
aF0.23808071131696296
aF0.014581253455529186
aF0.3731662979344721
aF-0.2727251679465781
aF0.020186126518686676
aF0.15592975896382377
aF0.9477591397010703
aF-0.47412912666273854
aa(lp13
F-0.23216592872679676
aF0.3129143724138861
aF0.44049412163027113
aF-0.863749422058617
aF0.39276362483415217
aF-0.3286415910942362
aF0.7581507069776547
aF-0.775602111358032
aF-0.21231276588035009
aF-0.5923617014750189
aF-0.3280698825854349
aF0.07339357968538218
aF0.4094295114824049
aF0.0048499560496977345
aF0.677760253196559
aF-0.6389631570382528
aF0.08182332031204353
aa(lp14
F0.9431012677027002
aF-0.4382812004593357
aF0.14503720028167266
aF-0.25823045281060897
aF-0.2801678737247286
aF-0.9716114294877756
aF-0.5269654868516704
aF0.10686993940530232
aF-0.4998404833535761
aF-0.5728143156491607
aF0.2215753350192895
aF0.9784854497750799
aF0.7713575136581257
aF-0.03678516187051062
aF-0.8797253587127922
aF-0.8626760880491382
aF-0.4685444323128043
aa(lp15
F-0.34083680638349123
aF0.2492560238548842
aF0.32607787803731925
aF0.37626814056791824
aF-0.7656793728346849
aF0.0707208556505976
aF0.24839680261527586
aF-0.9758879688204987
aF-0.9463520703394461
aF0.9014518394105275
aF0.5903957262604966
aF0.5342753453847604
aF-0.6457036217559096
aF-0.900480323142655
aF-0.9925874738994187
aF-0.3330620124048196
aF-0.9927388927674325
aa(lp16
F0.650639033815904
aF0.6908056264913216
aF0.03465381919318489
aF-0.5370652119493324
aF0.9303590472967678
aF0.8672720512361147
aF0.8956178664808048
aF0.3276425425724898
aF0.8202916769104434
aF0.6113468053030962
aF-0.042503261867487874
aF-0.7218914854882192
aF0.6365373317664249
aF-0.1311402888508677
aF-0.6025942353325513
aF-0.949207353092532
aF0.038232203314837676
aa(lp17
F0.3993979773484624
aF-0.061323999520302985
aF-0.15305435310416016
aF0.1191555778439104
aF-0.6295010138113637
aF-0.9065201236682261
aF0.6314837449038697
aF0.44623631854432677
aF0.5487205153652694
aF-0.9536068572279326
aF-0.4545075478701981
aF-0.9694444642628002
aF-0.8101696661253723
aF0.5343206555228699
aF-0.584651752888508
aF0.7764941835729422
aF0.7897650322714989
aaa(lp18
(lp19
F0.4387790800009756
aF-0.6038150489989794
aF-0.6534377469441689
aF-0.2891752261753731
aF-0.10679298421232154
aF0.4017463455835567
aF0.17777972772599834
aF0.5155995342512556
aF-0.6851212997602656
aF0.0038447359790746835
aF0.5443015748392112
aF-0.023685472092447944
aF-0.8265123117169919
aF-0.11668813263698288
aF0.1557017241924204
aF-0.6046812345135337
aF-0.5247530575633232
aa(lp20
F1.1306944563166175
aF-0.2048810701665935
aF-0.6955430717850744
aF0.7441941732173414
aF0.04721967924297418
aF0.9617625515917392
aF-0.032763585893049334
aF-0.5434697400443108
aF0.6808102875642076
aF0.5111041111494715
aF-0.8929106476736672
aF0.6215172892187781
aF-0.7087395883164828
aF0.23057574943917694
aF-0.7186137620429768
aF0.8560072046159437
aF-0.4713443664777211
aa(lp21
F0.7114049684606822
aF-0.7290300444569324
aF0.2260029213293796
aF0.10946514419130894
aF1.025550473115243
aF0.27997945907155963
aF0.8467630967735883
aF-0.8216104121073332
aF-0.6533132989297686
aF0.7946912483224688
aF0.931436655400267
aF0.6539454447085022
aF0.9299144469694629
aF-0.18830538379926218
aF0.7138301974452657
aF-0.5251004447740625
aF0.9405760441684556
aa(lp22
F0.5445079457962514
aF0.38202413428837684
aF-0.8075449808864559
aF0.892867215050471
aF0.5230792334580131
aF0.8698778989968863
aF0.18220434557516396
aF-0.7717841797273887
aF0.49151147221278346
aF0.45539742051779053
aF-0.21976512817079993
aF-0.19042527237277673
aF0.26459932200031977
aF-0.7457382878207456
aF0.5779540761729576
aF-0.11554317837954747
aF0.38921479548780014
aa(lp23
F-0.13769828035876408
aF-0.11083166677125642
aF-0.9255928254017134
aF0.4154265215916704
aF-0.8521453485929957
aF0.23062890569015906
aF0.09418907464041638
aF-0.3881031142367517
aF-0.5549511360061778
aF-0.2575124239594517
aF-0.6687091133208296
aF-0.5193708905581982
aF0.28641780682119894
aF-0.33497963541507775
aF-0.8694261486704726
aF0.1760413696533612
aF0.5119959004442879
aa(lp24
F0.15451817318863342
aF0.7838227580376766
aF-0.1900840528623901
aF-0.1453852123966015
aF0.049207143716612195
aF-0.03498862841372664
aF-0.493869787014211
aF0.1754297290326526
aF0.6377810192969826
aF-0.5727286174146424
aF0.1691122096294924
aF0.8295331371598492
aF0.7570671354824821
aF0.5426916373413008
aF0.16637781530733378
aF0.08107215374347418
aF0.7604446911684858
aa(lp25
F-1.4041007612342296
aF0.10288365580676412
aF0.6789856975474752
aF0.1786381626862333
aF0.2939119788629698
aF-0.8214894926558538
aF0.6995228177218283
aF0.9068882754078745
aF-0.6170691968127708
aF-1.0528383581929213
aF0.5717381865331824
aF-0.4157184610421426
aF-0.2965539290547376
aF0.3056872991507196
aF-0.32198916060463045
aF0.5599400806787433
aF0.3144388672625557
aa(lp26
F-0.03795653948676056
aF-0.16611867951035508
aF-0.6952059346602635
aF0.33903497999478305
aF1.0006908007468396
aF0.011799259738153291
aF0.6025381910744065
aF-0.28577295568140076
aF0.8377853504148787
aF-0.5839072969035969
aF-0.2594053682101854
aF0.6337848623936031
aF0.7855856298857827
aF-0.21690228014107135
aF0.8433068402356193
aF0.43306048780194234
aF0.32261481903168204
aa(lp27
F0.4799745528384879
aF0.26329547265468084
aF-0.26124236588521466
aF-0.37827797322787726
aF-0.9629084036100789
aF-0.8193025037157246
aF0.5136597695484105
aF0.3513233074300648
aF-0.8368535775357941
aF0.4584120640238676
aF0.8515879539922062
aF-0.30979618370957207
aF-0.8507147656292687
aF0.49416792847694535
aF-0.8663451295916315
aF0.4086395250784694
aF-0.16015179454962652
aa(lp28
F0.3620129015958757
aF-0.06722786618004967
aF0.3264444412722602
aF-0.432121813059333
aF0.3961397496039447
aF0.17879906449628305
aF0.8304616294560109
aF-0.37679658120033677
aF0.8631421382971101
aF-0.34262359336031245
aF0.8773586841666274
aF0.2822337230261682
aF0.14451534223851267
aF-0.28409620220653753
aF-0.593301305947591
aF-0.7843843494902051
aF0.4771491033370682
aa(lp29
F0.9380342932200956
aF0.13638740454366335
aF0.37400325747404395
aF0.5958412597063186
aF-0.0654742095053097
aF0.8005244747757247
aF0.06422158455318241
aF0.7293603238898769
aF0.7197327430061997
aF0.08994702301763315
aF-0.8578171868353428
aF-0.4911726892601115
aF0.2309099593123568
aF-0.683809930259508
aF-0.7162896868385681
aF0.8108631424114895
aF-0.661571020591597
aa(lp30
F-0.19247499718242753
aF-0.9619170234379822
aF0.5882752887227277
aF0.9021617383766899
aF0.8041248952234318
aF0.3127165057236519
aF-0.17548266693624337
aF0.47756202700375433
aF0.5013496137504502
aF0.6854634887171804
aF-0.5844395027458285
aF0.7154339025684685
aF-0.4019660315944117
aF-0.9103659005151676
aF-0.5317084399512862
aF-0.4513849751505032
aF0.33251116504552075
aa(lp31
F-0.2236987406204944
aF1.0418440459384881
aF-0.49109356523246095
aF0.895849726469516
aF0.2972473961851754
aF-0.5158678518389015
aF0.8598821401308998
aF-0.27871570182176264
aF-0.2934719163482855
aF0.5052803908303547
aF-0.4187408428316683
aF-0.9608826885567104
aF0.8301040609753888
aF0.2558613880459808
aF0.7193270220777176
aF-0.41162045013909193
aF0.5038541396190699
aa(lp32
F-0.14896386403921638
aF-0.43666029402245576
aF0.5470455485704774
aF-0.8479298639176576
aF-0.042621309575454173
aF-0.2950271448477155
aF-0.48328826811412934
aF-0.9401110311951002
aF-0.7600425561572337
aF0.5891676617428963
aF-0.6376850648475155
aF-0.3965086719177039
aF0.6151598926508985
aF-0.9789315005662046
aF-0.8149719485818204
aF-0.21651956588944235
aF-0.037172419598116214
aa(lp33
F0.7602409114589344
aF0.7505297594761945
aF-0.24898188399035956
aF-0.0324101952472853
aF0.6880698058437907
aF-0.467356849673698
aF-0.353794765862302
aF-0.8869315837011734
aF0.4770231386450042
aF-0.9843296469818829
aF-0.6865561109524132
aF0.28437342669454296
aF-0.7484772453093723
aF-0.07366228309531093
aF-0.5891673840655297
aF-0.16532584447540916
aF-0.2761315109520298
aa(lp34
F0.2070187922812251
aF-0.19328004217766395
aF0.020484127654437502
aF0.3678547625625801
aF0.9628830430632114
aF0.9035603104168812
aF-0.47138045239374965
aF-0.3814619282611034
aF-0.7353857935259505
aF-0.3888979736430767
aF0.6306404136492859
aF0.39495670859113663
aF-0.7785595318598407
aF-0.6185883772948946
aF-0.5543410904583647
aF-0.04469321351720269
aF-0.8817426654999958
aaa(lp35
(lp36
F0.9855330503254968
aF1.2010918843596294
aF0.2523227499471484
aF-0.7242158611078023
aF-0.12223003007222594
aF-0.7094979887934311
aF0.7985936471937652
aF-0.8193747192144466
aF0.9131103883362784
aF0.18711881754086396
aF0.6399712528029345
aF0.01706461427436543
aF0.010195602891959848
aF-0.1125430787490117
aF-0.09166966444913711
aF-0.5487638328877975
aF0.3841654315042226
aa(lp37
F1.1653202114932466
aF0.7001903300355381
aF-0.42842491822938383
aF0.8004150786298138
aF-0.5794628257329799
aF0.01403734565671789
aF-0.4242358841134861
aF-0.7029249820314318
aF0.5510432002473373
aF0.8373795162078636
aF1.0206313377889922
aF0.7743329742483611
aF-0.49291932336606015
aF0.33818199008386385
aF0.37078163366127836
aF-0.26285289940053314
aF0.594021845180851
aa(lp38
F1.4517415988014346
aF0.22637725426525301
aF0.8788889605243158
aF0.6517589141708764
aF0.32715718327927346
aF-0.5020280301988115
aF-0.8414706508156842
aF0.35432181969506965
aF-0.2501329785226173
aF0.41872660003241075
aF-0.5227108861035289
aF-0.024765382393376563
aF-0.008530638916976977
aF0.729187865092679
aF0.7385070355623087
aF0.953241373954568
aF-0.14776746356388334
aa(lp39
F-0.40939057447114185
aF0.28638242129533115
aF-0.35012191184743763
aF0.09774068365614774
aF0.8525171619261814
aF-0.0336164814550939
aF-0.9841220265693019
aF-0.3564306583763182
aF-0.2862885284815179
aF-0.6886995022426935
aF0.02070595796179677
aF0.7157314623020584
aF0.42972657958834387
aF-0.322325524220482
aF-0.3302607126109162
aF0.6833811594152274
aF-0.48847716744363373
aa(lp40
F0.39944993536063744
aF0.7597029208706181
aF1.0755813449623661
aF-0.0766750897634822
aF0.33308048710186483
aF0.01140705131811546
aF-0.30476856512525363
aF-0.3143360145688684
aF-0.08005864945852088
aF0.16215180070488167
aF0.8102920038360031
aF0.9237580205919996
aF0.8693560008411464
aF-0.21149989734245098
aF0.9747525476479069
aF-0.23153683303606126
aF0.5730133226911549
aa(lp41
F-0.08441311098648642
aF-0.1080970405913797
aF0.4597085906404478
aF0.8027506819481774
aF-0.2925474358728956
aF-0.4244451845362219
aF-0.28880809312152056
aF0.22874130378611982
aF0.2861858347120497
aF1.0053416943186577
aF-0.7356328999620922
aF-0.6693315833659425
aF0.0605429517740717
aF0.7803065403807793
aF-0.7389114991517031
aF-0.08171466475379016
aF0.07724656699690144
aa(lp42
F1.4469369831531413
aF1.198163479702282
aF0.5504423956956441
aF1.022404706630171
aF0.5653459417446287
aF-0.32298297324579656
aF0.23879619407776617
aF-0.7384807503496393
aF-0.7856442841115173
aF0.2880478258776161
aF0.5541837478235819
aF0.3709476465669881
aF-0.8518625242391177
aF0.41465835478068946
aF-0.34365029183721885
aF-0.278704223843074
aF0.7912076446290633
aa(lp43
F1.3945806952186124
aF0.11632848163036807
aF1.1868808435232656
aF0.9544175884837226
aF0.596488017659687
aF-0.8054947275750721
aF-0.7031200506737104
aF-0.8170192807273762
aF-0.09903043202408425
aF-0.5703278336569075
aF0.09141894784922076
aF0.8258635216510645
aF0.050108228466071755
aF-0.025203440766048874
aF-0.41033642519474817
aF-0.6568997225536991
aF-0.19358749164457778
aa(lp44
F0.9492996904953925
aF0.5758307300127617
aF1.0309529467956908
aF0.892623244493623
aF0.5231179465254772
aF0.668722140406158
aF-0.8676705956829944
aF-0.6612552059620078
aF0.61423091137659
aF0.7335730358368314
aF0.9542037271697932
aF0.43476300780168503
aF-0.3664852185893688
aF-0.9226830862562351
aF0.38602957002692984
aF-0.7123784396041117
aF-0.503243453094676
aa(lp45
F0.5384882507834271
aF-0.30899220645655545
aF0.6923505009947835
aF1.221296483465644
aF0.12390227835739238
aF0.1309982351215189
aF-0.31120465537352443
aF-0.47808579330444273
aF0.9603248267517415
aF-0.121370754129442
aF-0.5649531353957741
aF-0.28830607992320717
aF-0.6845323034255152
aF-0.41095758003999494
aF0.59309466486275
aF0.4211789207986224
aF-0.8432923618261223
aa(lp46
F0.8687877831579532
aF-0.4559298517801532
aF-0.6017707487993816
aF-0.5351550467131544
aF1.022223789705253
aF-0.6350204641844138
aF-0.7320080250570296
aF0.109569245535498
aF0.6164583859392503
aF0.675531763903028
aF0.31727479911324113
aF-0.41941510651272984
aF-0.16769910354479364
aF-0.4772104375733656
aF0.889641987183765
aF0.5726339867981342
aF-0.40302619878613816
aa(lp47
F-0.4307483592881112
aF0.5577992029252975
aF0.4087875078841975
aF-0.14414093677639192
aF-0.7135030608861443
aF-0.313698677074618
aF0.7685251645392552
aF-0.23955971979483404
aF-0.4864931148372317
aF0.3094373637817365
aF0.7921966299536867
aF0.9585407871712542
aF0.2839051491389739
aF0.10511959398549808
aF-0.8997615011355093
aF0.6050450695391948
aF-0.21373008200380714
aa(lp48
F1.199567953705298
aF0.30266658795814794
aF0.32484061756375837
aF0.8937551139147889
aF0.3746423591722758
aF0.25207243579934513
aF0.04491771752847706
aF0.15175889049873464
aF-0.15086768045705293
aF-0.11803180267584544
aF1.2654197302500645
aF-0.5523998954620566
aF0.30964512608956635
aF0.5203209832302103
aF-0.291689635220243
aF-0.31669608869134924
aF-0.1874977094463978
aa(lp49
F-0.2062067838634204
aF-0.15650795111943747
aF-0.43790651796922087
aF0.01930920976655233
aF0.8092083495024748
aF0.17693730179213576
aF-0.4326642169915084
aF-0.5728238346057831
aF-0.07222004220056638
aF-0.9204507104152395
aF-0.984386022209833
aF0.20670205865481145
aF0.21919429341858826
aF-0.15665483150153703
aF0.04770574246438735
aF-0.6935945332625297
aF-0.9890127568874316
aa(lp50
F0.8028502426457484
aF-0.24683030030800893
aF-0.5904799233002209
aF0.06670142614373718
aF0.14869098912622977
aF-0.16306369005983098
aF-0.39972832432972183
aF-0.0040278704328683005
aF0.7250405927379614
aF0.6282979898661241
aF0.47420176879519954
aF0.5094274309596717
aF0.749195135662399
aF0.8808300116576084
aF0.007500514489719556
aF-0.19630483611947394
aF0.6594777713198609
aa(lp51
F1.3119077909021184
aF-0.6718261300097446
aF-0.7421740047363568
aF-0.2620168822764418
aF-0.07837603922195721
aF-0.592525700540261
aF-0.3973285464729087
aF0.5386219821262563
aF0.34255259856576836
aF-0.8048938138070936
aF0.9180408128010699
aF-0.0289081451576667
aF-0.05254970364619151
aF0.7197929749809814
aF0.9592331113142705
aF0.8557984444559592
aF-0.3189519050216742
aaa(lp52
(lp53
F0.022505649804376276
aF-0.20908111900884313
aF-0.32864373708687483
aF-0.36861720236938855
aF-0.1294310391938238
aF0.232788064085794
aF0.28636572240400093
aF-0.548370627631552
aF-0.024259319421896776
aF0.49039665032208984
aF-0.7479943013590451
aF0.6085832613435804
aF-0.07929095519104987
aF-0.2904091073064164
aF0.5390511709147177
aF0.11033604365255655
aF0.4861479343058474
aa(lp54
F1.176532632972336
aF-0.3881884083811315
aF-0.18449620841045156
aF-0.17616140421608067
aF-0.8824154477471432
aF-0.27361563665608846
aF0.020931832352416142
aF0.14987718017346882
aF-0.6061659762873851
aF-0.27104875778055426
aF0.6003071033334259
aF-0.5283308285649917
aF-0.6227012131239215
aF-0.8727974253180075
aF0.9020220323023811
aF0.8298019563442527
aF-0.13222703188143262
aa(lp55
F-0.5808766910700507
aF0.48116603700201976
aF0.10170257571529924
aF0.08985754316046674
aF0.3778972287726438
aF-0.7341695026101466
aF-0.15693260611488488
aF0.30536588770260564
aF0.7981912061563109
aF-1.0044137277170557
aF0.4596910647488662
aF-0.6948815470362213
aF0.2809818874258455
aF-0.1844035188002796
aF0.28692998557885074
aF0.07175687959721615
aF-0.5323279137763435
aa(lp56
F-1.0236075700282012
aF0.3395176447289549
aF-0.0013050849961642446
aF-0.47837180024824666
aF0.6682483311751637
aF0.23419816191044188
aF0.535502847356539
aF-0.9056015393240108
aF-0.24194324540822265
aF-1.2390009393871753
aF0.18836729887830245
aF-1.1879969603129297
aF-0.7840839964017906
aF0.3257401720617969
aF-0.3324169590662387
aF-0.9252641528406709
aF-0.13851418115142508
aa(lp57
F-2.1879990219314562
aF-0.7553294082353327
aF-1.0023449881239883
aF0.027016065351392834
aF0.2352812631515919
aF0.35672860106659005
aF0.0008547666558951236
aF0.6954747745306362
aF-1.0309715365538659
aF-0.14474582770469502
aF-1.0799184168314289
aF0.0935596146702407
aF0.7570345426952206
aF-0.4332476859381242
aF0.1996207085588714
aF-0.8259137789368324
aF0.12699073380704193
aa(lp58
F-1.5947609241389404
aF-0.5711849410119234
aF-0.5022684468796134
aF0.05597448058602372
aF0.17457532949937274
aF-1.100994834324995
aF0.30336290902173313
aF-0.9939235543070187
aF-0.49177716773406477
aF-0.9800787830300648
aF0.24196034462801516
aF-1.016701224056855
aF0.2160747250924767
aF-0.06926221720927145
aF-0.0489149598711046
aF-0.042492059004885306
aF-0.024131610111827396
aa(lp59
F-2.2492063728042924
aF-0.33249581484512536
aF-0.2530207265098986
aF0.2499470610661249
aF-0.9483786133843523
aF-0.7737716186291477
aF-0.6890622500307432
aF0.1595367797015878
aF-0.6261530619697431
aF-0.2595460801869201
aF-1.00792178327666
aF0.7588574886113447
aF0.5033358384709308
aF-0.7175327939819541
aF-0.5139010047104039
aF-0.5432605439221151
aF-0.7082335727473009
aa(lp60
F-2.0374863424487955
aF-0.2116356190899854
aF-0.1266135451141499
aF-0.021577913418693802
aF-0.0382630027714022
aF-0.15664671799779725
aF-0.9200246956923375
aF-0.43417251643520294
aF-0.15403603129319765
aF0.42237400050609647
aF-1.477037078897632
aF-1.0509107038148355
aF-0.9814226830075934
aF-1.0785832715387473
aF-0.7263530932319322
aF0.6129683756423588
aF-0.5102032494277704
aa(lp61
F-2.440917137043903
aF-0.79841533426929
aF-0.26457459642207504
aF-1.3747719851070743
aF-0.6471147986612
aF0.05995129631760968
aF0.1262847532247012
aF-0.7309420542518654
aF-0.20367120404400338
aF0.40519288186889035
aF-0.05847204789487944
aF0.3350372521084118
aF0.06469276120148158
aF-0.8145949694350115
aF0.19592234190300534
aF-0.2969960602643867
aF0.35273073844956637
aa(lp62
F-2.464720447338433
aF-1.0117415459552912
aF-0.09070346143842946
aF-0.27952399932232597
aF0.4515294859018666
aF-0.563115171966029
aF-0.5050752325170519
aF0.48606139716576174
aF-0.001838910864126425
aF-0.8001669791161189
aF0.01903416946824111
aF-0.9230303419131051
aF-0.3075491857257745
aF-0.8449469828833645
aF0.1208316203930319
aF0.44282742121510144
aF-0.3101722851532026
aa(lp63
F-2.285874181340583
aF0.053033179118301826
aF-0.389112852327744
aF-0.6836749676425753
aF-0.8655131589336453
aF0.2557209235604583
aF-0.5449150217086932
aF-1.1627674688941438
aF0.4355411377528788
aF-0.2875879465047022
aF-0.2447528820755771
aF0.5979466309017316
aF0.5094719246652557
aF-0.07998910815931987
aF-1.1597418929356123
aF-1.155964100016377
aF-1.0375306965579052
aa(lp64
F-1.6624679119638055
aF0.07715006934157145
aF0.43395357514906907
aF-1.076531545610865
aF-0.40604785709959124
aF-0.6772234080945551
aF0.23488250413693243
aF-0.590284927094854
aF-0.9264950984456294
aF-0.7822408820031611
aF0.3141644393457809
aF-0.9798119222508068
aF0.5340541417239718
aF-0.6794647573764269
aF-0.0077465616070393735
aF-0.45972242842570343
aF-0.4024976532286487
aa(lp65
F-2.048823679887072
aF-0.5572514623778654
aF-1.111185707154224
aF-0.6217661731154768
aF0.7617892564910967
aF-0.9956904724193775
aF0.8084327003692803
aF-1.0707056904952463
aF-0.3660856288734285
aF-0.5092823584612522
aF0.07048910603144329
aF0.8302088475620769
aF-0.24536123106724217
aF-0.9177366140373638
aF0.6557211921324311
aF0.6482673621295911
aF-0.34458864653419913
aa(lp66
F-0.8232340470858364
aF-0.5297669564391897
aF-1.350332633037534
aF-1.1239011418986857
aF-0.48411362585011264
aF-0.19397144946502168
aF-1.156725134133838
aF0.08100355068155785
aF-1.1326885272683522
aF0.017738464752333625
aF-1.2823520749508621
aF-0.5018057076377007
aF-0.05803185792523616
aF-0.43403934282738627
aF0.7880547420620155
aF0.5408628176498035
aF-0.6262346591005569
aa(lp67
F-1.5625171193043583
aF-0.8523470822934274
aF-0.7051409936641603
aF-1.235720904752633
aF-1.0070150378904645
aF-1.0150618171227759
aF0.3643969874586178
aF0.32197412509669415
aF0.5697337702006274
aF-0.2702153889645605
aF-0.4964479608344677
aF-0.6082511172870796
aF-0.5131292206103829
aF-0.6698874703842439
aF-0.1606049853072076
aF0.3759544644639614
aF-0.556457014390487
aa(lp68
F-2.4972666389302076
aF-1.7211158856391469
aF-0.295541643486789
aF0.29264100387597936
aF-0.5888416043480242
aF-0.2751079999463279
aF-1.1031006047758378
aF0.029709927154216772
aF-0.49939426474929954
aF0.5010996123784273
aF-0.025867057103705064
aF0.30263105341672464
aF-1.00984639841247
aF0.5463354947153162
aF-0.008443566375747663
aF-0.8767322176697097
aF-0.0839084257788617
aaa.