(lp0
(lp1
(lp2
I0
aI0
aI0
aI0
aI0
aI0
aI0
aI0
aI0
aI0
aI0
aI0
aI0
aI0
aI0
aI0
aI0
aa(lp3
I0
aI0
aI0
aI0
aI0
aI0
aI0
aI0
aI0
aI0
aI0
aI0
aI0
aI0
aI0
aI0
aI0
aa(lp4
I0
aI0
aI0
aI0
aI0
aI0
aI0
aI0
aI0
aI0
aI0
aI0
aI0
aI0
aI0
aI0
aI0
aa(lp5
I0
aI0
aI0
aI0
aI0
aI0
aI0
aI0
aI0
aI0
aI0
aI0
aI0
aI0
aI0
aI0
aI0
aa(lp6
I0
aI0
aI0
aI0
aI0
aI0
aI0
aI0
aI0
aI0
aI0
aI0
aI0
aI0
aI0
aI0
aI0
aa(lp7
I0
aI0
aI0
aI0
aI0
aI0
aI0
aI0
aI0
aI0
aI0
aI0
aI0
aI0
aI0
aI0
aI0
aa(lp8
I0
aI0
aI0
aI0
aI0
aI0
aI0
aI0
aI0
aI0
aI0
aI0
aI0
aI0
aI0
aI0
aI0
aa(lp9
I0
aI0
aI0
aI0
aI0
aI0
aI0
aI0
aI0
aI0
aI0
aI0
aI0
aI0
aI0
aI0
aI0
aa(lp10
I0
aI0
aI0
aI0
aI0
aI0
aI0
aI0
aI0
aI0
aI0
aI0
aI0
aI0
aI0
aI0
aI0
aa(lp11
I0
aI0
aI0
aI0
aI0
aI0
aI0
aI0
aI0
aI0
aI0
aI0
aI0
aI0
aI0
aI0
aI0
aa(lp12
I0
aI0
aI0
aI0
aI0
aI0
aI0
aI0
aI0
aI0
aI0
aI0
aI0
aI0
aI0
aI0
aI0
aa(lp13
I0
aI0
aI0
aI0
aI0
aI0
aI0
aI0
aI0
aI0
aI0
aI0
aI0
aI0
aI0
aI0
aI0
aa(lp14
I0
aI0
aI0
aI0
aI0
aI0
aI0
aI0
aI0
aI0
aI0
aI0
aI0
aI0
aI0
aI0
aI0
aa(lp15
I0
aI0
aI0
aI0
aI0
aI0
aI0
aI0
aI0
aI0
aI0
aI0
aI0
aI0
aI0
aI0
aI0
aa(lp16
I0
aI0
aI0
aI0
aI0
aI0
aI0
aI0
aI0
aI0
aI0
aI0
aI0
aI0
aI0
aI0
aI0
aa(lp17
I0
aI0
aI0
aI0
aI0
aI0
aI0
aI0
aI0
aI0
aI0
aI0
aI0
aI0
aI0
aI0
aI0
aaa(lp18
(lp19
F5.120623156128084
aF2.3527783782483382
aF1.0736933179039299
aF2.383472709890758
aF1.0595577094929052
aF-0.4009692963503176
aF1.1893494556074728
aF-0.5320720111120615
aF-0.642206407523336
aF1.1423302068317482
aF0.996539815417813
aF1.0096129945980696
aF-0.21598860248739243
aF0.03973488318012124
aF0.3600957217141946
aF-0.357317434946793
aF0.035244452710433
aa(lp20
F8.69279576147371
aF1.9883150970536736
aF2.064642752788009
aF2.932507121416973
aF-0.08810881317344306
aF0.5138543395369874
aF-0.41904260073057453
aF0.03224222117893754
aF-0.0017929169587339105
aF0.13030786144612858
aF0.7351068869176881
aF0.669786426309707
aF0.08952735713916278
aF1.2068892927792882
aF0.049863882184724415
aF-0.24904273384149903
aF-0.5453399800569533
aa(lp21
F5.6627709947408595
aF2.6219676342018485
aF2.0663689270271286
aF2.118887713517773
aF1.0429422042947152
aF-0.12937699891646412
aF0.43403937863750264
aF0.18442802864591043
aF0.7784733615389765
aF1.2439641446566638
aF0.07670742228683018
aF0.055651879287414815
aF0.9140209160651973
aF-0.32216361865121756
aF-0.5374897457717701
aF-0.11982871924645654
aF0.3878625021984233
aa(lp22
F2.3525605750669114
aF1.0581846599703335
aF-0.2657910981336986
aF1.0117304590807756
aF-0.3945548246692721
aF0.6915992257814096
aF0.6112685125175406
aF-0.7919757403277061
aF0.725736979894228
aF0.10217239459837074
aF0.4284987305110412
aF0.5065023889610056
aF-0.07761540024634579
aF0.8866870335882335
aF-0.5459915555057749
aF-0.15686401201511493
aF-0.5875327478395337
aa(lp23
F2.0175089998714952
aF1.520631785273008
aF-0.04317140871820045
aF-0.2643547592346065
aF0.8320931265668935
aF-0.2180054468282335
aF-0.7558933594303044
aF-0.19482106758772
aF0.33316113043538303
aF0.7167156453822608
aF-0.2718043177126883
aF-0.654281488838099
aF-0.2785303688146603
aF0.5408621701142773
aF0.06332649729058984
aF-0.6619865494842035
aF0.8063592143645785
aa(lp24
F4.648098726199385
aF1.5771841391257377
aF1.555129874533911
aF1.4648795764925713
aF0.5206660897961857
aF-0.17441092955988555
aF0.050003191196907326
aF-0.7894538068439374
aF0.6429643448269895
aF0.19187428088915157
aF0.7395349160885473
aF-0.27192957279045776
aF0.12114881031047336
aF0.09999264866418811
aF-0.5431378013167876
aF1.070418868325952
aF-0.05882759034604684
aa(lp25
F0.12258110294471816
aF-0.7209640289195272
aF0.7554828658611081
aF0.3529314570380145
aF-0.8793392905954239
aF-0.19226608882146076
aF0.3625249791383167
aF-0.48512047717891266
aF0.898583480966723
aF0.577338588678248
aF0.6483707233218277
aF0.5890948548003018
aF-0.3883533691522537
aF0.43423695751773417
aF-0.7969093676322496
aF-0.6717027751100043
aF0.5503997605501707
aa(lp26
F3.2769039149089867
aF0.6999660366485194
aF0.4407142065753289
aF-0.015441869626034901
aF1.1648615364643338
aF0.10909236289388634
aF1.0500651447250093
aF1.0690507999397127
aF-0.6609719635957636
aF-0.19932798354501527
aF-0.24334248297483183
aF0.5660081830849422
aF0.020372520893941877
aF-0.6539792938215707
aF-0.5059573070259964
aF0.2747745750203919
aF-0.48349252463104214
aa(lp27
F0.9528738371118691
aF1.1315529280295156
aF0.09408592441983993
aF1.2470715490237756
aF0.11445102809711373
aF0.8797933579538557
aF-0.9368099448254206
aF0.6648369242760879
aF0.6737682715628169
aF-0.3151159235898358
aF0.24168137153142102
aF1.0065124116325692
aF0.9882969399603714
aF0.7072206737606543
aF0.9386665514938024
aF-0.6523773937579024
aF-0.5242570545326276
aa(lp28
F2.254236147476036
aF0.4738762564797339
aF0.6906419165857938
aF-0.2802523780568286
aF0.7208376090601138
aF0.5816625760887753
aF0.19073612458062592
aF0.8235433780300071
aF-0.30242756879155114
aF-0.4971036802278046
aF0.3029526642196652
aF-0.6372832238068189
aF1.062005363330817
aF0.1003408220212491
aF-0.7219220156642194
aF0.04961107360619883
aF-0.5019225253489213
aa(lp29
F-0.087954347559094
aF0.41040634168834716
aF0.2853452683496977
aF-0.5797024156919585
aF-0.6438561519929161
aF-0.5601154667478174
aF-0.1745566160416277
aF-0.8279624608546367
aF0.7613036504452607
aF-0.41913619031469745
aF-0.3005761297063304
aF0.7632277549178481
aF0.366652034318661
aF-0.9265645818792193
aF-0.22791005977840598
aF-0.34430828910180267
aF-0.9070696398411996
aa(lp30
F1.0597922517744398
aF0.13646951192243656
aF1.290550418338681
aF1.3641324520851503
aF0.24674955879880614
aF0.43827331841511086
aF0.8317176766686972
aF0.8725616176530546
aF-0.7160430586983034
aF-0.4706407448189016
aF0.9881434740905785
aF0.20819211709904972
aF-0.005928843196244337
aF0.3627323823435838
aF-0.7662343017987905
aF0.3215102234839683
aF-0.09714906362102824
aa(lp31
F4.5329927733202
aF0.6366830103293928
aF1.4997438539725816
aF0.909281139933448
aF0.4226481581361601
aF1.2384861185891318
aF-0.7925941270273286
aF-0.20897848149913179
aF0.3262051347396787
aF0.33443316049127864
aF0.397243669959821
aF-0.36165438733074917
aF0.19025187134692453
aF-0.36639892033910737
aF0.40759907572220383
aF-0.708358292893381
aF0.2957154007179836
aa(lp32
F2.1461223926280715
aF0.5262077900888166
aF-0.23064147144876937
aF1.6149695785704672
aF0.1321683357932793
aF-0.7445934526536387
aF0.12397576015530117
aF0.5969800247942447
aF0.4581114565211907
aF0.9069233478898185
aF0.8528747784357241
aF-0.7524101211188108
aF0.19905286394883848
aF1.080759145871555
aF-0.037174450884986214
aF-0.2466727508198214
aF0.8792262642320454
aa(lp33
F4.8970019782439165
aF2.2276971127668257
aF0.7498571862430738
aF1.245394799839167
aF0.9656653161772334
aF0.9606419961079162
aF-0.6314387694979899
aF-0.21177936819263302
aF0.06646736238628544
aF-0.8099127281099181
aF0.05134752809850336
aF-0.5241297446784466
aF-0.26407403533594315
aF0.690797612938703
aF0.8087475064860177
aF-0.4140925681894467
aF0.7093265451041088
aa(lp34
F4.728108628058975
aF0.7549690594075964
aF0.5155932534110219
aF1.788889392070696
aF-0.2053199143024702
aF1.0587097546466444
aF-0.1872208764702998
aF0.9552544411299849
aF-0.3073430208270333
aF-0.2684679071013565
aF0.23148332736489868
aF1.1270528336919179
aF0.7211401006011429
aF-0.6914406967029831
aF-0.4124240743623589
aF0.6804883103853534
aF0.8166578701352651
aaa(lp35
(lp36
F6.91684958253662
aF2.108668556841756
aF2.461069240459884
aF3.1991366237891974
aF1.418095472721942
aF-0.012506945745550108
aF0.45347667625412025
aF-0.6068102477888514
aF1.1433359952431519
aF0.2181411987683322
aF1.118633627570801
aF0.6799709853938667
aF0.8404102623950733
aF0.8644460435512874
aF-0.1472290969620448
aF0.5649116667531731
aF0.8299301271733547
aa(lp37
F9.134436049518499
aF3.4683644762885257
aF2.8665429552303756
aF3.2922079309169057
aF1.2782379009595433
aF0.6275321459763474
aF0.5410377722234577
aF0.7949851090417137
aF-0.5686037134972743
aF1.1296551535425376
aF-0.3340312629326412
aF-0.20569872718614787
aF-0.20705162728115073
aF0.29959533060325244
aF0.89281345483749
aF0.9566010958353496
aF0.4317464169019594
aa(lp38
F9.728333228874241
aF2.51581654785712
aF2.2681258370393413
aF2.376812793782699
aF-0.19543623977901214
aF-0.11730302832314313
aF0.9997626766578284
aF-0.4392312810836066
aF1.1809640753437622
aF0.3653591529432165
aF0.1490461572751092
aF0.5857750982861631
aF-0.1741196467927365
aF0.9969729232873292
aF0.7023565867915682
aF1.2579455879638957
aF0.08201215307138776
aa(lp39
F3.682962695940719
aF0.6031654410888294
aF1.7275396470515345
aF1.3333921075243722
aF-0.41672869048569544
aF0.9741558243311716
aF0.48178320260409924
aF0.867591360502458
aF0.9505256436643038
aF-0.14564989018754831
aF1.0633658740984389
aF1.1019410294597765
aF-0.6163527203609767
aF1.1323539750552136
aF0.23132193275271612
aF0.7126671757238542
aF0.3020471821850015
aa(lp40
F3.839192892353156
aF0.4776807351728218
aF1.0150310063675643
aF1.0201221820645316
aF0.3154027676527784
aF0.6779562816890697
aF0.2848504309133238
aF0.4257199513650613
aF-0.7705353115428188
aF1.0301451612831352
aF0.8317924025005482
aF0.6813710188968923
aF0.6519783776600262
aF0.429086645294282
aF-0.06769064538232233
aF-0.4177801597954127
aF0.9990715858837023
aa(lp41
F3.9239533251890433
aF0.5826391144782256
aF1.880440568345815
aF1.593604768271309
aF-0.31129709321082283
aF0.0532626468817877
aF-0.2252651934760592
aF1.0836002353983623
aF-0.09569592418488904
aF1.1065890653072057
aF-0.6122044232277648
aF-0.17103746046162013
aF0.4650385233685984
aF0.5908195575318853
aF1.2186792030629294
aF-0.19550689101784507
aF1.0189956567066223
aa(lp42
F0.10184468197617677
aF0.47806348809029847
aF0.9098528006650848
aF-0.10165996053753783
aF-0.5389200739253635
aF0.601547232275426
aF0.29202523004226266
aF0.7461970986179457
aF0.5370404160007155
aF0.8098646135697464
aF-0.05679277358120062
aF-0.13303288760796558
aF0.22995471707972975
aF0.8017381332797426
aF0.6614056265249482
aF-1.0072885593345922
aF0.3579528096598007
aa(lp43
F3.977004872902745
aF0.5483508677388572
aF1.8454871447184067
aF0.5323477100739135
aF-0.6017250918731397
aF0.31407633572604965
aF-0.16830931913420769
aF0.04189126962524238
aF0.441819347585494
aF-0.3275620211428009
aF-0.4863635424997019
aF1.0517288897977204
aF0.6946183384366938
aF-0.44585127462664104
aF1.144249436918014
aF-0.1076295910095446
aF0.5761975332954108
aa(lp44
F3.3735745455032125
aF1.0756389966268771
aF0.3601253024136101
aF0.5507009079287952
aF-0.7131231016582931
aF-0.694669858887457
aF0.732206343560513
aF0.5363995906105542
aF0.7602724690275425
aF0.8670850118518908
aF0.06384101302447551
aF0.34291299325087526
aF0.5477718396369148
aF-0.47208807264685754
aF-0.8374396968935157
aF0.8386428246766205
aF1.0354657445189737
aa(lp45
F3.381892249742844
aF1.2076668022351267
aF0.8954662502937143
aF0.809410685747139
aF0.20042279998076085
aF-0.7244156033642919
aF0.1706452324105233
aF-0.885045165023023
aF-0.14920055667177537
aF-0.24388700791745568
aF0.3779886033660783
aF-0.5754571270276887
aF1.082156720566855
aF0.6379881498423089
aF0.47742908574592346
aF-0.5253453610284514
aF0.4712387746317793
aa(lp46
F1.9956757346960237
aF0.2748093786670947
aF1.3156419075033907
aF1.034839000251013
aF0.6611438104780549
aF0.6142743124624587
aF0.8917971541165487
aF-0.4500266342165725
aF-0.1060822066711911
aF-0.8559355243935375
aF-0.8436726716749192
aF-0.6998784405415354
aF0.45624063763429457
aF-0.6953715609586273
aF0.9575311083672612
aF0.13695478411542839
aF0.18163886126242604
aa(lp47
F0.39504690578930257
aF-0.40562669428132386
aF-0.06958470071919237
aF0.6184007076264576
aF0.9950126185872452
aF1.0193580563950513
aF-0.8717618028812193
aF-0.04962930793083547
aF0.030426000066997853
aF0.9964190407477546
aF-0.5972773539046397
aF-0.2796289868850468
aF0.9972513895444219
aF-0.7644285437195673
aF0.8392439699812507
aF0.6501195376534981
aF0.1390971438071657
aa(lp48
F5.951035295705121
aF1.6952168855309788
aF0.6227570766545701
aF1.2495304583792979
aF-0.4716347466242475
aF0.6238488391133751
aF0.37255531129518893
aF0.7286536564202716
aF-0.0919261345853794
aF-0.38904395397333247
aF0.23185437412611484
aF-0.5624382209230866
aF1.0414989450589818
aF0.29216926466982884
aF-0.690297582049901
aF-0.03246345021304149
aF1.2517785051215202
aa(lp49
F1.216120544679003
aF1.3545643181265523
aF0.9211179602584526
aF0.4829492073096831
aF0.8706387450026001
aF0.027009008894718623
aF-0.528747383728701
aF-0.6723899420631706
aF-0.14792920381585448
aF0.1930631367437964
aF-0.07190046824429108
aF0.8269388973450512
aF-0.8810247302222096
aF0.013687504771506494
aF0.6007372857908778
aF1.0684552217171426
aF0.6278206701391972
aa(lp50
F3.6901411739262806
aF1.5082210173957145
aF1.3790423252769088
aF0.7818386680283167
aF1.2736525763807298
aF0.883410709846662
aF0.5418908468633558
aF-0.5209679883120653
aF1.1108896698750428
aF-0.4213500502533127
aF0.17324573027758464
aF-0.8102373353190174
aF0.05536423116241354
aF-0.21129395938872456
aF-0.2505630432157177
aF1.0959297357146143
aF-0.3017023097365389
aa(lp51
F4.869769472663625
aF1.6354155825365282
aF1.177838944390521
aF1.2454529262163843
aF1.2927880129953615
aF1.3845497888710399
aF1.0010820657356196
aF-0.2715312423004875
aF-0.07234348205425778
aF0.1493756771466362
aF1.136358421591147
aF-0.06521234544997863
aF-0.418310242305022
aF1.215145640084562
aF0.12656191107100256
aF-0.15182778718567874
aF0.6276394373046451
aaa(lp52
(lp53
F15.19523343437421
aF4.450336052162647
aF3.8822209457622296
aF4.571157771594126
aF1.2127152062303206
aF0.834152573862547
aF1.536360548691254
aF0.6182068714860719
aF0.02180199609490692
aF-0.15051791069943835
aF0.38891970632383593
aF-0.23906104680642795
aF-0.3041653435098171
aF0.2110926210289708
aF-0.001996224833384653
aF0.21472189041051798
aF1.4838337565878492
aa(lp54
F10.146791629864852
aF2.464394067425528
aF2.8397617226590266
aF2.5202640515753636
aF1.4999385231968785
aF0.7746928982590008
aF1.012427098810052
aF1.2523149329957917
aF0.5878347403761343
aF1.0793114527058798
aF0.6144125802334351
aF0.11827310401660343
aF-0.20316114070817942
aF0.9559397140037945
aF0.43310056502043554
aF1.0652927316749923
aF0.8989635535864886
aa(lp55
F11.468447395761919
aF2.5733628040911247
aF3.876888465771152
aF4.122135625827049
aF1.3232946533208607
aF0.7236071576822279
aF0.1910554309611483
aF-0.24857086858444433
aF0.32541534383837145
aF0.6514422690932448
aF-0.17234642144994866
aF1.3306312709114507
aF-0.08747530231951975
aF1.4115706720899666
aF0.04821351960509181
aF0.24752707817014066
aF1.247437405493233
aa(lp56
F6.890967568261585
aF1.6906253956943906
aF2.4077220684665632
aF2.900022142832898
aF1.1353225942373106
aF1.0790804298395604
aF0.004933386035052243
aF-0.5543657257529455
aF0.7029063704835179
aF-0.3441515235277391
aF0.19867275750870292
aF1.1235991524217104
aF0.6133677259627273
aF0.5742461977401516
aF0.4670357892087356
aF0.29357423354056655
aF0.38101172119938764
aa(lp57
F7.32215132566677
aF2.261062627135533
aF2.4837314682928495
aF1.3335279319470374
aF0.7317939784045131
aF1.3959642541501083
aF0.6813591778304815
aF-0.11639358496625551
aF0.2688379464764159
aF1.1629418091172945
aF0.5999906843800139
aF-0.6530460689463838
aF0.1365877619701549
aF-0.3885606481001351
aF1.2588753636027596
aF-0.03349092497284401
aF0.28064813356025736
aa(lp58
F6.777136417749849
aF1.7031025042412824
aF2.1442453752488886
aF2.2499622946118896
aF-0.01553887961518863
aF0.6376756953059172
aF0.36399703656724747
aF0.18671530088177807
aF0.8248494295394629
aF0.4333953405398726
aF-0.07193266634592352
aF-0.26067046168274693
aF-0.13400117370793496
aF0.521431747986518
aF-0.4966258433197933
aF-0.24653856178439423
aF0.14336118367964976
aa(lp59
F-1.5743319859822658
aF-0.7603995100862071
aF0.015940827973155276
aF-0.29233168491376027
aF-0.4784582573329591
aF-0.6060104644552095
aF-0.6798967835051398
aF0.3317126804788505
aF-0.6411628849912014
aF-0.15166481396599432
aF-0.9344385639272152
aF-0.45158380474589616
aF-0.11140932725436745
aF0.5221205462159746
aF-0.9683990461037489
aF-0.8181279498685775
aF0.7659522886997389
aa(lp60
F7.275785354983501
aF3.1548540100885942
aF3.0537217455337475
aF1.4362332681517473
aF0.23844053434155482
aF1.5245939081047997
aF1.2582900983898948
aF-0.08934748441111942
aF-0.043649703312293946
aF-0.17352431025530696
aF0.3960032832226867
aF-0.10883180142942586
aF0.4446724328439193
aF0.16751082716345234
aF-0.2985091757356157
aF0.8657055695843348
aF1.488625139568074
aa(lp61
F6.124820916955848
aF2.7406719683032024
aF2.297231771773719
aF1.0519863469458683
aF0.7226537144825809
aF-0.15934331809606167
aF0.1363878678162988
aF-0.2672306265418599
aF1.1547681597199762
aF0.7009079861258543
aF0.014037207251250716
aF1.0924316693613036
aF0.02738143769255189
aF0.8740002932704802
aF0.8222833760529865
aF-0.523296183863434
aF-0.4214567465432964
aa(lp62
F5.011311822646666
aF1.9691871035183672
aF0.689937807888074
aF1.0262287509219454
aF-0.37661260289057014
aF0.3109117651668059
aF0.7226205858675138
aF-0.6600534963742921
aF0.7939010653628159
aF0.5522939947861578
aF1.2229137120880138
aF-0.22387644486195807
aF1.1498709187414915
aF0.952227539260694
aF1.0344973067382248
aF0.2808597421696728
aF0.24219446553766458
aa(lp63
F4.933203868302683
aF1.9829653611739957
aF1.0914960965380514
aF2.3847379531047213
aF0.4981396220931697
aF0.50217246179204
aF0.14831300806896916
aF1.138803499970321
aF-0.17203687511904478
aF-0.4352675839763509
aF0.6656306370807286
aF-0.3552001388848929
aF0.5310862638887353
aF1.1288559416820094
aF0.06819484457425717
aF1.1447193751871612
aF0.05511893614147781
aa(lp64
F4.541886845005533
aF1.7728913447127244
aF1.6790678273792576
aF2.1891158657020595
aF-0.48584837871638886
aF-0.07718789426150086
aF-0.5295090131072404
aF1.136177405782866
aF0.20416513853368837
aF0.8161981089298009
aF1.0375782798607862
aF-0.011842025431070272
aF-0.2087859924420042
aF-0.0222403393036227
aF0.5266755338464564
aF0.2448512954875919
aF-0.6268289944903476
aa(lp65
F6.583087948354833
aF1.6236907173111728
aF1.9354466665812307
aF1.2602498385865757
aF1.0314026832727263
aF0.8384541495444632
aF-0.013222107358159629
aF-0.23198998870005252
aF0.5306325811235982
aF0.9930769947670469
aF-0.31676227795020806
aF0.6122414887845934
aF-0.4249762804053958
aF0.8266457516738166
aF0.48257489539555415
aF0.5961369559457014
aF1.2050385934379972
aa(lp66
F6.7044944497796815
aF1.2887491469839414
aF2.255671801734254
aF1.2003221814107272
aF0.008597878435620527
aF0.5520584359805287
aF0.21634443825348962
aF0.27461670577525144
aF0.12181860309961362
aF-0.360836156358454
aF0.45168079299153935
aF1.108344978560699
aF0.9987970716819394
aF0.2456771922733368
aF0.4530453096959473
aF1.322745603271776
aF0.7548024068699204
aa(lp67
F5.169812653918609
aF2.5050892913214553
aF2.119051545150682
aF1.057518876505478
aF-0.08090708307102748
aF0.11126011734567663
aF0.9497594197841843
aF-0.4307680019755538
aF-0.35059665900146325
aF0.9383355559789912
aF0.8488654648903183
aF1.001009696833151
aF1.003316049251649
aF0.7664568629654526
aF0.024210125996191243
aF-0.04416927288473051
aF-0.282608376906642
aa(lp68
F7.4665269757032275
aF1.9368794457198064
aF2.0919250183095808
aF1.9404033264188796
aF1.6780546201265862
aF-0.0810831490938149
aF-0.06029098065549524
aF0.19785235472144982
aF1.0948283227950935
aF0.3242219577107776
aF-0.5320347855950455
aF-0.2275926612972725
aF0.5276961939389457
aF0.36956466951289846
aF-0.0007003723076545312
aF0.25012504325711804
aF1.3597803928175867
aaa(lp69
(lp70
F-1.2389289331679911
aF0.4117502656936418
aF-0.6987210969279296
aF-0.8962581017039338
aF-1.0689793683544093
aF-0.8189156618088547
aF0.5365498614808731
aF-1.0566725098808059
aF0.0776892818464446
aF-0.009478643977081777
aF0.6447902167785929
aF-0.7420596301355674
aF-0.4704144861403452
aF0.8839225038199083
aF0.8730361691643796
aF0.1437014432928402
aF0.5748505793971297
aa(lp71
F-0.6153516753053272
aF-1.1067852422695785
aF-0.1230708752638444
aF-0.5914129649945852
aF-0.0883720883553369
aF-0.5438684429942576
aF0.32992341983344126
aF0.7789381961501338
aF0.10897162370154388
aF-0.08602127825148359
aF0.3979952998018881
aF0.2210892887099964
aF0.7499685705364658
aF0.7285970696033087
aF0.3946929278145946
aF-0.9443879431849727
aF-0.44537163512075023
aa(lp72
F-0.8348113517618883
aF-0.37133322575784133
aF-0.9326517769859068
aF0.39946023533212327
aF0.7084623607348759
aF0.9439078249706778
aF-0.7329668033914504
aF0.7052920479111388
aF-0.4434029549235602
aF0.3463010042792543
aF0.694291466882184
aF-0.7936793347549532
aF-0.5858433168894018
aF0.49499253895590745
aF-0.46638943276242384
aF-0.7178843932387691
aF0.6158235784875452
aa(lp73
F-2.2608917660298684
aF-0.4555073301392513
aF-1.185063163663273
aF-0.22687215059609958
aF0.09668571532233071
aF-1.3115629343272648
aF-0.490635860379841
aF0.18825182135015253
aF-0.5308667246155883
aF-1.3035328900502243
aF-1.0208012479376738
aF0.24130076581209298
aF0.21871038963275158
aF0.01953279215633635
aF-0.20232190879243162
aF0.32610888638439767
aF0.020294958125593374
aa(lp74
F-1.6277482112167325
aF-0.07620478243048266
aF-1.3930335365123088
aF-0.05493757367908625
aF-0.5095761532687703
aF-0.0840493839284901
aF-0.4088043168681079
aF0.7744801695269992
aF-0.7336754117655458
aF-0.9611356019228849
aF-0.3409137252369005
aF-0.978842811081949
aF0.059770611956320586
aF0.47227625561428477
aF-0.20811230311259818
aF-0.4806489988344068
aF-0.5943346176119332
aa(lp75
F-11.962897668036371
aF-3.4381871503110073
aF-3.346837921490028
aF-4.685101415672891
aF-1.9049133385392911
aF-0.857039066937583
aF-0.7180104540445195
aF0.11504602796140201
aF-1.4060200039599078
aF-0.011935461704397656
aF-1.029848575552267
aF0.25080664767116534
aF-0.38642085440222096
aF-1.8023892062392655
aF-0.8554137325018871
aF-0.819034461091171
aF-0.6566561925621285
aa(lp76
F-10.300080749632903
aF-3.9149436469199523
aF-3.6765261990132925
aF-2.7356586155412854
aF-1.6548753860849863
aF-1.5880229299158686
aF-0.8268350028402841
aF0.4577933337844022
aF-0.9750962140377408
aF-0.07326738387915131
aF-1.4301534643049258
aF-1.388757243342176
aF-0.2500587953808588
aF-1.074991864124221
aF-0.5181128477498808
aF-0.5831755344354514
aF-1.211153222643321
aa(lp77
F-12.517209548516567
aF-4.0652158475428255
aF-3.4358674990290274
aF-4.630807760261057
aF-0.796309060177761
aF-1.2102459444527778
aF-0.16988348184862623
aF0.3063482136503519
aF-0.9134722394018026
aF-1.1339294901954287
aF-1.5851587823706557
aF-0.10350626180946874
aF-0.1401405883846995
aF-0.8571667022566488
aF-1.3274764168878406
aF-0.16372872466488966
aF-1.106828981608489
aa(lp78
F-12.954067486268212
aF-4.1387408542663815
aF-3.451633801170596
aF-3.09097017305922
aF-0.5783056911941881
aF-0.9547742405644983
aF-1.4842239003111009
aF-0.33372137734126067
aF-0.7350527431816986
aF-0.8618663104632142
aF-0.43401967967186894
aF-1.393385789178942
aF-0.12076276403070087
aF-1.603461148368161
aF-1.50472843260042
aF-0.6200061279480882
aF-0.6181747784075655
aa(lp79
F-11.610229081242746
aF-3.7240266082143574
aF-3.003786497350704
aF-3.481207490834517
aF-1.9792056762460815
aF-0.33742953229592626
aF-0.8645033409818029
aF0.2404175104554187
aF-1.7484249383057693
aF-1.48453646468626
aF-0.5047704673472326
aF-1.2321941685342548
aF-0.7658301707685802
aF0.17475632301623364
aF-0.33894098551719765
aF-1.412225245386967
aF-1.0139726309808468
aa(lp80
F-12.552948663536924
aF-4.536726056037531
aF-2.470032887787872
aF-3.6428042490776473
aF-0.8049617040513272
aF-0.9249853519115765
aF-1.0822963568334518
aF-0.9325240353375186
aF-0.47237601755454334
aF-0.6038587823796667
aF-0.7780469367207955
aF-1.4267380283721909
aF-0.6480502277472605
aF-0.276421256674195
aF-1.6923312211322372
aF-1.619102340574661
aF-0.663457167581826
aa(lp81
F-12.395152565359437
aF-2.981683922590509
aF-3.690968496741961
aF-2.686393807034082
aF-1.265163199432892
aF-0.9402502153814638
aF-0.3168740975028268
aF-0.31230034652150424
aF-1.6022041172600048
aF-1.5506957183226404
aF-0.2989925331056462
aF-0.12677678503403433
aF-1.5284132720883281
aF-1.2156838205930376
aF-1.5888258987087442
aF-0.5604538424991371
aF-1.3349587478005944
aa(lp82
F-12.981002811899224
aF-4.408441447676548
aF-3.5409379376715
aF-4.624157544984908
aF-0.5648723226360292
aF-1.532376333937184
aF-0.25053303549301453
aF0.18476481009243392
aF-1.7451664299232226
aF0.12151771501172051
aF-0.3706824079623442
aF-1.3803999362620385
aF-0.2962609861129195
aF-1.0557693397141437
aF-1.0193835971394682
aF-0.2613620576291182
aF-0.6040471137394791
aa(lp83
F-13.780769942586637
aF-4.8753438188225235
aF-2.838024432943488
aF-3.077009983994902
aF-2.419582865090129
aF-2.0230944931198676
aF-0.18332904199398192
aF-0.1082624758765992
aF-1.5165063902192284
aF-0.965699257974457
aF-0.1881161081653866
aF-0.3541222363898771
aF-0.33251318663161267
aF-0.2628043578304009
aF-0.09309353481726051
aF-1.9144512243582683
aF-0.4509223721902341
aa(lp84
F-12.773299888962727
aF-4.029584187687165
aF-3.1871751867932354
aF-3.014565800650087
aF-1.1990162726869396
aF-1.0004756719035246
aF-0.6208165037953746
aF0.26017605372658337
aF-1.3327542427127874
aF-0.8421811360808222
aF-1.4530167072454439
aF-1.0774593722871675
aF-0.8420589937406895
aF-0.9986012550938269
aF-0.2672213421003981
aF-0.1440271795180086
aF-1.655332821474665
aa(lp85
F-11.247814159996365
aF-4.352849694013771
aF-3.5037502181974958
aF-2.9534083693904396
aF-1.5340630714529218
aF-1.8720829259962881
aF-0.6130387750243268
aF-1.504724446037205
aF-0.9756321054827414
aF-1.1351144276883085
aF0.3003703089884367
aF-0.21544545377845806
aF-1.4331688344145102
aF-1.185731698082351
aF-0.6567404887094515
aF-0.7865314626148432
aF-0.6740865612176672
aaa.