(lp0
(lp1
(lp2
I0
aI0
aI0
aI0
aI0
aI0
aI0
aI0
aI0
aI0
aI0
aI0
aI0
aI0
aI0
aI0
aI0
aa(lp3
I0
aI0
aI0
aI0
aI0
aI0
aI0
aI0
aI0
aI0
aI0
aI0
aI0
aI0
aI0
aI0
aI0
aa(lp4
I0
aI0
aI0
aI0
aI0
aI0
aI0
aI0
aI0
aI0
aI0
aI0
aI0
aI0
aI0
aI0
aI0
aa(lp5
I0
aI0
aI0
aI0
aI0
aI0
aI0
aI0
aI0
aI0
aI0
aI0
aI0
aI0
aI0
aI0
aI0
aa(lp6
I0
aI0
aI0
aI0
aI0
aI0
aI0
aI0
aI0
aI0
aI0
aI0
aI0
aI0
aI0
aI0
aI0
aa(lp7
I0
aI0
aI0
aI0
aI0
aI0
aI0
aI0
aI0
aI0
aI0
aI0
aI0
aI0
aI0
aI0
aI0
aa(lp8
I0
aI0
aI0
aI0
aI0
aI0
aI0
aI0
aI0
aI0
aI0
aI0
aI0
aI0
aI0
aI0
aI0
aa(lp9
I0
aI0
aI0
aI0
aI0
aI0
aI0
aI0
aI0
aI0
aI0
aI0
aI0
aI0
aI0
aI0
aI0
aa(lp10
I0
aI0
aI0
aI0
aI0
aI0
aI0
aI0
aI0
aI0
aI0
aI0
aI0
aI0
aI0
aI0
aI0
aa(lp11
I0
aI0
aI0
aI0
aI0
aI0
aI0
aI0
aI0
aI0
aI0
aI0
aI0
aI0
aI0
aI0
aI0
aa(lp12
I0
aI0
aI0
aI0
aI0
aI0
aI0
aI0
aI0
aI0
aI0
aI0
aI0
aI0
aI0
aI0
aI0
aa(lp13
I0
aI0
aI0
aI0
aI0
aI0
aI0
aI0
aI0
aI0
aI0
aI0
aI0
aI0
aI0
aI0
aI0
aa(lp14
I0
aI0
aI0
aI0
aI0
aI0
aI0
aI0
aI0
aI0
aI0
aI0
aI0
aI0
aI0
aI0
aI0
aa(lp15
I0
aI0
aI0
aI0
aI0
aI0
aI0
aI0
aI0
aI0
aI0
aI0
aI0
aI0
aI0
aI0
aI0
aa(lp16
I0
aI0
aI0
aI0
aI0
aI0
aI0
aI0
aI0
aI0
aI0
aI0
aI0
aI0
aI0
aI0
aI0
aa(lp17
I0
aI0
aI0
aI0
aI0
aI0
aI0
aI0
aI0
aI0
aI0
aI0
aI0
aI0
aI0
aI0
aI0
aaa(lp18
(lp19
F9.07968876874972
aF3.6765211793361265
aF1.4758219997369395
aF2.134583300558917
aF0.959303389987985
aF0.16009557519325887
aF0.16848180408233712
aF-0.023491898416406497
aF0.6567044168530045
aF0.14398022614616066
aF0.3793395654583741
aF-0.5829537242384958
aF0.6764253539141585
aF-0.49907793687876534
aF0.18776349285210447
aF-0.6387489876320225
aF-0.5399840342504556
aa(lp20
F7.437002822762161
aF2.780695561944841
aF2.141778612463353
aF1.6254952449698983
aF-0.60946841171589
aF1.3676948969849019
aF0.20805909860778107
aF1.0220506523162813
aF-0.30819858021098817
aF1.0091920307396904
aF-0.6118528312098653
aF0.2520388543982223
aF-0.2908669232163444
aF0.8295072380466822
aF-0.7756968267791319
aF-0.6820106323434805
aF-0.3006163872130935
aa(lp21
F8.072842416645997
aF1.7992380024824552
aF2.8145866653059786
aF2.0103329613454695
aF0.12593805744126577
aF0.03823346798812465
aF0.6307559140375572
aF0.44223526007538727
aF0.746700235962459
aF-0.1419067436120866
aF-0.20084316669426594
aF0.39815903542491216
aF0.4920563150707382
aF-0.22893895842698922
aF-0.42471209888814754
aF-0.18308221839455635
aF0.7628391826865557
aa(lp22
F-2.3342817931744637
aF-0.40823477708423106
aF-0.6981676672677428
aF-1.3119084997188935
aF-0.8268638095788253
aF-0.8055782843669547
aF0.09955639290998622
aF0.3145367232400195
aF0.29042463106307304
aF-1.0440163571388874
aF0.13653805217464607
aF-1.1759770495872357
aF-0.678516240101159
aF0.3906091747685882
aF-0.18388471056237507
aF0.5883793531305103
aF0.5197755934444045
aa(lp23
F3.6270265690554377
aF0.6150253786824802
aF1.178181287610327
aF0.19089913347058277
aF0.9855009700247472
aF0.005917389279509712
aF0.48131369076903735
aF-0.27544154324213604
aF0.9744710990921027
aF0.6946814490374895
aF0.1429293772388437
aF-0.5368018665502778
aF0.5911168259751589
aF0.031208213243380904
aF-0.4448774834997392
aF1.0237953083503235
aF-0.0036966048518474897
aa(lp24
F5.049221845249551
aF0.8305918856644592
aF1.7407728820574484
aF1.4474062373888168
aF-0.18927404649668747
aF1.1360469359287528
aF-0.5167900154055721
aF0.5687194993580063
aF-0.5383526088355544
aF-0.6936150147750992
aF-0.6987611424461674
aF0.664480059603547
aF-0.19396559465966073
aF0.005960561645256464
aF0.7605045939132222
aF1.050675048890476
aF-0.11421108385190813
aa(lp25
F2.2693892384883974
aF1.6225742278222082
aF0.7298893394042607
aF1.2359415259957385
aF-0.3866825340548244
aF-0.32437307349720457
aF0.8907149538651087
aF0.49750007686641434
aF-0.8591001736076204
aF-0.34314343226860927
aF-0.6767853909994797
aF-0.6424409777688237
aF-0.40196489910681227
aF-0.4639584893803837
aF0.33734458290721214
aF0.33357333328764244
aF0.489721913326226
aa(lp26
F2.5156298861197186
aF1.9350225293835912
aF1.3261358960406895
aF0.3992242373080527
aF0.6894801552461981
aF0.7307323120784212
aF-0.8773523376011945
aF-0.2801017877614259
aF-0.1778024243916307
aF0.8904363995068144
aF0.934149006626937
aF-0.19715525593656483
aF0.7806102262066802
aF-0.4768122732453588
aF0.6007270152922491
aF0.5460831784582055
aF0.4947767028910206
aa(lp27
F0.5350814760502535
aF1.0809044092799531
aF-0.04818167936084292
aF-0.35199114355071004
aF-0.5350713743945061
aF-0.12916420678426532
aF-0.3897604341593749
aF0.525382520516526
aF-0.9003600554531825
aF0.7287197063627029
aF0.26170242960607953
aF-0.790551463689504
aF0.8892303689359256
aF0.850936050390634
aF-0.43678856595835946
aF0.6391035066871049
aF-0.6507416184165471
aa(lp28
F3.7966496815384727
aF1.5808917215449492
aF0.4089842515523501
aF1.5270328738799441
aF1.156837951589465
aF-0.6377403045909533
aF-0.6313442766722843
aF-0.7852937970476231
aF0.08236906298276067
aF0.014707247093209707
aF-0.4825409927968802
aF-0.7209208614785295
aF-0.6549900424519784
aF0.05508442307708851
aF0.6187895145247461
aF-0.3536154661883179
aF-0.21231437332269204
aa(lp29
F2.759793183195417
aF1.0385011263588202
aF-0.2017190833625737
aF0.2135773290636199
aF0.12323014802640142
aF0.4773082763348175
aF-0.7486452380258731
aF-0.4491695242333245
aF-0.39353220838232217
aF-0.2686913065695603
aF0.6240869485556375
aF0.4132796732473712
aF0.7175423832006896
aF-0.6031219377630958
aF-0.7912178714228477
aF0.8546067339289797
aF0.6563248371950856
aa(lp30
F2.6016677195261444
aF0.18773623603812525
aF1.3420497963309854
aF0.591696744256492
aF0.8111874127865105
aF0.7560331785581635
aF-0.28481424470803146
aF0.16481036327472015
aF0.06336082291893581
aF-0.12141663014501151
aF0.3414101133982806
aF-0.2635819364253189
aF-0.5351955410604137
aF0.09067233597720918
aF0.9703175731715311
aF0.3554982155368039
aF0.8992665002440723
aa(lp31
F-0.2889488298050668
aF1.0284900239322055
aF0.0741570860009887
aF-0.1387794628055879
aF0.8076508499277151
aF0.7269907185131211
aF0.12399291429330322
aF0.6124447772926309
aF0.45766943787018877
aF0.6459369767404135
aF0.050253954602566694
aF0.37863936948520066
aF0.685936412497907
aF0.5364622958872711
aF0.8213150316322617
aF0.48828587032932425
aF0.01686355204910144
aa(lp32
F-1.9826699943053139
aF0.38715133892252135
aF-0.758810023420724
aF-1.0928289457656042
aF0.03896578175372496
aF0.5003143002210262
aF-0.6356703622636947
aF-0.09603542455068574
aF-0.0878950138167104
aF0.8533727263453038
aF0.71053249098868
aF-0.35316117468798536
aF-0.20566390229719045
aF0.3289186573514297
aF0.29787511703354724
aF0.5980039021589553
aF-0.655006673418768
aa(lp33
F5.0709425486505175
aF1.0123609151493977
aF0.7117560484995331
aF2.27966078524817
aF0.05873610649634709
aF0.8411380275537541
aF0.22565003816006932
aF-0.690621577735326
aF-0.47815922483208523
aF1.1027901526106312
aF0.3028589124990558
aF0.03731767986085594
aF0.3920522515522917
aF0.8173294511141156
aF-0.3929776503220012
aF0.32383268896473966
aF0.5131758660127808
aa(lp34
F-1.9815919040189356
aF-1.3886677960082172
aF0.4889225328188349
aF-0.46628977841575253
aF0.7404406637250718
aF0.1645472706808598
aF-0.8752526812652556
aF0.2864636041867939
aF0.5275789152479929
aF-0.5037693350888148
aF-0.2921033379589955
aF0.7851622888909375
aF-0.8502708658768672
aF-0.5962563480547409
aF0.3997669498568024
aF0.7284879850478986
aF0.7668869394862282
aaa(lp35
(lp36
F9.403609272285722
aF3.5956726434940447
aF1.875705170833146
aF2.2486106515679443
aF0.04403796879532428
aF1.6149517947747931
aF0.6053811974200269
aF1.0867429618712365
aF0.6247978530945829
aF-0.026244900737025668
aF1.4457173223050848
aF1.2113328245391908
aF0.14353915851668278
aF0.7346429130318652
aF0.29620682819121014
aF0.920906989256779
aF0.8832739617543196
aa(lp37
F9.252730441512094
aF1.5234813933220208
aF2.0363169270167725
aF3.5179016733514326
aF0.19614725131509925
aF0.7598512193822855
aF0.3206250111431763
aF0.6273746113715402
aF0.2569319533901681
aF0.6620056435245908
aF1.1581231039908333
aF0.20165302586022588
aF0.9180233483764029
aF-0.5583346471979512
aF-0.3012569258866881
aF0.65154357713543
aF0.557447693305813
aa(lp38
F8.229070204152238
aF2.7358299315537757
aF3.172489926794947
aF3.081242883197044
aF0.07395094910685392
aF1.1307157953265867
aF0.9188881579542595
aF-0.25154384431193955
aF0.9683010942301756
aF-0.3385314944615599
aF0.04776637764835896
aF-0.6689006160330855
aF1.1560870078204397
aF0.7974592362354664
aF-0.5466687189061362
aF1.0513523253518307
aF-0.6183000318960491
aa(lp39
F3.6189079129495783
aF1.978256445289219
aF1.4275473360458855
aF0.3442360123881685
aF0.5365773720863614
aF0.2387540460077808
aF0.8734706473002085
aF0.5799101951867978
aF0.00044302393874347804
aF-0.025587833886177393
aF1.0216861330122964
aF0.4371953276317883
aF-0.7268177732981068
aF0.0698172722603106
aF-0.4824245228958601
aF1.0559302429933428
aF-0.1386916349022434
aa(lp40
F0.013325248604144488
aF1.344448395694273
aF0.7149620418012139
aF0.463236100242647
aF0.11897068162317515
aF-0.35785509640750435
aF0.3340499430480733
aF-0.6680649279500668
aF0.5587401214326635
aF-0.005862242598161111
aF0.014374210049678681
aF-0.4531398736646071
aF-0.2863626793904297
aF0.12005945558914499
aF0.22717908580630028
aF0.9787696863561284
aF-0.17734210278033416
aa(lp41
F5.57306080196296
aF0.5090142679666205
aF2.1446436859725355
aF1.1767638900739048
aF-0.37799377233417925
aF-0.7228653700729528
aF0.4284015857367606
aF-0.4046117365695911
aF-0.8594137890864162
aF0.9338550082150041
aF-0.5290482681547151
aF-0.20539973130920455
aF0.2496222241606865
aF-0.8163440475344735
aF0.06416379568499217
aF0.8733966102324703
aF0.16920076009955015
aa(lp42
F3.054130133941847
aF0.9908029326646733
aF1.1380095063641487
aF1.1706502753563657
aF0.027369657619286954
aF0.3520838161772016
aF-0.6611707499338021
aF1.0816769493220428
aF0.7551997822600698
aF-0.07452833846330142
aF-0.7516830984170231
aF1.089714221007962
aF-0.5984135789595791
aF1.1510095424830151
aF0.5411901689089331
aF0.18811044862102239
aF-0.35252706135338513
aa(lp43
F4.01824017169793
aF2.005457094072783
aF1.1585825576422875
aF0.24737236346205496
aF-0.4838637638455983
aF0.22045788135494476
aF0.646867071493956
aF-0.08455249416623488
aF1.119985091517312
aF0.9649006989738103
aF1.1041519795804755
aF-0.41668196010948355
aF0.7349292665551107
aF1.1811109362572747
aF-0.6072754478009714
aF0.20604864104142565
aF0.607016762009993
aa(lp44
F4.767266718408217
aF2.3729706099163788
aF0.47578474276121496
aF2.2945928378185476
aF-0.5446618256764774
aF-0.2988079531059072
aF-0.7081496477608005
aF0.48184049693969916
aF-0.29562232274696026
aF-0.3659140995446514
aF0.7718226473398808
aF0.5506044166754943
aF-0.46728832720042296
aF-0.13368681989018988
aF-0.12034440671801619
aF-0.13816252947180047
aF-0.43614348917818674
aa(lp45
F5.7962969058832
aF1.9304210642955815
aF0.772572596216584
aF1.0246045736873373
aF0.6659735280171288
aF-0.5606818223159835
aF0.9939523583818344
aF0.6777384687165516
aF0.785236214558723
aF-0.2291163461376112
aF-0.458985978265194
aF0.18285862352793963
aF0.3597993786666004
aF-0.029486886333567976
aF-0.19607534082372793
aF0.4367777506487149
aF-0.3818418354347286
aa(lp46
F-0.06553781082996052
aF-0.06804959216549514
aF-0.20367618923711428
aF0.5318359591622257
aF-0.8068177955784415
aF-0.6986514073871126
aF-0.005206624064699583
aF0.5227223224618395
aF0.6221416513105928
aF-0.936037949226112
aF0.3819092152449836
aF0.3240263934613789
aF0.5240678585954464
aF0.4586886423814484
aF0.7878113491263665
aF0.8869680985046551
aF-0.7652576252209994
aa(lp47
F3.2424675272778414
aF0.5724522923850707
aF0.21949673649424264
aF0.9571890186257958
aF0.2259632068827287
aF0.635730262631981
aF1.1042343268769257
aF0.3961891266984529
aF0.8581922335379797
aF0.41920310442082237
aF-0.7924232727854218
aF-0.5961465501282883
aF-0.2539454964452713
aF0.43134368838028336
aF0.9076857887036782
aF0.5376076634312048
aF-0.3464002572629951
aa(lp48
F3.5853625095697033
aF2.6674199232140268
aF0.1120277695573599
aF-0.0634002184441494
aF-0.4807395491999715
aF0.19827102884099715
aF1.2234533667762022
aF-0.5035918551194022
aF-0.537522085879625
aF1.16926933823845
aF1.2507031633657701
aF-0.02942600791441602
aF-0.11910809546418465
aF-0.5765914748593042
aF0.0005944189507649815
aF0.43554210537033533
aF-0.07280341145073198
aa(lp49
F3.5275621446146803
aF0.8822127754017214
aF1.4057024358426624
aF1.0033829270260461
aF-0.6226466728008351
aF0.6849103947202607
aF-0.7779320179000951
aF-0.6416015728487257
aF1.0472862777819723
aF-0.5237014138637199
aF-0.5565310894960911
aF0.8772464009390093
aF0.44035778108832313
aF0.14503884526657962
aF1.110853423705584
aF0.8062716715215532
aF-0.3410257632268504
aa(lp50
F-0.041761445995345946
aF0.5535097254343156
aF0.6078292807935652
aF0.5299887864569423
aF0.18073310262615241
aF-0.2890542903855163
aF0.08677280347499293
aF0.48932805091605774
aF0.5272002598320609
aF-0.2388996511656752
aF-0.2780256430927378
aF0.9864930545115963
aF0.76515117153934
aF0.8588513764982961
aF-0.6295877508489922
aF-0.6946711137338012
aF0.2245093102431262
aa(lp51
F1.2169127387552587
aF0.41016853824009
aF-0.25107733147377476
aF-0.12097716977846913
aF-0.7317981674123551
aF0.6617758910175854
aF0.1772932010673386
aF-0.6733280648414971
aF0.8583399326292253
aF0.863515902096702
aF-0.7162428079367235
aF0.5066900133980248
aF0.6972906216065355
aF0.15729968069455308
aF-0.060766881290898106
aF-0.2043768914626532
aF-0.29804642322858843
aaa(lp52
(lp53
F11.735500879071536
aF9.413190896732454
aF1.0712806099460517
aF0.9080975790265495
aF0.8337618736414183
aF1.0906799079291227
aF0.1505876854621248
aF1.279261783709294
aF1.3536833542584987
aF-0.1513935529789752
aF1.2108361035626594
aF0.44476331597630325
aF0.5602950720526337
aF1.6392816228009557
aF0.35043523362896833
aF0.30399446308487343
aF0.7133815614718356
aa(lp54
F12.435008674117995
aF-0.1259392364841745
aF5.456442151651725
aF4.090009383106204
aF0.2264562415884401
aF0.09982741577146675
aF0.3409955984858266
aF-0.20193428245686254
aF1.1113839359124005
aF-0.0012856308867748975
aF0.6313515337748155
aF0.5160570046074138
aF-0.6060486718703456
aF-0.3815480162719357
aF0.9694812984448589
aF-0.549462634768134
aF0.1427540682793985
aa(lp55
F14.172046931267515
aF1.4177581246654753
aF2.6131139220640693
aF4.8207000659267
aF1.4893878040070134
aF0.10396760007722901
aF1.0010756230597464
aF0.2583313324892878
aF0.6048101709600023
aF0.8787086440872217
aF1.0274400798272407
aF0.12087420246735305
aF0.014081372528844085
aF-0.06889746992830771
aF-0.10174700260983928
aF-0.14787258551882615
aF-0.15879032461329282
aa(lp56
F7.784474752392401
aF1.7172086257925359
aF2.373484058067979
aF2.6104862778230977
aF-0.06251902365149462
aF0.056300787774146925
aF1.435037210147197
aF-0.18918195853201483
aF1.3521787063358637
aF1.1042046766497375
aF-0.23701918779326084
aF1.3494361730291704
aF1.5515371025802145
aF1.483010421298985
aF0.11621174245825494
aF-0.35247385492997185
aF1.3146385860196188
aa(lp57
F7.141857455646512
aF3.3192756403733963
aF1.6800623916187734
aF2.8425721452400965
aF0.505422258832439
aF-0.07870891219470474
aF-0.41350276736956637
aF0.276205506727038
aF-0.2665977174977506
aF0.238475901793519
aF0.6890097156802906
aF1.3120308171169812
aF0.9001538295283987
aF0.8250462863826014
aF0.36317087945849424
aF0.38330051559611295
aF0.024050833762260637
aa(lp58
F5.74720041714921
aF2.241772233551142
aF2.2219132461915296
aF1.9473900960341848
aF0.5347604777586601
aF0.6193010196314496
aF1.1011716679552879
aF-0.4202116121012206
aF-0.08364884407795281
aF0.43554557524136334
aF-0.5030070579608947
aF-0.6548125785626682
aF-0.5351156191394958
aF0.023868485890396703
aF1.1042887617501393
aF-0.41890488314711427
aF-0.6985594925140278
aa(lp59
F6.59178739602578
aF2.1764302497840764
aF1.596441619572413
aF1.8501819324622253
aF1.2136735649686488
aF-0.3429816733962876
aF0.2063435791342387
aF-0.14042318762963704
aF0.7302659236857474
aF-0.18204891511574406
aF0.6105735744974715
aF0.08429979512879816
aF0.6212334451469037
aF0.33022122067830273
aF0.6316065134444165
aF1.2086282757133988
aF0.10214648916612412
aa(lp60
F6.751858248235041
aF2.0130054981051737
aF1.3782160872289606
aF1.6654469297026888
aF0.4143728817447057
aF-0.10544061459121076
aF-0.2277091436003183
aF1.2297101839821898
aF0.08701221322035187
aF0.35705640424816987
aF0.32545644746727087
aF0.3875526124762087
aF0.1768651948400706
aF-0.5717991182313423
aF0.9381200989097256
aF-0.2739002844004211
aF0.4267334961771543
aa(lp61
F8.872981724683354
aF4.4030446757598956
aF1.2064912677229076
aF1.9038418145102078
aF1.0783608612530895
aF0.3016063031665317
aF0.33526138403520694
aF1.2396195535255041
aF0.07263313988495508
aF1.5585400485102123
aF0.3526776022607816
aF0.4486708571289901
aF0.31140743380012703
aF1.2678942059245193
aF-0.2138905681513195
aF0.023558874451901884
aF0.8523255357787712
aa(lp62
F1.4022178956687803
aF2.716444347825839
aF0.37035090075487104
aF1.679037205566029
aF0.7368037700621347
aF-1.1664166851358495
aF0.6437368898661667
aF-0.2708840152786858
aF-0.029622713748191466
aF0.43128028265542373
aF0.32243744607938757
aF-0.5091057305334324
aF0.4009123158278074
aF-0.6056052914399335
aF-0.05843420166553448
aF-1.0589677269431332
aF0.08875200245007325
aa(lp63
F8.6657945928674
aF2.673266781884422
aF2.8035590720671317
aF2.856318908117068
aF0.055882067291924534
aF1.153497098663389
aF-0.12759938910247864
aF-0.41351072134023653
aF-0.34063140416635906
aF1.402256583210847
aF0.7013729053291443
aF-0.05902033829434115
aF-0.33396193274135494
aF-0.1253051890590749
aF0.05253354354740751
aF0.9968080311305677
aF-0.3705523729942327
aa(lp64
F4.865104597012083
aF0.43869766559649753
aF1.6077576967421399
aF1.664421116022664
aF-0.5030875954101602
aF0.06704662773533134
aF0.7448595914315849
aF-0.21760741055386612
aF-0.3615492815794449
aF0.6872391771623948
aF-0.17262588949392244
aF-0.8492122107605358
aF0.8606927606497741
aF0.07392955888303154
aF-0.06146911094780503
aF-0.6696726316575481
aF-0.04073114530728663
aa(lp65
F5.366148025466755
aF1.0349176892425564
aF0.9882231159798437
aF2.211223782813162
aF0.744694091871132
aF1.096758666537815
aF-0.6950415793662608
aF0.6292752667893009
aF1.153797386864277
aF1.2496090686904013
aF0.892279620818378
aF-0.39080242095001316
aF-0.35966079691314384
aF-0.5827668199804148
aF0.5279790361020122
aF1.0109502027465915
aF0.87398558307534
aa(lp66
F5.583451910584796
aF2.93345605692821
aF0.6578579106206378
aF1.4112568093505389
aF-0.4418200635376541
aF-0.31391314208799437
aF0.7515181895385141
aF0.4396170155303551
aF0.31558881110634757
aF-0.610339801540969
aF-0.09770148103856037
aF-0.6483784312652005
aF1.1262084522649547
aF0.837773548833816
aF0.9737889049788974
aF-0.1422453139027527
aF-0.7592077210146023
aa(lp67
F8.158793041868602
aF3.4376175940390534
aF1.3109197903122252
aF1.5782141869057733
aF0.5406090240055674
aF0.9113001272943537
aF0.0208330945487394
aF0.7567746893382692
aF0.7397254313534009
aF0.4431668468227264
aF-0.3249812573671786
aF-0.020795441561944197
aF0.8910686465652946
aF0.6111417564317009
aF1.2013011487451475
aF0.062208687726683
aF0.748952064622374
aa(lp68
F6.487249392982333
aF2.33140978294419
aF2.3127091610657153
aF0.9841515953619496
aF-0.13047007790188606
aF-0.1083232752269996
aF1.0268837995569289
aF0.365662868984029
aF1.1506534183882322
aF-0.5124966962898816
aF0.747050816898948
aF-0.05068533659383267
aF1.1562387527057953
aF0.5572543526827562
aF0.5136241427029518
aF1.358758441506109
aF0.46523569296943806
aaa(lp69
(lp70
F10.386504597963656
aF-17.523153860599827
aF6.6788932539220225
aF7.115022817486267
aF0.7489714503413826
aF0.3963277311790823
aF0.45786661271098295
aF0.9711495099351124
aF0.1239064580189231
aF-0.27608047849432693
aF-0.3919705964772201
aF0.029355992193953583
aF0.17939647798778086
aF-0.1152793111678756
aF-0.22254499680394207
aF0.5576657812684545
aF1.1228078865125353
aa(lp71
F0.4443218898551281
aF3.528671661131855
aF-5.428497078282275
aF2.8098836805568417
aF-0.45150334860871716
aF0.19193009474822126
aF0.182756154204385
aF-0.15476368356937537
aF0.8255539616999734
aF0.8551011575574495
aF-0.08419549551375206
aF-0.8851422710221143
aF-0.46540787797574906
aF-0.9247547340914131
aF-0.7076306025066588
aF0.03322233981957797
aF-0.7572028932862537
aa(lp72
F1.7602880218329826
aF4.536246541488913
aF1.609202464063794
aF-6.471535339812656
aF-0.49268287139236794
aF0.5917640075144587
aF0.5686178415358594
aF0.0566017044092114
aF0.05120151971857859
aF-0.11111736015644821
aF-0.8014664059091754
aF0.06450325880909259
aF-0.8708880743194208
aF-0.6243060779963007
aF0.015446846915604006
aF0.3357061793303128
aF0.4852947898088992
aa(lp73
F-5.061333617935761
aF-2.5138210887964707
aF-0.2518271614046968
aF-0.8529394034385034
aF-0.9967752060896747
aF-0.060568565536299884
aF0.19330249141831138
aF-0.2784754228707667
aF-1.5292179191067667
aF-0.20047510412440495
aF0.3122981553783278
aF-0.9908307738764652
aF-0.1893710545482739
aF-0.3346757417704717
aF-0.47862721516649137
aF-0.7085240139885579
aF0.2749769067007194
aa(lp74
F-4.073065480197803
aF-2.528508966533951
aF-0.12811714968828308
aF-1.6731317243671229
aF-1.1761767171223756
aF0.17949427564568687
aF-0.7201210046191093
aF0.24345499101759813
aF-0.5180849611846424
aF0.3139191557097622
aF0.2548520892553516
aF-0.28403950797613053
aF0.30907029197404334
aF-0.6207240056240353
aF-0.6184531895064488
aF-1.3472202041261705
aF-0.3004229506584556
aa(lp75
F-13.04919555030264
aF-4.750677396343553
aF-2.8103584134018305
aF-2.449526568510986
aF-1.9236973245768176
aF-1.1069334000184052
aF-0.6821466675986185
aF-0.04414481563699539
aF-1.5421857539755077
aF-0.7740677524883017
aF-0.46829049897078084
aF-1.7575895079416533
aF-1.1943807306531609
aF-0.21833931553400837
aF-1.1128441816362393
aF-1.8528951743760484
aF0.05442739792229132
aa(lp76
F-13.020039787057232
aF-5.618961000478308
aF-2.598038874452134
aF-2.8138159243928818
aF-1.5099801016848413
aF-0.852274858344955
aF-1.347036124827407
aF-1.5342401530866625
aF-0.7325225784990609
aF-1.3403452554426156
aF0.003140433885494126
aF-0.4350101425685281
aF-0.07484848693752016
aF0.03847999900786335
aF0.07187567540677978
aF-0.9390351664389663
aF-1.8222968132261874
aa(lp77
F-14.345303851713156
aF-4.455079744136974
aF-3.085711217385279
aF-3.732314740962459
aF-0.5023114246498628
aF-1.8006099596663554
aF-0.07559142428936352
aF-1.0231294741267358
aF0.05079889634176048
aF-1.7124777809000886
aF0.0783661922016401
aF-0.26333205056651754
aF-0.01531481098682578
aF-1.858220904494064
aF-1.131278997677965
aF-0.43782688072427206
aF-1.70460465168155
aa(lp78
F-13.553208064289585
aF-4.3480737147578115
aF-2.5035191012893865
aF-3.6463463806321252
aF-0.6518184364811712
aF-2.2223917418585333
aF-0.2088898695647168
aF-1.0828649295208745
aF0.07210904349256413
aF-1.7631639986217849
aF-1.405863483101586
aF-0.3690932123195807
aF-0.422528993315878
aF-1.3060778668388855
aF-0.015725374548747853
aF-0.7682151759694286
aF-1.57416579689046
aa(lp79
F-11.179069247170078
aF-4.210957891586211
aF-2.668972203136653
aF-3.4666291574346815
aF-0.8932764482269856
aF-0.9866500260891145
aF-0.7778999066302411
aF-1.342316415258038
aF-1.5949175103718676
aF-0.28561690985324173
aF-0.8636586175336193
aF-0.8920172789527973
aF0.31097076135508306
aF-0.6292605978813182
aF-1.264945372638788
aF-1.2639825222496741
aF-1.437180280199709
aa(lp80
F-13.709521527752525
aF-4.852789493297697
aF-2.194287263219878
aF-3.6510752267515296
aF-1.5321762173747873
aF-0.8001755595872222
aF-1.242854965686386
aF-0.6581434803663823
aF-1.0009195327860285
aF-0.970904351859639
aF-0.038240097152723966
aF-2.0870433066884373
aF-1.9051909912681328
aF-1.0666451159048542
aF-0.618907978481783
aF-0.06647265678093872
aF-0.5244686524619387
aa(lp81
F-13.101207366629477
aF-5.371197929905806
aF-2.814069779162232
aF-2.7364106961551222
aF-0.9428648322050537
aF-1.4004120545709833
aF-0.23174154065982322
aF-1.842419033999453
aF-0.757361247408388
aF-1.7608136403557737
aF-0.34511485510979445
aF-1.0343938308942306
aF-0.6443234908984433
aF-0.05594935603745459
aF-0.23342117049294736
aF-1.422418528855481
aF-0.31085575667590154
aa(lp82
F-12.41341909178386
aF-5.55175365102043
aF-2.8964800502566423
aF-2.8761761241498482
aF-1.5616836179833589
aF-1.624737005613732
aF-0.8240858771935217
aF0.00827440777000859
aF-0.05553761583081427
aF-0.740622818585246
aF-0.41826442884028403
aF-1.4847494136139607
aF-0.006987122138260537
aF-0.701360860134161
aF-0.9798779535520641
aF-1.824611553881187
aF-0.39232985996531206
aa(lp83
F-12.493025996197405
aF-4.122726860975541
aF-2.504713173580305
aF-3.0275150875475196
aF-1.2379057768541297
aF-0.7308106752800757
aF-0.37387491869009887
aF-0.7504716804812414
aF-0.9890527125017508
aF-0.8264332818910066
aF-1.5803449678403199
aF-1.7191296323750325
aF-0.373745149091099
aF-1.5024270097170827
aF-0.07768852399721998
aF-1.1475781274607006
aF-1.452882775260046
aa(lp84
F-13.663324150323106
aF-5.1062777571302025
aF-2.8560380954069506
aF-2.7647570397499246
aF-2.033309409866452
aF-1.693233238590634
aF-0.21655660246391434
aF-1.1385199702919713
aF0.04809593269680701
aF-1.7610526773306248
aF0.0972401240633615
aF-0.5660701369061263
aF-0.7619846856153648
aF-1.2650792363327434
aF-0.08088920115121928
aF-1.400392709704315
aF-0.07764730668840349
aa(lp85
F-11.801391083736021
aF-4.2692767107858725
aF-3.160223261706888
aF-3.9694011419552804
aF-1.3317574950705648
aF-1.0870112945208281
aF-0.9476136597438501
aF-0.2520038783521498
aF-1.191488275966551
aF-1.5373423678359612
aF0.06499767603032561
aF-0.5526703249476553
aF-0.1639712254056943
aF-0.21111867718881935
aF-1.2569243845883316
aF-0.60869237053765
aF-1.8695192643792213
aaa.