(lp0
(lp1
(lp2
I0
aI0
aI0
aI0
aI0
aI0
aI0
aI0
aI0
aI0
aI0
aI0
aI0
aI0
aI0
aI0
aI0
aa(lp3
I0
aI0
aI0
aI0
aI0
aI0
aI0
aI0
aI0
aI0
aI0
aI0
aI0
aI0
aI0
aI0
aI0
aa(lp4
I0
aI0
aI0
aI0
aI0
aI0
aI0
aI0
aI0
aI0
aI0
aI0
aI0
aI0
aI0
aI0
aI0
aa(lp5
I0
aI0
aI0
aI0
aI0
aI0
aI0
aI0
aI0
aI0
aI0
aI0
aI0
aI0
aI0
aI0
aI0
aa(lp6
I0
aI0
aI0
aI0
aI0
aI0
aI0
aI0
aI0
aI0
aI0
aI0
aI0
aI0
aI0
aI0
aI0
aa(lp7
I0
aI0
aI0
aI0
aI0
aI0
aI0
aI0
aI0
aI0
aI0
aI0
aI0
aI0
aI0
aI0
aI0
aa(lp8
I0
aI0
aI0
aI0
aI0
aI0
aI0
aI0
aI0
aI0
aI0
aI0
aI0
aI0
aI0
aI0
aI0
aa(lp9
I0
aI0
aI0
aI0
aI0
aI0
aI0
aI0
aI0
aI0
aI0
aI0
aI0
aI0
aI0
aI0
aI0
aa(lp10
I0
aI0
aI0
aI0
aI0
aI0
aI0
aI0
aI0
aI0
aI0
aI0
aI0
aI0
aI0
aI0
aI0
aa(lp11
I0
aI0
aI0
aI0
aI0
aI0
aI0
aI0
aI0
aI0
aI0
aI0
aI0
aI0
aI0
aI0
aI0
aa(lp12
I0
aI0
aI0
aI0
aI0
aI0
aI0
aI0
aI0
aI0
aI0
aI0
aI0
aI0
aI0
aI0
aI0
aa(lp13
I0
aI0
aI0
aI0
aI0
aI0
aI0
aI0
aI0
aI0
aI0
aI0
aI0
aI0
aI0
aI0
aI0
aa(lp14
I0
aI0
aI0
aI0
aI0
aI0
aI0
aI0
aI0
aI0
aI0
aI0
aI0
aI0
aI0
aI0
aI0
aa(lp15
I0
aI0
aI0
aI0
aI0
aI0
aI0
aI0
aI0
aI0
aI0
aI0
aI0
aI0
aI0
aI0
aI0
aa(lp16
I0
aI0
aI0
aI0
aI0
aI0
aI0
aI0
aI0
aI0
aI0
aI0
aI0
aI0
aI0
aI0
aI0
aa(lp17
I0
aI0
aI0
aI0
aI0
aI0
aI0
aI0
aI0
aI0
aI0
aI0
aI0
aI0
aI0
aI0
aI0
aaa(lp18
(lp19
F-0.16696534344668662
aF-0.6649757970515815
aF0.48583630826305496
aF-0.34047193984700763
aF-0.08140410964606329
aF0.36675452805745273
aF-0.085010536724639
aF-0.632242863888576
aF0.814706517745666
aF0.12473663110050778
aF0.7676755577819696
aF-1.0744662435014116
aF-0.9832536777201881
aF0.694757440556848
aF0.5061550672534327
aF0.023621680273691114
aF-0.5836669039482844
aa(lp20
F-1.8394987124321356
aF-1.1790049234912914
aF-0.961223021486444
aF-0.34715418305777257
aF-0.8382756905087313
aF0.5842393263870301
aF-0.030544889346336476
aF0.09158292032639102
aF-0.3397649276276319
aF-0.47548215969476304
aF0.15725672528800186
aF0.37450959054109034
aF0.47620504930243124
aF-0.07361224924904412
aF0.17516787174212622
aF0.5314145877921219
aF-0.15519500762259464
aa(lp21
F0.743025057501642
aF-0.2315031381571256
aF-0.4537246664300952
aF-0.698183103577039
aF0.45072025514716024
aF-0.6135488041384843
aF-0.48229266993647485
aF0.7898287296231089
aF0.2706942298391863
aF-0.2823166045689393
aF-0.7484943115078253
aF-0.49281534168582236
aF0.2981328581147397
aF0.6851883525670927
aF0.5861692684908834
aF-0.5569332284242035
aF-0.728137243301444
aa(lp22
F-1.923024518010326
aF-0.6487591618482859
aF-1.6066929648940287
aF-0.5578097418558368
aF0.3731410045618049
aF-1.1503653433614764
aF0.2544462881361617
aF0.18856026584028365
aF-0.7072464691696657
aF-1.3113645416897222
aF0.6079093993683697
aF-0.2911933885778138
aF0.4565643494214943
aF0.5496712871554914
aF-0.5507414516711193
aF-1.1682411740344163
aF-0.8469276798451294
aa(lp23
F-2.021372192135275
aF-0.006470397787617173
aF-0.1198597945496918
aF0.2770998307142589
aF-0.7655617554165508
aF-0.9581328192488477
aF-0.7092405585877879
aF-0.44412191296020326
aF0.7034058236617489
aF-0.0014814158893513894
aF0.5868135743046821
aF-1.0912910151668123
aF-1.190322438576978
aF-1.0883020318295569
aF-0.9555763436191976
aF-0.2704961719764174
aF-0.7747273487110758
aa(lp24
F-1.9091122167754697
aF-0.3693372735961237
aF-1.6188100219782102
aF-0.11500577133464115
aF0.49988113863803135
aF-0.5877945153983206
aF-0.9290959850206651
aF-0.1608032815944972
aF0.362791276173524
aF-0.6238244283861405
aF-0.28192124435751104
aF-0.20876889196425147
aF-1.305879579673115
aF0.43187947169274044
aF-0.7989350030939673
aF-1.0869794098173156
aF-0.9612186728791403
aa(lp25
F-2.810050870786676
aF-1.487724641020131
aF-1.7212245699986193
aF0.15507785363726365
aF-0.7806546773706227
aF-0.609417258665777
aF-0.23368553339187487
aF-1.833214934390733
aF0.35296333839657346
aF-0.35614879903064756
aF-0.6900932809422644
aF-0.12293324508185786
aF-0.5950468238947594
aF-0.15524012284265393
aF0.2918402402415574
aF0.11101161978496425
aF0.14568268274183457
aa(lp26
F-2.3000100163664348
aF-1.0249292965303523
aF-1.6256642108878092
aF-0.6779999467351916
aF-0.8602861004669028
aF-0.23372123045408857
aF0.1654053428552876
aF-0.2007720429141766
aF0.12698748786856962
aF-0.21216945155605915
aF-0.9807051608173298
aF-1.0178166517638767
aF-1.3409484812507637
aF-0.21649645968994768
aF-0.0007181898705045991
aF-0.3096601045192024
aF0.5365689757596281
aa(lp27
F-2.7183193335899363
aF-0.6979168764038256
aF-1.187353491738522
aF0.09510892562476879
aF-0.42515577371441393
aF-0.7574267930381656
aF-0.2808329883826238
aF-1.7184141745102506
aF-0.6374576916315506
aF-0.09217779961024636
aF-0.8705812101592
aF-0.0831910295235624
aF-0.7286365043091226
aF-0.7948825415044464
aF0.0012756267210357894
aF0.19677491627602464
aF0.3718325044919736
aa(lp28
F-2.0485108482901175
aF-1.3115773566350315
aF-1.008191698468477
aF0.2799747712839757
aF-1.2793823162624427
aF-0.9765203361291075
aF-0.8392901548265589
aF-0.776034220545336
aF0.3021833373673789
aF0.1171766671619828
aF-0.43923510386507547
aF-0.682564051595043
aF-0.4751813793032558
aF-0.16203594835163684
aF-0.6399545299400814
aF0.3296400721671375
aF-0.713351689905181
aa(lp29
F-1.0174244595015085
aF-1.3944793394685024
aF-0.44606707452652294
aF-0.1256873113059829
aF0.3191434589749893
aF-0.4880895303121336
aF-0.6399115475458383
aF-0.7303555677374981
aF-0.4925083200752882
aF-0.8674704169667683
aF0.25238575610437125
aF-0.22923009161702726
aF-0.4035175934996057
aF-0.22107545744947626
aF-0.41520401244957683
aF-1.2129879404010657
aF-1.1236690962686566
aa(lp30
F-3.6637801171408166
aF-0.9716550688753719
aF-1.7815673506867393
aF-1.3233709731153385
aF-0.14722207952573038
aF-1.037484262838786
aF-0.45684176760690476
aF-0.7649006505228525
aF-0.4610554149655864
aF-0.42817491903654514
aF0.5064500911768717
aF0.2653093040413273
aF0.3257154577223305
aF0.2919243809335689
aF-0.5778893556341126
aF-0.87179198866129
aF-0.22445885008319927
aa(lp31
F-2.464435470009984
aF-0.7758779984433338
aF-1.055705114847921
aF-1.3250599484856889
aF-0.7880075942822422
aF-0.8997591890470058
aF-1.3077619633641036
aF0.3491451000604041
aF0.5121943481494661
aF-1.3127207023791727
aF0.5529538514898323
aF-1.0005270028948274
aF0.008487840728607426
aF-0.18680279382167342
aF-0.7963738951511984
aF0.020421818001977364
aF0.11927436949153929
aa(lp32
F-2.5851651623932725
aF-1.7619385639447116
aF0.3407704102763619
aF0.00988519910273474
aF-0.6660768481526218
aF0.6275149766836924
aF0.35873570030401153
aF-1.315020205595043
aF-0.09774698902728839
aF-0.4663759703574503
aF0.22734369519111905
aF-1.161827694664198
aF-1.2875256879478447
aF-1.0988743806122194
aF-1.2220858396627634
aF-1.1706547617541108
aF0.6272980932515196
aa(lp33
F-2.19196221516508
aF-1.3785012590858738
aF-1.378976624391584
aF-0.5290726638878385
aF-1.4295973253935985
aF-0.9669887708059385
aF0.31232411544219724
aF0.16864680721021946
aF-1.1582201708525501
aF-1.3159847044586235
aF0.23073928045772213
aF-0.08514995274935866
aF0.3221450192400243
aF0.3592582781203353
aF-0.2089614230727023
aF-0.3757746414373238
aF-0.33290705843474483
aa(lp34
F-1.3210987152006701
aF-1.4638094445659091
aF-1.1726446184518884
aF-1.2489428868395873
aF-0.38231651828706514
aF-0.18384057304956064
aF0.20592161994093253
aF0.4914192845269798
aF-0.9658321200737985
aF-0.9544556572327603
aF-0.22115404296919247
aF0.13656165080223287
aF-0.9051373178727643
aF0.30368616859585534
aF-0.8604516493932989
aF0.4929643990954734
aF-1.2190183723734267
aaa.