(lp0
(lp1
(lp2
I0
aI0
aI0
aI0
aI0
aI0
aI0
aI0
aI0
aI0
aI0
aI0
aI0
aI0
aI0
aI0
aI0
aa(lp3
I0
aI0
aI0
aI0
aI0
aI0
aI0
aI0
aI0
aI0
aI0
aI0
aI0
aI0
aI0
aI0
aI0
aa(lp4
I0
aI0
aI0
aI0
aI0
aI0
aI0
aI0
aI0
aI0
aI0
aI0
aI0
aI0
aI0
aI0
aI0
aa(lp5
I0
aI0
aI0
aI0
aI0
aI0
aI0
aI0
aI0
aI0
aI0
aI0
aI0
aI0
aI0
aI0
aI0
aa(lp6
I0
aI0
aI0
aI0
aI0
aI0
aI0
aI0
aI0
aI0
aI0
aI0
aI0
aI0
aI0
aI0
aI0
aa(lp7
I0
aI0
aI0
aI0
aI0
aI0
aI0
aI0
aI0
aI0
aI0
aI0
aI0
aI0
aI0
aI0
aI0
aa(lp8
I0
aI0
aI0
aI0
aI0
aI0
aI0
aI0
aI0
aI0
aI0
aI0
aI0
aI0
aI0
aI0
aI0
aa(lp9
I0
aI0
aI0
aI0
aI0
aI0
aI0
aI0
aI0
aI0
aI0
aI0
aI0
aI0
aI0
aI0
aI0
aa(lp10
I0
aI0
aI0
aI0
aI0
aI0
aI0
aI0
aI0
aI0
aI0
aI0
aI0
aI0
aI0
aI0
aI0
aa(lp11
I0
aI0
aI0
aI0
aI0
aI0
aI0
aI0
aI0
aI0
aI0
aI0
aI0
aI0
aI0
aI0
aI0
aa(lp12
I0
aI0
aI0
aI0
aI0
aI0
aI0
aI0
aI0
aI0
aI0
aI0
aI0
aI0
aI0
aI0
aI0
aa(lp13
I0
aI0
aI0
aI0
aI0
aI0
aI0
aI0
aI0
aI0
aI0
aI0
aI0
aI0
aI0
aI0
aI0
aa(lp14
I0
aI0
aI0
aI0
aI0
aI0
aI0
aI0
aI0
aI0
aI0
aI0
aI0
aI0
aI0
aI0
aI0
aa(lp15
I0
aI0
aI0
aI0
aI0
aI0
aI0
aI0
aI0
aI0
aI0
aI0
aI0
aI0
aI0
aI0
aI0
aa(lp16
I0
aI0
aI0
aI0
aI0
aI0
aI0
aI0
aI0
aI0
aI0
aI0
aI0
aI0
aI0
aI0
aI0
aa(lp17
I0
aI0
aI0
aI0
aI0
aI0
aI0
aI0
aI0
aI0
aI0
aI0
aI0
aI0
aI0
aI0
aI0
aaa(lp18
(lp19
F-0.16601616177352913
aF-0.6640087726676138
aF0.4859895411911962
aF-0.3403473885863576
aF-0.0812900380826804
aF0.3668661886630989
aF-0.08490843302261256
aF-0.6321379990677872
aF0.8148072229456584
aF0.124840493045275
aF0.767771840417668
aF-1.0743693731703923
aF-0.983150405729858
aF0.694857993329273
aF0.5062536954212387
aF0.02372362684692315
aF-0.5835670485053795
aa(lp20
F-1.8294990077135893
aF-1.1754435715694993
aF-0.9585850857214837
aF-0.34492852332189294
aF-0.8370517554054336
aF0.5854014233832245
aF-0.02948194278461009
aF0.09267391290833381
aF-0.3387161968430793
aF-0.47440135170055975
aF0.15826044906122652
aF0.375519298632139
aF0.4772798656944731
aF-0.07256506765917314
aF0.17619547742235947
aF0.532475938243854
aF-0.15415491630625963
aa(lp21
F0.5219506200977867
aF-0.31476265412289484
aF-0.5090784919521599
aF-0.7477626519424766
aF0.4235837718196904
aF-0.639317150922196
aF-0.5058252728940387
aF0.765671998216775
aF0.2474778242117684
aF-0.3062466425892849
aF-0.7707102423139242
aF-0.5151642553222033
aF0.27433615458630817
aF0.6620063993005189
aF0.5634225722794087
aF-0.5804303236880799
aF-0.7511615296879062
aa(lp22
F-1.7027756295140306
aF-0.5659840191744305
aF-1.5516187683238665
aF-0.5081651367282998
aF0.400133231730612
aF-1.1247310052414965
aF0.27784420462072756
aF0.21257503947956222
aF-0.6841612004551666
aF-1.2875737789665311
aF0.6300048546952268
aF-0.26896631888868355
aF0.4802233332870723
aF0.5727224849241747
aF-0.5281207811401375
aF-1.1448783621364325
aF-0.8240324166734553
aa(lp23
F-1.8294837002150977
aF0.06561172664609997
aF-0.07187510530513594
aF0.32036112297357505
aF-0.7420489187115836
aF-0.935797547290566
aF-0.6888565486049599
aF-0.4232005661338273
aF0.7235174887981431
aF0.019244797999733228
aF0.6060630156848653
aF-1.0719269243609133
aF-1.1697110156186799
aF-1.0682200455925845
aF-0.935869387578482
aF-0.25014274126016606
aF-0.7547811961221211
aa(lp24
F-1.6089708200471948
aF-0.2565159994963948
aF-1.543755464004067
aF-0.04732517334369321
aF0.5366556042708672
aF-0.5528651875189811
aF-0.8972157250290969
aF-0.1280829312840511
aF0.39424573050622225
aF-0.5914091513781621
aF-0.2518149116802234
aF-0.1784832959001638
aF-1.27364377051697
aF0.46328752310643917
aF-0.7681133181627966
aF-1.0551469594421439
aF-0.9300229981394303
aa(lp25
F-2.4948934351357472
aF-1.3692586551880952
aF-1.642414602186514
aF0.22613772092050566
aF-0.7420384025303268
aF-0.5727388716470401
aF-0.20020827383442757
aF-1.7988553388123905
aF0.38599338578431136
aF-0.3221096198603803
aF-0.6584791038628375
aF-0.0911307980524511
aF-0.5611961375898079
aF-0.12225881094734938
aF0.32420571425286826
aF0.14443866599664865
aF0.1784409428424937
aa(lp26
F-2.007359229457776
aF-0.9149238214619532
aF-1.5524829840613747
aF-0.6120053644831764
aF-0.8244303165017588
aF-0.19966433606652403
aF0.19648904423246166
aF-0.16886931555621176
aF0.15765605745794842
aF-0.18056414728061387
aF-0.9513509304356533
aF-0.9882876491575732
aF-1.3095181448248607
aF-0.1858731299242317
aF0.029333468965707425
aF-0.27862301420203994
aF0.5669852518322435
aa(lp27
F-2.4086511538790294
aF-0.5815143725330595
aF-1.1099163559222007
aF0.16493356246515106
aF-0.387212817160209
aF-0.7213878125861081
aF-0.24793955526346395
aF-1.6846538516730811
aF-0.6050036438990511
aF-0.05873228325338001
aF-0.839518262396947
aF-0.05194310477125154
aF-0.6953761809990974
aF-0.7624763764175059
aF0.03307672934686326
aF0.22961901491879766
aF0.4040195208657817
aa(lp28
F-1.7790348184022027
aF-1.2102834659177677
aF-0.9408061798731213
aF0.34075185979379075
aF-1.246368427684167
aF-0.9451623320161963
aF-0.8106705110173402
aF-0.7466606813021796
aF0.33042085389094195
aF0.14627643732670734
aF-0.41220746379941037
aF-0.6553755273552936
aF-0.44624266308100957
aF-0.1338400752204939
aF-0.612284886597416
aF0.35821681091704727
aF-0.6853464110605301
aa(lp29
F-0.7449145762381422
aF-1.2920450022552266
aF-0.37792283509890073
aF-0.06422708636558001
aF0.352529355264927
aF-0.4563782328521608
aF-0.6109693602411113
aF-0.7006509619440059
aF-0.4639525791537131
aF-0.838042675612234
aF0.27971794977742104
aF-0.2017351962408408
aF-0.37425272687522004
aF-0.19256183056695428
aF-0.3872225620667556
aF-1.1840891431342788
aF-1.0953482176403517
aa(lp30
F-3.3573218494011954
aF-0.8564592101585483
aF-1.7049329924595058
aF-1.2542687030802475
aF-0.10967283969164442
aF-1.0018191720401861
aF-0.42428971936941295
aF-0.7314907433897468
aF-0.42893817606993456
aF-0.3950765385018086
aF0.5371907126355133
aF0.29623297717127495
aF0.35863057447859326
aF0.3239942358149971
aF-0.5464182631514448
aF-0.8392887610576346
aF-0.19260586190797055
aa(lp31
F-2.1725960608204273
aF-0.6661775283091523
aF-0.9827268051897114
aF-1.2592480060970899
aF-0.7522513178324074
aF-0.8657967933661587
aF-1.276764541135354
aF0.3809592669712677
aF0.5427777945967419
aF-1.2812031300240214
aF0.5822266174951948
aF-0.9710799510783099
aF0.03983093259088524
aF-0.15626446123157725
aF-0.7664056419141804
aF0.05137275897695151
aF0.1496062248832986
aa(lp32
F-2.303494839649649
aF-1.6560607463164705
aF0.41120554941084914
aF0.073407902402654
aF-0.6315676537052037
aF0.6602930538074678
aF0.3886518344483565
aF-1.2843159123673646
aF-0.06823034526419954
aF-0.43595788996103757
aF0.2555955056001496
aF-1.133407693632055
aF-1.2572759812700294
aF-1.0694012722696433
aF-1.1931628671393897
aF-1.1407834823250202
aF0.656571948242758
aa(lp33
F-1.892665920105949
aF-1.265997668001028
aF-1.3041334190570806
aF-0.46158227480919334
aF-1.392926509674927
aF-0.9321578744151472
aF0.34411450355470846
aF0.2012749088170621
aF-1.1268543840062357
aF-1.28366081292811
aF0.26076075747450356
aF-0.0549497191007151
aF0.35428995068300995
aF0.3905777932858613
aF-0.17822661621827313
aF-0.3440319277010914
aF-0.30179931932390197
aa(lp34
F-1.0329604230759915
aF-1.3555002598558925
aF-1.1005919179465027
aF-1.183964089206586
aF-0.34701413901962874
aF-0.15030922863967358
aF0.2365254866704067
aF0.5228294906714368
aF-0.9356369564214669
aF-0.9233382666453562
aF-0.19225287151459347
aF0.1656348894454301
aF-0.8741921848884874
aF0.333836792942532
aF-0.8308638449702042
aF0.523522376634502
aF-1.1890715957457376
aaa.