(lp0
(lp1
(lp2
I0
aI0
aI0
aI0
aI0
aI0
aI0
aI0
aI0
aI0
aI0
aI0
aI0
aI0
aI0
aI0
aI0
aa(lp3
I0
aI0
aI0
aI0
aI0
aI0
aI0
aI0
aI0
aI0
aI0
aI0
aI0
aI0
aI0
aI0
aI0
aa(lp4
I0
aI0
aI0
aI0
aI0
aI0
aI0
aI0
aI0
aI0
aI0
aI0
aI0
aI0
aI0
aI0
aI0
aa(lp5
I0
aI0
aI0
aI0
aI0
aI0
aI0
aI0
aI0
aI0
aI0
aI0
aI0
aI0
aI0
aI0
aI0
aa(lp6
I0
aI0
aI0
aI0
aI0
aI0
aI0
aI0
aI0
aI0
aI0
aI0
aI0
aI0
aI0
aI0
aI0
aa(lp7
I0
aI0
aI0
aI0
aI0
aI0
aI0
aI0
aI0
aI0
aI0
aI0
aI0
aI0
aI0
aI0
aI0
aa(lp8
I0
aI0
aI0
aI0
aI0
aI0
aI0
aI0
aI0
aI0
aI0
aI0
aI0
aI0
aI0
aI0
aI0
aa(lp9
I0
aI0
aI0
aI0
aI0
aI0
aI0
aI0
aI0
aI0
aI0
aI0
aI0
aI0
aI0
aI0
aI0
aa(lp10
I0
aI0
aI0
aI0
aI0
aI0
aI0
aI0
aI0
aI0
aI0
aI0
aI0
aI0
aI0
aI0
aI0
aa(lp11
I0
aI0
aI0
aI0
aI0
aI0
aI0
aI0
aI0
aI0
aI0
aI0
aI0
aI0
aI0
aI0
aI0
aa(lp12
I0
aI0
aI0
aI0
aI0
aI0
aI0
aI0
aI0
aI0
aI0
aI0
aI0
aI0
aI0
aI0
aI0
aa(lp13
I0
aI0
aI0
aI0
aI0
aI0
aI0
aI0
aI0
aI0
aI0
aI0
aI0
aI0
aI0
aI0
aI0
aa(lp14
I0
aI0
aI0
aI0
aI0
aI0
aI0
aI0
aI0
aI0
aI0
aI0
aI0
aI0
aI0
aI0
aI0
aa(lp15
I0
aI0
aI0
aI0
aI0
aI0
aI0
aI0
aI0
aI0
aI0
aI0
aI0
aI0
aI0
aI0
aI0
aa(lp16
I0
aI0
aI0
aI0
aI0
aI0
aI0
aI0
aI0
aI0
aI0
aI0
aI0
aI0
aI0
aI0
aI0
aa(lp17
I0
aI0
aI0
aI0
aI0
aI0
aI0
aI0
aI0
aI0
aI0
aI0
aI0
aI0
aI0
aI0
aI0
aaa(lp18
(lp19
F-0.16700773355280651
aF-0.6683661920837347
aF0.4863045298846655
aF-0.33987997748011084
aF-0.08139002927249504
aF0.3667651876437787
aF-0.08500522815879716
aF-0.6322371032363416
aF0.8147115983626828
aF0.12474222732977445
aF0.767679920798966
aF-1.0744617856194227
aF-0.9832481773853617
aF0.6947624965025873
aF0.5061598097298974
aF0.02362696282947101
aF-0.5836619616842836
aa(lp20
F-1.848343403202064
aF-1.1812830615496057
aF-0.9641678995241575
aF-0.3490829304118243
aF-0.8392618889922231
aF0.5832922106635755
aF-0.0313877478739493
aF0.09072361180215113
aF-0.34059930127321847
aF-0.4763355392325837
aF0.15644987287212908
aF0.3736990210247888
aF0.4753551814382027
aF-0.07444569180645916
aF0.17434629183968084
aF0.5305726772860081
aF-0.15602417555585885
aa(lp21
F0.965435988004929
aF-0.1467915419457106
aF-0.3981191203492891
aF-0.6429541189926087
aF0.47583179988539526
aF-0.58940025921032
aF-0.46087349264080296
aF0.8116730295191623
aF0.2918941394088052
aF-0.2606255356143757
aF-0.7280053687416032
aF-0.4722303970109013
aF0.31973317144259833
aF0.7063642129424039
aF0.6070386350068416
aF-0.5355385434572109
aF-0.707071835651459
aa(lp22
F-2.818514944609243
aF-0.9851302200426777
aF-1.8292428850747937
aF-0.7911009377080697
aF0.27713964145464487
aF-1.2432566623531576
aF0.17346517459456068
aF0.10622708965020783
aF-0.7875246473043886
aF-1.393212026342863
aF0.5299364109496496
aF-0.36947995471704154
aF0.375005403026873
aF0.46947043620842316
aF-0.6299528219697466
aF-1.2491439568200642
aF-0.9267727962624612
aa(lp23
F-2.8363530843868534
aF-0.31256878208691197
aF-0.32240874954787585
aF0.0646759636692525
aF-0.8528388359934939
aF-1.0426105168112265
aF-0.7828543311348888
aF-0.5189603757641134
aF0.6304288758420856
aF-0.07587997460643335
aF0.5159255241672225
aF-1.162463265521411
aF-1.2644596431162647
aF-1.1612089205543057
aF-1.0275866760297434
aF-0.3440389843417835
aF-0.8473119273120955
aa(lp24
F-3.2149020822129466
aF-0.8599897981639852
aF-1.943370520627792
aF-0.45554903802175517
aF0.3601694109821124
aF-0.7230247951409413
aF-1.0469105616037981
aF-0.28057157132367283
aF0.24599275609112736
aF-0.7428909953334396
aF-0.39538622554416003
aF-0.32268747165532224
aF-1.4245292184589784
aF0.31519273745810594
aF-0.9141910939125002
aF-1.2046807741324923
aF-1.0773911163553653
aa(lp25
F-4.156639857775385
aF-1.9937074064159903
aF-2.055927866880761
aF-0.19603685752886596
aF-0.9247848241366509
aF-0.748918022377234
aF-0.3552361910660316
aF-1.956784018933257
aF0.23246232343941897
aF-0.4789928969459604
aF-0.8071508859127459
aF-0.24045937058677966
aF-0.71746018230934
aF-0.27562565965669117
aF0.17293255213865896
aF-0.010422081024047734
aF0.025828416567483296
aa(lp26
F-3.584794379563298
aF-1.5076890189701293
aF-1.9450027355489223
aF-1.0130982903873804
aF-0.9977245892248788
aF-0.3667541958687291
aF0.04951264792871357
aF-0.31858524475991445
aF0.01209361345615825
aF-0.3292928672716511
aF-1.0923218902185783
aF-1.1298793197499308
aF-1.4576620557111373
aF-0.3312804431746924
aF-0.11409575759223889
aF-0.42544150878481785
aF0.4222905685871485
aa(lp27
F-4.050192535291003
aF-1.1983701958318518
aF-1.518398375938109
aF-0.2521934397299462
aF-0.5676917723397651
aF-0.8953868386705476
aF-0.4010355934387239
aF-1.8406118316301263
aF-0.756622784805027
aF-0.21365887326020244
aF-0.9863425742776692
aF-0.19941552520240988
aF-0.8496918271695084
aF-0.9139334901109007
aF-0.11631452225587155
aF0.07668791557246932
aF0.25330669382845045
aa(lp28
F-3.2654066020531425
aF-1.7688279838284886
aF-1.3106533847749329
aF-0.03751595675427762
aF-1.409481086370111
aF-1.1024578736003834
aF-0.9489789459827018
aF-0.8875367065306772
aF0.19343791560238302
aF0.006325574297430992
aF-0.5448848527896815
aF-0.7886350861117418
aF-0.5856454266883216
aF-0.2706775758562527
aF-0.747267697744439
aF0.2200563898466405
aF-0.8215157797064482
aa(lp29
F-2.243464988969275
aF-1.8551661094983294
aF-0.7508020903885503
aF-0.4455507005625152
aF0.1880566480796054
aF-0.6149822980222459
aF-0.7504353603870547
aF-0.8427074186075201
aF-0.6020813164799053
aF-0.9791657193760284
aF0.14593280793764832
aF-0.33610763711004893
aF-0.5148227893265854
aF-0.3305438407819039
aF-0.5233334656229806
aF-1.3234058142195952
aF-1.2326561760917187
aa(lp30
F-4.986942733240085
aF-1.4688353919728356
aF-2.1104467530212525
aF-1.6684163803014544
aF-0.288814720619467
aF-1.1745325392048063
aF-0.5762466928952328
aF-0.8862868095792501
aF-0.5794299999869124
aF-0.5488494621533897
aF0.39145577476390264
aF0.14985504230988334
aF0.20546371626456642
aF0.17366315207032215
aF-0.6946998645010203
aF-0.9910821091766346
aF-0.3421985666821797
aa(lp31
F-3.746917730671989
aF-1.2577727075444969
aF-1.3744713387616543
aF-1.6595614651143025
aF-0.9251970121277445
aF-1.0325513946961826
aF-1.4234440966742505
aF0.23154609450414257
aF0.3975091486598543
aF-1.4296312283373456
aF0.44153962360687665
aF-1.1123863308013506
aF-0.10801361968838125
aF-0.3013783098097106
aF-0.9095456474989658
aF-0.09514923498823119
aF0.00520347588628249
aa(lp32
F-3.8383412193315554
aF-2.2328214885514606
aF0.029289639260221382
aF-0.3170170675669997
aF-0.80009666283575
aF0.49778673988708655
aF0.24573290135908268
aF-1.429893684943396
aF-0.20977683295156255
aF-0.5805775739602983
aF0.11850635573926149
aF-1.2710994750070916
aF-1.401328084273873
aF-1.210797177361522
aF-1.3326385815189368
aF-1.2835491536451082
aF0.5158677945628408
aa(lp33
F-3.495404364240363
aF-1.8682716309373582
aF-1.7029534779228084
aF-0.8690074427188099
aF-1.5690549271753944
aF-1.1019734185617527
aF0.19472439650271325
aF0.049097090220430135
aF-1.2748057615755497
aF-1.4348340341534571
aF0.11748091985796212
aF-0.19886105496812093
aF0.20371182482594505
aF0.2427842612528482
aF-0.3240075069190753
aF-0.49326136309187957
aF-0.4488677594564076
aa(lp34
F-2.5930125253969516
aF-1.9417330661714687
aF-1.4887835410799262
aF-1.5807042754796508
aF-0.5183626704138723
aF-0.315527642869781
aF0.09120595895995934
aF0.37480342576533876
aF-1.0795595028629592
aF-1.0703890301941028
aF-0.33163877701003575
aF0.025635664045681725
aF-1.02066518396335
aF0.19006751768597094
aF-0.9726787041311622
aF0.378358853455141
aF-1.3321367773275399
aaa.