(lp0
(lp1
(lp2
I0
aI0
aI0
aI0
aI0
aI0
aI0
aI0
aI0
aI0
aI0
aI0
aI0
aI0
aI0
aI0
aI0
aa(lp3
I0
aI0
aI0
aI0
aI0
aI0
aI0
aI0
aI0
aI0
aI0
aI0
aI0
aI0
aI0
aI0
aI0
aa(lp4
I0
aI0
aI0
aI0
aI0
aI0
aI0
aI0
aI0
aI0
aI0
aI0
aI0
aI0
aI0
aI0
aI0
aa(lp5
I0
aI0
aI0
aI0
aI0
aI0
aI0
aI0
aI0
aI0
aI0
aI0
aI0
aI0
aI0
aI0
aI0
aa(lp6
I0
aI0
aI0
aI0
aI0
aI0
aI0
aI0
aI0
aI0
aI0
aI0
aI0
aI0
aI0
aI0
aI0
aa(lp7
I0
aI0
aI0
aI0
aI0
aI0
aI0
aI0
aI0
aI0
aI0
aI0
aI0
aI0
aI0
aI0
aI0
aa(lp8
I0
aI0
aI0
aI0
aI0
aI0
aI0
aI0
aI0
aI0
aI0
aI0
aI0
aI0
aI0
aI0
aI0
aa(lp9
I0
aI0
aI0
aI0
aI0
aI0
aI0
aI0
aI0
aI0
aI0
aI0
aI0
aI0
aI0
aI0
aI0
aa(lp10
I0
aI0
aI0
aI0
aI0
aI0
aI0
aI0
aI0
aI0
aI0
aI0
aI0
aI0
aI0
aI0
aI0
aa(lp11
I0
aI0
aI0
aI0
aI0
aI0
aI0
aI0
aI0
aI0
aI0
aI0
aI0
aI0
aI0
aI0
aI0
aa(lp12
I0
aI0
aI0
aI0
aI0
aI0
aI0
aI0
aI0
aI0
aI0
aI0
aI0
aI0
aI0
aI0
aI0
aa(lp13
I0
aI0
aI0
aI0
aI0
aI0
aI0
aI0
aI0
aI0
aI0
aI0
aI0
aI0
aI0
aI0
aI0
aa(lp14
I0
aI0
aI0
aI0
aI0
aI0
aI0
aI0
aI0
aI0
aI0
aI0
aI0
aI0
aI0
aI0
aI0
aa(lp15
I0
aI0
aI0
aI0
aI0
aI0
aI0
aI0
aI0
aI0
aI0
aI0
aI0
aI0
aI0
aI0
aI0
aa(lp16
I0
aI0
aI0
aI0
aI0
aI0
aI0
aI0
aI0
aI0
aI0
aI0
aI0
aI0
aI0
aI0
aI0
aa(lp17
I0
aI0
aI0
aI0
aI0
aI0
aI0
aI0
aI0
aI0
aI0
aI0
aI0
aI0
aI0
aI0
aI0
aaa(lp18
(lp19
F-0.1644476424184437
aF-0.6668657513012479
aF0.4868596201412828
aF-0.33928362413498625
aF-0.08114145335751129
aF0.3670080276193068
aF-0.08479935698056495
aF-0.6320288805460873
aF0.814916225724306
aF0.124949611661071
aF0.7678803685796504
aF-1.0742607601974177
aF-0.9830412948346656
aF0.6949669861398027
aF0.5063625220470225
aF0.023832696236963144
aF-0.5834581077720402
aa(lp20
F-1.8476898061246838
aF-1.1811934402896547
aF-0.9638874219868121
aF-0.34897845339683053
aF-0.8391989214378155
aF0.5833528615397846
aF-0.03133637899489196
aF0.09077552484994969
aF-0.3405482208211099
aF-0.476283820009519
aF0.15649997950038216
aF0.37374926262813574
aF0.47540678474712106
aF-0.07439464332142705
aF0.17439692681383925
aF0.5306240141342201
aF-0.1559732748800669
aa(lp21
F0.9622434053780926
aF-0.1482014363140191
aF-0.3989398164246937
aF-0.6436499670809818
aF0.47551752308237705
aF-0.5897069747006753
aF-0.46113178836760654
aF0.8114117288757251
aF0.2916374318483803
aF-0.2608857645764981
aF-0.7282567436592823
aF-0.47248250855565255
aF0.3194735834109689
aF0.7061076812132593
aF0.6067843717847065
aF-0.535796663153497
aF-0.7073275557029725
aa(lp22
F-2.700129711166675
aF-0.9406213249495763
aF-1.7998483736169908
aF-0.7593925487254913
aF0.28879701931744617
aF-1.2318680942117166
aF0.18309838192637137
aF0.11597419775314984
aF-0.7779516143077992
aF-1.3835055540510592
aF0.5393075628702567
aF-0.3600809341168096
aF0.3846875857128907
aF0.4790368098658633
aF-0.6204723543711714
aF-1.2395174225905934
aF-0.9172371594234575
aa(lp23
F-2.726253063213707
aF-0.2711708306392985
aF-0.295065212610205
aF0.0941620874706557
aF-0.8419986161506395
aF-1.0320180444072575
aF-0.7738952885946196
aF-0.5098954032799711
aF0.6393319550626799
aF-0.06685279424279683
aF0.5246408500672958
aF-1.1537220212508537
aF-1.2554550525401424
aF-1.152312034648412
aF-1.018769684443973
aF-0.3350861479629995
aF-0.8384436272381738
aa(lp24
F-3.0337054343706873
aF-0.7918378147732017
aF-1.8983644852174604
aF-0.40701623299426487
aF0.3780089564017123
aF-0.7055950152713174
aF-1.0321674494713373
aF-0.265654181286778
aF0.26064379558417466
aF-0.7280357813594723
aF-0.3810440875253104
aF-0.30830269103907093
aF-1.4097111696354008
aF0.32983358748829933
aF-0.8996816895324677
aF-1.189947872531447
aF-1.0627972968565973
aa(lp25
F-3.9713291809868534
aF-1.9240080615318633
aF-2.0098999803117263
aF-0.1464021228785161
aF-0.9065401692303023
aF-0.7310924439531276
aF-0.3401582701959199
aF-1.9415278599394343
aF0.24744607949396694
aF-0.4638003268910681
aF-0.7924830503129009
aF-0.22574792346754122
aF-0.7023056219312483
aF-0.26065232459934584
aF0.18777145474996026
aF0.004645397298169053
aF0.04075365242720416
aa(lp26
F-3.4057544143512635
aF-1.4403482036458723
aF-1.9005323815206712
aF-0.9651431459001996
aF-0.9800974114288957
aF-0.34953190274702695
aF0.06408024601458549
aF-0.3038454447488594
aF0.026570235639411497
aF-0.3146145026826731
aF-1.0781504900945336
aF-1.1156657849468665
aF-1.4430204135649305
aF-0.31681388908194835
aF-0.09975908344422238
aF-0.41088399960534966
aF0.4367106523528027
aa(lp27
F-3.8663543624343744
aF-1.129224686506459
aF-1.4727362329865998
aF-0.20295311061469673
aF-0.5495921156981751
aF-0.877702925871619
aF-0.38607750862609985
aF-1.8254769261666506
aF-0.741758115960088
aF-0.19858705102787466
aF-0.9717913136010149
aF-0.18482099981010155
aF-0.8346577123344338
aF-0.8990791593906113
aF-0.10159355492489523
aF0.09163564088234352
aF0.2681133078563051
aa(lp28
F-3.093517062101786
aF-1.7041765766491461
aF-1.2679590685373525
aF0.008523969557977105
aF-1.392558000773864
aF-1.085923491044171
aF-0.9349932526899496
aF-0.8733856938165754
aF0.20733626901395247
aF0.02041760703819378
aF-0.5312795230158792
aF-0.7749893055706831
aF-0.5715886486797792
aF-0.2567888881481565
aF-0.733503699177493
aF0.2340323974573161
aF-0.8076717050734764
aa(lp29
F-2.070596191400801
aF-1.790146385153327
aF-0.7078645440600881
aF-0.3992484833103416
aF0.20507615913643362
aF-0.598353706025344
aF-0.7363699753462124
aF-0.8284757716114718
aF-0.5881037692605801
aF-0.9649933886179644
aF0.15961566098621233
aF-0.32238410268795425
aF-0.5006859142983507
aF-0.316576014371557
aF-0.5094910392166159
aF-1.3093501700809704
aF-1.2187332171007415
aa(lp30
F-4.803982211926678
aF-1.40001998343152
aF-2.0650026030047797
aF-1.6194111273734817
aF-0.2708014865782163
aF-1.1569330626890244
aF-0.5613600333271863
aF-0.8712241742008209
aF-0.5646363100589956
aF-0.5338496085948081
aF0.40593755389469827
aF0.16437987945455101
aF0.22042604259018445
aF0.18844655326721382
aF-0.680049189515131
aF-0.9762057596148623
aF-0.3274626541973219
aa(lp31
F-3.5681157253258533
aF-1.1905213933224974
aF-1.3300600897074675
aF-1.6116700574127492
aF-0.9075932660771664
aF-1.0153519947900376
aF-1.4088958640524318
aF0.246266299998809
aF0.4119665263871139
aF-1.4149723765464526
aF0.455692185242045
aF-1.0981916905281932
aF-0.09339144149430033
aF-0.28693098678138385
aF-0.8952280316637717
aF-0.08061107785336286
aF0.01960439039747423
aa(lp32
F-3.6625961340569813
aF-2.166719938670409
aF0.07294160403697507
aF-0.26994444603217554
aF-0.7827939285345501
aF0.5146920460781167
aF0.26003235922913265
aF-1.415425196638002
aF-0.19556667548941511
aF-0.5661693895944937
aF0.13241691222412527
aF-1.2571475597961508
aF-1.386955946022961
aF-1.196596902568195
aF-1.3185657947263318
aF-1.2692595988738795
aF0.5300224548586969
aa(lp33
F-3.3144474581806573
aF-1.8002098188366336
aF-1.6580069900817518
aF-0.820538851762939
aF-1.551238989077368
aF-1.0845667034389
aF0.20944799803936665
aF0.06399473888845426
aF-1.2601741107612674
aF-1.41999847921614
aF0.13180407821432807
aF-0.18449531047627182
aF0.2185102638257895
aF0.25740573609644474
aF-0.3095173036764741
aF-0.47854795856638194
aF-0.43429325287000387
aa(lp34
F-2.4153069997549124
aF-1.8748941582564849
aF-1.4446446379729365
aF-1.5331065563361554
aF-0.5008668938132588
aF-0.2984337309743725
aF0.10566495889100241
aF0.389433343141669
aF-1.0651908002453552
aF-1.0558200899799375
aF-0.3175730198680296
aF0.03974324159958327
aF-1.0061326922735103
aF0.2044262273103678
aF-0.9584489056946807
aF0.39280783973339023
aF-1.3178241914122353
aaa.