(lp0
(lp1
(lp2
I0
aI0
aI0
aI0
aI0
aI0
aI0
aI0
aI0
aI0
aI0
aI0
aI0
aI0
aI0
aI0
aI0
aa(lp3
I0
aI0
aI0
aI0
aI0
aI0
aI0
aI0
aI0
aI0
aI0
aI0
aI0
aI0
aI0
aI0
aI0
aa(lp4
I0
aI0
aI0
aI0
aI0
aI0
aI0
aI0
aI0
aI0
aI0
aI0
aI0
aI0
aI0
aI0
aI0
aa(lp5
I0
aI0
aI0
aI0
aI0
aI0
aI0
aI0
aI0
aI0
aI0
aI0
aI0
aI0
aI0
aI0
aI0
aa(lp6
I0
aI0
aI0
aI0
aI0
aI0
aI0
aI0
aI0
aI0
aI0
aI0
aI0
aI0
aI0
aI0
aI0
aa(lp7
I0
aI0
aI0
aI0
aI0
aI0
aI0
aI0
aI0
aI0
aI0
aI0
aI0
aI0
aI0
aI0
aI0
aa(lp8
I0
aI0
aI0
aI0
aI0
aI0
aI0
aI0
aI0
aI0
aI0
aI0
aI0
aI0
aI0
aI0
aI0
aa(lp9
I0
aI0
aI0
aI0
aI0
aI0
aI0
aI0
aI0
aI0
aI0
aI0
aI0
aI0
aI0
aI0
aI0
aa(lp10
I0
aI0
aI0
aI0
aI0
aI0
aI0
aI0
aI0
aI0
aI0
aI0
aI0
aI0
aI0
aI0
aI0
aa(lp11
I0
aI0
aI0
aI0
aI0
aI0
aI0
aI0
aI0
aI0
aI0
aI0
aI0
aI0
aI0
aI0
aI0
aa(lp12
I0
aI0
aI0
aI0
aI0
aI0
aI0
aI0
aI0
aI0
aI0
aI0
aI0
aI0
aI0
aI0
aI0
aa(lp13
I0
aI0
aI0
aI0
aI0
aI0
aI0
aI0
aI0
aI0
aI0
aI0
aI0
aI0
aI0
aI0
aI0
aa(lp14
I0
aI0
aI0
aI0
aI0
aI0
aI0
aI0
aI0
aI0
aI0
aI0
aI0
aI0
aI0
aI0
aI0
aa(lp15
I0
aI0
aI0
aI0
aI0
aI0
aI0
aI0
aI0
aI0
aI0
aI0
aI0
aI0
aI0
aI0
aI0
aa(lp16
I0
aI0
aI0
aI0
aI0
aI0
aI0
aI0
aI0
aI0
aI0
aI0
aI0
aI0
aI0
aI0
aI0
aa(lp17
I0
aI0
aI0
aI0
aI0
aI0
aI0
aI0
aI0
aI0
aI0
aI0
aI0
aI0
aI0
aI0
aI0
aaa(lp18
(lp19
F-0.16723619782609583
aF-0.6668149678605686
aF0.4860525415147732
aF-0.34026096271076145
aF-0.081425921916407
aF0.3667334363217126
aF-0.0850312607892092
aF-0.6322637233944105
aF0.8146858701016239
aF0.12471581844351819
aF0.7676551878244324
aF-1.0744866538472595
aF-0.9832744612187443
aF0.6947368016902014
aF0.5061345428708728
aF0.02360096433225181
aF-0.5836875023483554
aa(lp20
F-1.8465698054713384
aF-1.1812078291567298
aF-0.9633670624137787
aF-0.34874708209328986
aF-0.8390848178513792
aF0.5834645585273667
aF-0.03123942952321383
aF0.09087386452277564
aF-0.3404520000850315
aF-0.4761859780980083
aF0.15659378207001587
aF0.37384339666405353
aF0.47550433015159477
aF-0.0742985031436531
aF0.17449203365268218
aF0.5307208824996358
aF-0.15587750541319298
aa(lp21
F0.9474581021471646
aF-0.15408577338313423
aF-0.40273515689340417
aF-0.6472680355661066
aF0.47398655933975564
aF-0.5911978123105963
aF-0.4624136034434625
aF0.8101115929312783
aF0.29036522639999385
aF-0.2621793441231582
aF-0.729497045259128
aF-0.4737271840390193
aF0.31818391205538804
aF0.7048365364540092
aF0.6055268579549257
aF-0.5370774102417153
aF-0.7085938125025356
aa(lp22
F-2.4340749844407004
aF-0.8407061680413792
aF-1.733777267240288
aF-0.688356547535023
aF0.3160339957057754
aF-1.2053593254719412
aF0.20583061250468884
aF0.13901791671504968
aF-0.7553830329023642
aF-1.3605732261137928
aF0.5613315364386655
aF-0.33798217593006036
aF0.40755347092262617
aF0.5015873186067642
aF-0.5981543163013725
aF-1.2168033708227237
aF-0.8947699694874625
aa(lp23
F-2.481027177388012
aF-0.17911679828909582
aF-0.23417109389389001
aF0.1596545518326816
aF-0.8168996720990191
aF-1.0075846854686903
aF-0.7529460337575533
aF-0.48865922785551175
aF0.6601304651630677
aF-0.045719223198491546
aF0.5449376832434161
aF-1.1333562973501463
aF-1.2343826837705403
aF-1.1315301721547104
aF-0.998201964947131
aF-0.3141536383832734
aF-0.8177385144461201
aa(lp24
F-2.636420725198919
aF-0.6426333350517164
aF-1.7996937951619347
aF-0.3009023225390643
aF0.4186678967873821
aF-0.6660179552165153
aF-0.9982314985675108
aF-0.2312535866900882
aF0.294335625085496
aF-0.6938013452068296
aF-0.34816470590740706
aF-0.2753117420839854
aF-1.3755758452795734
aF0.36349845706574546
aF-0.8663636144907527
aF-1.1560390393996938
aF-1.0292567192314495
aa(lp25
F-3.5636257983285966
aF-1.7708906649849216
aF-1.9086417017192467
aF-0.03750579108718705
aF-0.8648139675280792
aF-0.6904766200522042
aF-0.3053313251386085
aF-1.906224029609613
aF0.2820224723652414
aF-0.4286670328977197
aF-0.758740503041557
aF-0.19189087085193393
aF-0.6672740509668935
aF-0.2261036018087973
aF0.22196424866185133
aF0.03944451020214086
aF0.07517480935939583
aa(lp26
F-3.0138953625304796
aF-1.293181423510281
aF-1.8032092117191265
aF-0.8604782266494617
aF-0.9399942360305296
aF-0.31049577042035964
aF0.0975522263476957
aF-0.26991519425970883
aF0.059801442757713284
aF-0.2808481313091724
aF-1.04572059003094
aF-1.0831258472438088
aF-1.4093517944594942
aF-0.2836092721433993
aF-0.06689650521737041
aF-0.3774387651024192
aF0.4697926819049811
aa(lp27
F-3.462390547483575
aF-0.9775117511941877
aF-1.3724067157340902
aF-0.09505546866177042
aF-0.5082489927019328
aF-0.837459951174498
aF-0.35157037511983935
aF-1.7904973016654433
aF-0.7074992262311889
aF-0.16377639135864897
aF-0.9383585885302583
aF-0.1512748240217117
aF-0.7999478383576187
aF-0.8648476848231914
aF-0.06771473035981555
aF0.12611519867140758
aF0.3022183917722045
aa(lp28
F-2.7194742219778543
aF-1.5637009745781363
aF-1.1750607484059679
aF0.10843079534171157
aF-1.354279670248608
aF-1.0486634975524802
aF-0.9030446872979907
aF-0.8409997802757937
aF0.2390550521806642
aF0.052647123640451016
aF-0.5003254747520756
aF-0.7439302412725373
aF-0.539452421508305
aF-0.22509548140953753
aF-0.7021367192247758
aF0.2659554379774005
aF-0.7760952901653643
aa(lp29
F-1.6941287749688465
aF-1.64876019344196
aF-0.614364053870042
aF-0.2986941329909582
aF0.2436028189322995
aF-0.5608520102392797
aF-0.7042141021832905
aF-0.7958797036643818
aF-0.5561791737595104
aF-0.9325547356270689
aF0.1907705455235878
aF-0.2911235188652105
aF-0.4683411579489392
aF-0.28467696044230334
aF-0.477920536247429
aF-1.2772199879134793
aF-1.1869519163374278
aa(lp30
F-4.40224169536437
aF-1.2491420471278751
aF-1.9652252655800666
aF-1.5121072415283094
aF-0.22968611283733278
aF-1.1169117559565018
aF-0.5270430344699708
aF-0.8364372966731013
aF-0.5305661826653907
aF-0.4992307616669544
aF0.4391860828494866
aF0.19774123216376222
aF0.2549446610564664
aF0.22248941704509068
aF-0.6463570264932826
aF-0.941916184027583
aF-0.29354548242740575
aa(lp31
F-3.1768538209287467
aF-1.0435788821671748
aF-1.2328852278989597
aF-1.5071646144248685
aF-0.8675512570918787
aF-0.9763753960202762
aF-1.3754749472029262
aF0.2801447855924734
aF0.4451470384929634
aF-1.3812575192271315
aF0.48807261635613264
aF-1.065701390120296
aF-0.05977418682603869
aF-0.2537770241645681
aF-0.8624155843746482
aF-0.04721686590152196
aF0.052635953217251966
aa(lp32
F-3.27897922183763
aF-2.0226486344051007
aF0.16821774937669415
aF-0.16748070822850372
aF-0.743534985730741
aF0.5529064810526173
aF0.29279955361156884
aF-1.3822094123221793
aF-0.16303516901573828
aF-0.5331140225247154
aF0.16416403273362284
aF-1.2252927250193937
aF-1.3539962663492804
aF-1.1640914246970386
aF-1.286395132273367
aF-1.2365185854085232
aF0.5624079342867847
aa(lp33
F-2.9177670920937384
aF-1.6512323106901632
aF-1.559486395104143
aF-0.7145863385311001
aF-1.5106419540568388
aF-1.0450498959773649
aF0.24333226816969236
aF0.09834294273993381
aF-1.2265335890672506
aF-1.3858161799057138
aF0.1646333930367198
aF-0.1515545987141965
aF0.2525936027823161
aF0.2910193390536262
aF-0.2762499654882999
aF-0.44469076477620906
aF-0.4008037519878533
aa(lp34
F-2.026792830220497
aF-1.7289836059669503
aF-1.3481522057556614
aF-1.4293349339853174
aF-0.4611063354390202
aF-0.2597310696691699
aF0.13885091320941978
aF0.42307363885377597
aF-1.0322435552513387
aF-1.022342268366773
aF-0.2854202144611386
aF0.07200514170122352
aF-0.9727517848906486
aF0.23734711004267
aF-0.9258671300787531
aF0.4259672774938573
aF-1.2850248453352608
aaa.