(lp0
(lp1
(lp2
I0
aI0
aI0
aI0
aI0
aI0
aI0
aI0
aI0
aI0
aI0
aI0
aI0
aI0
aI0
aI0
aI0
aa(lp3
I0
aI0
aI0
aI0
aI0
aI0
aI0
aI0
aI0
aI0
aI0
aI0
aI0
aI0
aI0
aI0
aI0
aa(lp4
I0
aI0
aI0
aI0
aI0
aI0
aI0
aI0
aI0
aI0
aI0
aI0
aI0
aI0
aI0
aI0
aI0
aa(lp5
I0
aI0
aI0
aI0
aI0
aI0
aI0
aI0
aI0
aI0
aI0
aI0
aI0
aI0
aI0
aI0
aI0
aa(lp6
I0
aI0
aI0
aI0
aI0
aI0
aI0
aI0
aI0
aI0
aI0
aI0
aI0
aI0
aI0
aI0
aI0
aa(lp7
I0
aI0
aI0
aI0
aI0
aI0
aI0
aI0
aI0
aI0
aI0
aI0
aI0
aI0
aI0
aI0
aI0
aa(lp8
I0
aI0
aI0
aI0
aI0
aI0
aI0
aI0
aI0
aI0
aI0
aI0
aI0
aI0
aI0
aI0
aI0
aa(lp9
I0
aI0
aI0
aI0
aI0
aI0
aI0
aI0
aI0
aI0
aI0
aI0
aI0
aI0
aI0
aI0
aI0
aa(lp10
I0
aI0
aI0
aI0
aI0
aI0
aI0
aI0
aI0
aI0
aI0
aI0
aI0
aI0
aI0
aI0
aI0
aa(lp11
I0
aI0
aI0
aI0
aI0
aI0
aI0
aI0
aI0
aI0
aI0
aI0
aI0
aI0
aI0
aI0
aI0
aa(lp12
I0
aI0
aI0
aI0
aI0
aI0
aI0
aI0
aI0
aI0
aI0
aI0
aI0
aI0
aI0
aI0
aI0
aa(lp13
I0
aI0
aI0
aI0
aI0
aI0
aI0
aI0
aI0
aI0
aI0
aI0
aI0
aI0
aI0
aI0
aI0
aa(lp14
I0
aI0
aI0
aI0
aI0
aI0
aI0
aI0
aI0
aI0
aI0
aI0
aI0
aI0
aI0
aI0
aI0
aa(lp15
I0
aI0
aI0
aI0
aI0
aI0
aI0
aI0
aI0
aI0
aI0
aI0
aI0
aI0
aI0
aI0
aI0
aa(lp16
I0
aI0
aI0
aI0
aI0
aI0
aI0
aI0
aI0
aI0
aI0
aI0
aI0
aI0
aI0
aI0
aI0
aa(lp17
I0
aI0
aI0
aI0
aI0
aI0
aI0
aI0
aI0
aI0
aI0
aI0
aI0
aI0
aI0
aI0
aI0
aaa(lp18
(lp19
F-0.16677317463449273
aF-0.6652017250187513
aF0.48593910504393273
aF-0.3403970717257259
aF-0.08138074778609737
aF0.36677652871388605
aF-0.0849920242725487
aF-0.6322239941140816
aF0.8147248449964768
aF0.12475537233144239
aF0.7676932819499358
aF-1.074448437448721
aF-0.9832350127585862
aF0.6947757477249653
aF0.50617311485451
aF0.023640172070816937
aF-0.583648690406837
aa(lp20
F-1.8419991488596212
aF-1.1798800953212933
aF-0.9619125010856155
aF-0.3477194924640847
aF-0.8385702663911175
aF0.5839575960753097
aF-0.03079874006247854
aF0.09132324478341337
aF-0.3400157971968206
aF-0.47573972873637027
aF0.15701541730042437
aF0.3742670004712319
aF0.4759487241375483
aF-0.0738627928327249
aF0.1749214669637991
aF0.5311610708515183
aF-0.1554440562866566
aa(lp21
F0.8137899862534506
aF-0.2047791378936714
aF-0.4360846387474066
aF-0.6811077373510741
aF0.4590354101198272
aF-0.6055947742193853
aF-0.4751405535631023
aF0.7971426873915941
aF0.27776344212064
aF-0.2750611513066169
aF-0.7416913432123472
aF-0.4859766464772888
aF0.30535375166768114
aF0.6922484951556709
aF0.5931142175613292
aF-0.5497903914865775
aF-0.7211186975513879
aa(lp22
F-2.0213888390671406
aF-0.6857083533259806
aF-1.6311973026956395
aF-0.5816547280675635
aF0.36159026473817346
aF-1.161414093364448
aF0.24451283631482418
aF0.1784025898726075
aF-0.7170650429204913
aF-1.3214411678148006
aF0.5984598327403733
aF-0.3006924787430414
aF0.44653560399802833
aF0.5398652816949145
aF-0.5603878147757395
aF-1.178161768135482
aF-0.8566760402258906
aa(lp23
F-2.1084526378430533
aF-0.03917662608223882
aF-0.14155217796123964
aF0.2559855117269504
aF-0.7757849997072033
aF-0.9679141589257804
aF-0.7180330748484061
aF-0.4531128003153942
aF0.694714943369676
aF-0.01040059943710064
aF0.5784491798621866
aF-1.0996992277794944
aF-1.1991992621357368
aF-1.0969817925063408
aF-0.964114860103553
aF-0.27927731274383194
aF-0.783356108142425
aa(lp24
F-2.045668519450291
aF-0.4206406367683079
aF-1.6528338163857264
aF-0.14811653662882812
aF0.4838484927466923
aF-0.603132389197054
aF-0.942885068766988
aF-0.17490353511101636
aF0.34916161872723084
aF-0.6378122048639756
aF-0.2950387858089959
aF-0.2219551643749896
aF-1.3198009091726768
aF0.4182672564798343
aF-0.8123256652757497
aF-1.100750649855467
aF-0.9747508881627399
aa(lp25
F-2.952476532423718
aF-1.5412330885423304
aF-1.7567107542552687
aF0.12054433935485111
aF-0.7973765564802845
aF-0.6254144802637375
aF-0.24806742370680163
aF-1.8479213811405402
aF0.338747732676359
aF-0.3707379298386712
aF-0.7037747414636328
aF-0.13668639298395427
aF-0.6095666491403611
aF-0.16943753600113645
aF0.27787391065973294
aF0.09664834079922749
aF0.13156871091212347
aa(lp26
F-2.433600850197891
aF-1.0751185501901424
aF-1.6589491391759439
aF-0.7103918588997401
aF-0.8759705192330087
aF-0.2487259757084293
aF0.1519157669048125
aF-0.2145660255521908
aF0.11365387332458862
aF-0.2258534018162323
aF-0.9935377888377412
aF-1.0307165171124604
aF-1.3545674287190042
aF-0.2298130110759721
aF-0.013818003186144933
aF-0.3231322245725567
aF0.5233306856629365
aa(lp27
F-2.858611060927664
aF-0.7506236170884316
aF-1.2223079920073252
aF0.061092678307152246
aF-0.44162706540865826
aF-0.7731842929971626
aF-0.29499934925484783
aF-1.7329002246564347
aF-0.6514602614634557
aF-0.10654829315761385
aF-0.8840576442049233
aF-0.09673807605097703
aF-0.7429387316261323
aF-0.8088671915805653
aF-0.012481404911669923
aF0.18262688763947607
aF0.3579300445137777
aa(lp28
F-2.172768851609557
aF-1.358260320030589
aF-1.0391512912659917
aF0.24984527632107573
aF-1.2939708271827328
aF-0.9904766874560662
aF-0.8518371516117607
aF-0.7888643414841734
aF0.2897813983739007
aF0.1044488855889395
aF-0.4511710796960614
aF-0.6945625644241133
aF-0.48784870274848763
aF-0.17442201709519212
aF-0.6521390127903425
aF0.317109310884655
aF-0.7256649686701535
aa(lp29
F-1.142917812411656
aF-1.4416264165141686
aF-0.47733446265048507
aF-0.15611627902345054
aF0.30440988895944615
aF-0.5021846518382101
aF-0.6525833078565209
aF-0.7433132691117486
aF-0.5050335794112506
aF-0.8803247607461537
aF0.24033109557909788
aF-0.24134791127179286
aF-0.4163108776293825
aF-0.23358468864416668
aF-0.4275096522308017
aF-1.225643303679944
aF-1.136104813310625
aa(lp30
F-3.8028177696402086
aF-1.0238906608668843
aF-1.816209389859983
aF-1.3570832294402861
aF-0.1635461063271959
aF-1.0531008833788444
aF-0.47088146655502133
aF-0.7792571784795144
aF-0.4749327882526319
aF-0.4424169243000163
aF0.49309414680145314
aF0.25188337886856704
aF0.31154110790904066
aF0.2780647670832249
aF-0.5915233873872102
aF-0.8858135193876713
aF-0.23823700914304086
aa(lp31
F-2.59770358517442
aF-0.8259460085666752
aF-1.0889096356588852
aF-1.357373630481237
aF-0.8036541172550697
aF-0.9147276815828067
aF-1.3212189454341763
aF0.3353844472797819
aF0.4988929504263131
aF-1.326371588816439
aF0.5401522291475069
aF-1.0133957000236973
aF-0.005098200076984493
aF-0.200087169638955
aF-0.8094420568763667
aF0.006982249626335118
aF0.10606806575970965
aa(lp32
F-2.714363753963422
aF-1.8104776776283154
aF0.30857983789399246
aF-0.021441980292757477
aF-0.6812455037127589
aF0.6130036327814534
aF0.3456897277336252
aF-1.3283605684287252
aF-0.11064213186558751
aF-0.47960992145979264
aF0.2149330555314592
aF-1.1743033594988481
aF-1.300696775161796
aF-1.1117530217221185
aF-1.2347548739079421
aF-1.1836838527937854
aF0.6144951384173294
aa(lp33
F-2.3281852012712214
aF-1.429679397147048
aF-1.4129173707716782
aF-0.5621026311114614
aF-1.4455908306384686
aF-0.9822892010577597
aF0.2985686963304053
aF0.1545809785095762
aF-1.17181655312352
aF-1.3299383309045008
aF0.2176537632140364
aF-0.09830403306630175
aF0.30825767744355376
aF0.34567929547411835
aF-0.22231939389612268
aF-0.38951226043149745
aF-0.3464062365772759
aa(lp34
F-1.4528910237152808
aF-1.5133230026718651
aF-1.205481432354477
aF-1.280898817315293
aF-0.39778974263522915
aF-0.19864328072375861
aF0.19261369059782046
aF0.4778110500812663
aF-0.9789861893569515
aF-0.9679553419050901
aF-0.23381387541158344
aF0.12383548687449628
aF-0.9185728756041276
aF0.2905489325734494
aF-0.8733750674686317
aF0.4796736904546693
aF-1.23207840153681
aaa.