(lp0
(lp1
(lp2
I0
aI0
aI0
aI0
aI0
aI0
aI0
aI0
aI0
aI0
aI0
aI0
aI0
aI0
aI0
aI0
aI0
aa(lp3
I0
aI0
aI0
aI0
aI0
aI0
aI0
aI0
aI0
aI0
aI0
aI0
aI0
aI0
aI0
aI0
aI0
aa(lp4
I0
aI0
aI0
aI0
aI0
aI0
aI0
aI0
aI0
aI0
aI0
aI0
aI0
aI0
aI0
aI0
aI0
aa(lp5
I0
aI0
aI0
aI0
aI0
aI0
aI0
aI0
aI0
aI0
aI0
aI0
aI0
aI0
aI0
aI0
aI0
aa(lp6
I0
aI0
aI0
aI0
aI0
aI0
aI0
aI0
aI0
aI0
aI0
aI0
aI0
aI0
aI0
aI0
aI0
aa(lp7
I0
aI0
aI0
aI0
aI0
aI0
aI0
aI0
aI0
aI0
aI0
aI0
aI0
aI0
aI0
aI0
aI0
aa(lp8
I0
aI0
aI0
aI0
aI0
aI0
aI0
aI0
aI0
aI0
aI0
aI0
aI0
aI0
aI0
aI0
aI0
aa(lp9
I0
aI0
aI0
aI0
aI0
aI0
aI0
aI0
aI0
aI0
aI0
aI0
aI0
aI0
aI0
aI0
aI0
aa(lp10
I0
aI0
aI0
aI0
aI0
aI0
aI0
aI0
aI0
aI0
aI0
aI0
aI0
aI0
aI0
aI0
aI0
aa(lp11
I0
aI0
aI0
aI0
aI0
aI0
aI0
aI0
aI0
aI0
aI0
aI0
aI0
aI0
aI0
aI0
aI0
aa(lp12
I0
aI0
aI0
aI0
aI0
aI0
aI0
aI0
aI0
aI0
aI0
aI0
aI0
aI0
aI0
aI0
aI0
aa(lp13
I0
aI0
aI0
aI0
aI0
aI0
aI0
aI0
aI0
aI0
aI0
aI0
aI0
aI0
aI0
aI0
aI0
aa(lp14
I0
aI0
aI0
aI0
aI0
aI0
aI0
aI0
aI0
aI0
aI0
aI0
aI0
aI0
aI0
aI0
aI0
aa(lp15
I0
aI0
aI0
aI0
aI0
aI0
aI0
aI0
aI0
aI0
aI0
aI0
aI0
aI0
aI0
aI0
aI0
aa(lp16
I0
aI0
aI0
aI0
aI0
aI0
aI0
aI0
aI0
aI0
aI0
aI0
aI0
aI0
aI0
aI0
aI0
aa(lp17
I0
aI0
aI0
aI0
aI0
aI0
aI0
aI0
aI0
aI0
aI0
aI0
aI0
aI0
aI0
aI0
aI0
aaa(lp18
(lp19
F-0.16723682479203641
aF-0.6665336733101903
aF0.4860068730124145
aF-0.34031325146210434
aF-0.08142785483006042
aF0.3667321132420332
aF-0.08503255408634079
aF-0.6322650917649566
aF0.8146846148217464
aF0.12471447748138947
aF0.767654052396278
aF-1.0744878050830116
aF-0.983275786330277
aF0.6947355505712832
aF0.5061333441083904
aF0.02359967529447852
aF-0.5836887345357783
aa(lp20
F-1.8461316360496798
aF-1.1811172658521718
aF-0.9631961840922573
aF-0.3486500360284903
aF-0.839038092156455
aF0.5835091348481646
aF-0.031199472082616336
aF0.09091448444593049
aF-0.34041238802696133
aF-0.476145595832048
aF0.15663225821678836
aF0.373882027615813
aF0.4755445710388151
aF-0.0742589291190204
aF0.17453112055069106
aF0.5307608014717643
aF-0.15583810628373293
aa(lp21
F0.9370658758248278
aF-0.158084652583782
aF-0.4053468690101463
aF-0.6499392255326145
aF0.4728832288205953
aF-0.5922672181037026
aF-0.4633420969499802
aF0.809168589619947
aF0.28944431471937676
aF-0.2631171468339289
aF-0.730392922124212
aF-0.4746264810687402
aF0.3172492053675368
aF0.7039164604397994
aF0.6046175004782044
aF-0.5380050601281261
aF-0.7095100406721967
aa(lp22
F-2.359970267688974
aF-0.8128727764959509
aF-1.715369633293182
aF-0.6687365307907289
aF0.3238985446655838
aF-1.1977359185131244
aF0.21244987826600317
aF0.14574052952887212
aF-0.7488177722074572
aF-1.3538876557219426
aF0.5677184639028995
aF-0.33157088368109816
aF0.4142169912050429
aF0.5081466273186098
aF-0.5916713580627706
aF-1.2101901139399374
aF-0.8882380700446086
aa(lp23
F-2.4133803287463227
aF-0.15371467276824455
aF-0.21736379454132465
aF0.17756266435446866
aF-0.8097203296446668
aF-1.0006240865090912
aF-0.7469025995798267
aF-0.48252139070779554
aF0.666124569230006
aF-0.039615223000665924
aF0.5507688964218702
aF-1.1275028296624052
aF-1.2282988253564318
aF-1.1255415048453485
aF-0.9922830375048345
aF-0.3081156929624837
aF-0.8117748833714248
aa(lp24
F-2.5281489228881635
aF-0.6019503591638912
aF-1.7727969840174125
aF-0.27223152297371095
aF0.43015823196902697
aF-0.6548789178244001
aF-0.9885594106391662
aF-0.22143044554532998
aF0.3039287795678643
aF-0.6840323459991147
aF-0.338832197389372
aF-0.2659436231848879
aF-1.365839074735177
aF0.37308291220074136
aF-0.8568907514128569
aF-1.1463757340437035
aF-1.0197123249612474
aa(lp25
F-3.452117164339358
aF-1.7289914784692753
aF-1.880940799869869
aF-0.007977879015754226
aF-0.8529800963993164
aF-0.6790045524433135
aF-0.2953700574227107
aF-1.8961071910948124
aF0.2919024459861374
aF-0.4186059555641805
aF-0.7491289703313756
aF-0.1822426628004497
aF-0.6572461661671165
aF-0.21623258770387022
aF0.23172033338423773
aF0.049396732685756
aF0.08500456451535676
aa(lp26
F-2.907298113335569
aF-1.2531276467057244
aF-1.7767283915207712
aF-0.832250848856986
aF-0.9286816260854556
aF-0.29952902329580744
aF0.107074709864858
aF-0.2602439946166782
aF0.06924621406936218
aF-0.2712302359163921
aF-1.0365324321003573
aF-1.073902629871642
aF-1.3997656290889084
aF-0.27417306558541543
aF-0.05757016420847363
aF-0.36792492827511725
aF0.47918944740630837
aa(lp27
F-3.3520469535812145
aF-0.9360503178947818
aF-1.344995232048877
aF-0.06583605890560185
aF-0.49653877146651415
aF-0.8261077520783585
aF-0.34171319277214374
aF-1.7804861745573184
aF-0.6977224882972861
aF-0.15382044260817107
aF-0.9288474858309715
aF-0.14172742929775786
aF-0.7900247352096749
aF-0.8550798127613727
aF-0.05806058645921696
aF0.13596343032744285
aF0.3119454361179135
aa(lp28
F-2.6183237707728204
aF-1.5256937889633726
aF-1.1499330168704858
aF0.13521585892312402
aF-1.343545141353833
aF-1.0382571536863259
aF-0.8940088164274841
aF-0.8318227948707891
aF0.2480171830411547
aF0.06177352944355206
aF-0.49160684090998724
aF-0.7351783399739498
aF-0.5303561238535981
aF-0.21614147752428942
aF-0.693286965259395
aF0.2749831041280431
aF-0.7671787113533073
aa(lp29
F-1.5922416825751007
aF-1.6104762204535448
aF-0.5890533265823676
aF-0.27171400638311594
aF0.25441552891122726
aF-0.5503698760451211
aF-0.6951124207010372
aF-0.7866358796064828
aF-0.5471517694883642
aF-0.923361859653102
aF0.19955267891319936
aF-0.28230787567003185
aF-0.4591786094659886
aF-0.2756577423517206
aF-0.4690063275368009
aF-1.2681265709232576
aF-1.1779703959624408
aa(lp30
F-4.292589027802185
aF-1.2079402232250493
aF-1.9379854211710628
aF-1.4830707889487853
aF-0.21804922197644377
aF-1.105630644705072
aF-0.5172475797616884
aF-0.8264888615176227
aF-0.5208506684719618
aF-0.4893371592288057
aF0.44863762570030913
aF0.20722883971520129
aF0.2648056236377477
aF0.2321961209014498
aF-0.6367633384200262
aF-0.9321296239441497
aF-0.2838793505467529
aa(lp31
F-3.0704404157891174
aF-1.0035941832307969
aF-1.206450078072819
aF-1.4789859185655607
aF-0.8562581590239157
aF-0.9654275640883552
aF-1.3659688882623262
aF0.28979930407900983
aF0.45457551930324935
aF-1.3716562130245338
aF0.49724492650702773
aF-1.0564940810133454
aF-0.050204555901797655
aF-0.24435709333143016
aF-0.8531053295440104
aF-0.03771943873277974
aF0.06201651104004747
aa(lp32
F-3.174911561002374
aF-1.9835453297813541
aF0.19407017152875025
aF-0.13992316607935898
aF-0.7324908474290651
aF0.5636129664975499
aF0.30209604498591447
aF-1.372767735178297
aF-0.15381454506744255
aF-0.5237243842406158
aF0.17313413483938384
aF-1.2162883957105448
aF-1.3446376048513367
aF-1.1548791621880181
aF-1.2772901272862995
aF-1.2272305354629247
aF0.5715816920082741
aa(lp33
F-2.809682183391894
aF-1.6106195584624905
aF-1.5326360118975126
aF-0.6859650283925962
aF-1.499171454468442
aF-1.0339300875888484
aF0.25298765901423625
aF0.10814912596108237
aF-1.21695699536756
aF-1.3760640451284047
aF0.17394979084351025
aF-0.1422026520159785
aF0.26231356454903043
aF0.3005872484277768
aF-0.26679345547788763
aF-0.43504414133834046
aF-0.39127583430249674
aa(lp34
F-1.9212242115819522
aF-1.6893163285718091
aF-1.3219269170227725
aF-1.401379937756864
aF-0.4499028968134532
aF-0.24887015535004706
aF0.14828149924430925
aF0.43265150542287356
aF-1.0228899312570543
aF-1.0128171914867918
aF-0.2763207267729559
aF0.08113935040798749
aF-0.9632581317353387
aF0.24669225195946318
aF-0.9166307931777454
aF0.4353893003066906
aF-1.275718763748778
aaa.