(lp0
(lp1
(lp2
I0
aI0
aI0
aI0
aI0
aI0
aI0
aI0
aI0
aI0
aI0
aI0
aI0
aI0
aI0
aI0
aI0
aa(lp3
I0
aI0
aI0
aI0
aI0
aI0
aI0
aI0
aI0
aI0
aI0
aI0
aI0
aI0
aI0
aI0
aI0
aa(lp4
I0
aI0
aI0
aI0
aI0
aI0
aI0
aI0
aI0
aI0
aI0
aI0
aI0
aI0
aI0
aI0
aI0
aa(lp5
I0
aI0
aI0
aI0
aI0
aI0
aI0
aI0
aI0
aI0
aI0
aI0
aI0
aI0
aI0
aI0
aI0
aa(lp6
I0
aI0
aI0
aI0
aI0
aI0
aI0
aI0
aI0
aI0
aI0
aI0
aI0
aI0
aI0
aI0
aI0
aa(lp7
I0
aI0
aI0
aI0
aI0
aI0
aI0
aI0
aI0
aI0
aI0
aI0
aI0
aI0
aI0
aI0
aI0
aa(lp8
I0
aI0
aI0
aI0
aI0
aI0
aI0
aI0
aI0
aI0
aI0
aI0
aI0
aI0
aI0
aI0
aI0
aa(lp9
I0
aI0
aI0
aI0
aI0
aI0
aI0
aI0
aI0
aI0
aI0
aI0
aI0
aI0
aI0
aI0
aI0
aa(lp10
I0
aI0
aI0
aI0
aI0
aI0
aI0
aI0
aI0
aI0
aI0
aI0
aI0
aI0
aI0
aI0
aI0
aa(lp11
I0
aI0
aI0
aI0
aI0
aI0
aI0
aI0
aI0
aI0
aI0
aI0
aI0
aI0
aI0
aI0
aI0
aa(lp12
I0
aI0
aI0
aI0
aI0
aI0
aI0
aI0
aI0
aI0
aI0
aI0
aI0
aI0
aI0
aI0
aI0
aa(lp13
I0
aI0
aI0
aI0
aI0
aI0
aI0
aI0
aI0
aI0
aI0
aI0
aI0
aI0
aI0
aI0
aI0
aa(lp14
I0
aI0
aI0
aI0
aI0
aI0
aI0
aI0
aI0
aI0
aI0
aI0
aI0
aI0
aI0
aI0
aI0
aa(lp15
I0
aI0
aI0
aI0
aI0
aI0
aI0
aI0
aI0
aI0
aI0
aI0
aI0
aI0
aI0
aI0
aI0
aa(lp16
I0
aI0
aI0
aI0
aI0
aI0
aI0
aI0
aI0
aI0
aI0
aI0
aI0
aI0
aI0
aI0
aI0
aa(lp17
I0
aI0
aI0
aI0
aI0
aI0
aI0
aI0
aI0
aI0
aI0
aI0
aI0
aI0
aI0
aI0
aI0
aaa(lp18
(lp19
F-0.1660942479805809
aF-0.6682881002963786
aF0.4865715195199703
aF-0.3395792694069569
aF-0.08130152882813166
aF0.3668517371358256
aF-0.08493273027882463
aF-0.6321638098543508
aF0.814783674883334
aF0.12481523723487478
aF0.7677505784387886
aF-1.0743909316963443
aF-0.9831753371864372
aF0.6948345262765078
aF0.5062312365963354
aF0.0236994139615461
aF-0.5835901473985037
aa(lp20
F-1.8483085577223795
aF-1.1811946700982108
aF-0.9642175944307384
aF-0.3490429218787874
aF-0.8392579711625816
aF0.5832953762726805
aF-0.0313850091797351
aF0.0907263798156161
aF-0.3405965781006083
aF-0.47633278163266274
aF0.1564525438243587
aF0.37370169929160946
aF0.4753579328378526
aF-0.07444297034995619
aF0.17434899109696442
aF0.5305754143148905
aF-0.15602146196812094
aa(lp21
F0.9657908652548316
aF-0.14657636621946857
aF-0.3980133446692172
aF-0.6429382563482694
aF0.4758673856386836
aF-0.5893654844801834
aF-0.46084461335331034
aF0.8117022493036139
aF0.2919228388676926
aF-0.2605964373334713
aF-0.7279772731800352
aF-0.4722022180626133
aF0.31976219712907644
aF0.7063928924758847
aF0.6070670576481783
aF-0.5355096841583209
aF-0.7070432481212505
aa(lp22
F-2.8747138451828
aF-1.0062202832396645
aF-1.8431943532552792
aF-0.8061771971193342
aF0.2716979212933293
aF-1.248580278987727
aF0.16898896993689327
aF0.10170124219342179
aF-0.7919745689767771
aF-1.3977201791462965
aF0.5255749468156485
aF-0.3738536553229091
aF0.37050783558484557
aF0.46502342559489135
aF-0.6343622376624973
aF-1.2536172486945039
aF-0.9312063645752144
aa(lp23
F-2.8888011886705214
aF-0.3322499837590545
aF-0.335424603997514
aF0.05060569148847102
aF-0.8579174306258366
aF-1.047579866823491
aF-0.7870322308545915
aF-0.5231846245298962
aF0.626275515033264
aF-0.08008770266926611
aF0.511854749813909
aF-1.1665454640355724
aF-1.2686574881295656
aF-1.1653595634701268
aF-1.031702219041279
aF-0.3482141645329688
aF-0.8514500199792273
aa(lp24
F-3.301899706207568
aF-0.8926571527968473
aF-1.964967953320653
aF-0.4788879545910536
aF0.35174610369721876
aF-0.7312663632528512
aF-1.053840050502923
aF-0.2875779169064493
aF0.23910395829985967
aF-0.7498699461218198
aF-0.40213807471931895
aF-0.32945826505400416
aF-1.431491781042261
aF0.30830844652503203
aF-0.9210171808472992
aF-1.2116057534760207
aF-1.0842545960423438
aa(lp25
F-4.245492549382764
aF-2.0270713338832276
aF-2.0779858263204263
aF-0.21987343370431536
aF-0.9333877495782272
aF-0.7573353327433999
aF-0.36231344547731065
aF-1.9639397691515694
aF0.2254266279519734
aF-0.4861206681197092
aF-0.814046712110659
aF-0.24737454502587056
aF-0.7245712157664751
aF-0.2826567521687022
aF0.16596090493205312
aF-0.017494729704674035
aF0.018818579140197765
aa(lp26
F-3.670817014759403
aF-1.5399902679719304
aF-1.9663581240165315
aF-1.0361756463712688
aF-1.0060534927013507
aF-0.37490339726062133
aF0.042660821677404544
aF-0.32551306620841547
aF0.005282022208032426
aF-0.33619360099451084
aF-1.0989980678916407
aF-1.1365742293037808
aF-1.4645465849242987
aF-0.33808757808170237
aF-0.12084534090434829
aF-0.43228887602798344
aF0.41550401165454837
aa(lp27
F-4.138381980869725
aF-1.2314850762204597
aF-1.5402916823276265
aF-0.27585208667709654
aF-0.5762304785053566
aF-0.9037413155236984
aF-0.40806001691159133
aF-1.8477141648692201
aF-0.7636059596269487
aF-0.22073343634349302
aF-0.993186924047196
aF-0.20627907876347717
aF-0.8567497774981055
aF-0.920912096322475
aF-0.12323412697032289
aF0.06966806344449292
aF0.2463491840146341
aa(lp28
F-3.348184408019371
aF-1.7999108083493849
aF-1.331203233592831
aF-0.0597228211900958
aF-1.4174958081756062
aF-1.1102996728250623
aF-0.9555723063224408
aF-0.8942031950118184
aF0.18688327233381033
aF-0.0003148483930511605
aF-0.5513091911543916
aF-0.7950774496728904
aF-0.5922702562135602
aF-0.27722793090629255
aF-0.7537626724209087
aF0.21346732029139207
aF-0.8280463331183715
aa(lp29
F-2.3266882874445187
aF-1.8864162152323083
aF-0.7714625341997629
aF-0.4678770774468404
aF0.17999879137170652
aF-0.6228663013764797
aF-0.7570642062393658
aF-0.849409786225371
aF-0.6086712368609282
aF-0.9858418808996182
aF0.13947389384101902
aF-0.34258467342535714
aF-0.5214832737521629
aF-0.33712944986248594
aF-0.5298633962383437
aF-1.3300303461916372
aF-1.2392218769493069
aa(lp30
F-5.074736481763239
aF-1.5018016891953596
aF-2.1322418262915406
aF-1.6919688734679148
aF-0.29731511315169024
aF-1.182849529178095
aF-0.5832395970948486
aF-0.8933572739101168
aF-0.5863818406459941
aF-0.5558922809525643
aF0.38464213615984827
aF0.14302228609370377
aF0.19843743566715571
aF0.1667158595191943
aF-0.70158842033337
aF-0.9980704625460796
aF-0.3491248575090254
aa(lp31
F-3.832832683756556
aF-1.2900335222078432
aF-1.3957999947857913
aF-1.6826099331798121
aF-0.9335154892320844
aF-1.0406903947005086
aF-1.4302873455221725
aF0.22462694560517948
aF0.3907060844410162
aF-1.4365233234246129
aF0.43487180342675463
aF-1.1190728594102368
aF-0.11488953055403886
aF-0.3081769232667505
aF-0.9162867814152595
aF-0.10198803041067964
aF-0.0015745853598455454
aa(lp32
F-3.9228709904966164
aF-2.2645621711956494
aF0.008304859262114892
aF-0.33969393237490125
aF-0.8082810191328521
aF0.4897789665835485
aF0.2389999888791143
aF-1.4367012735548648
aF-0.21647020879349627
aF-0.5873585450146647
aF0.11194604309218495
aF-1.2776781944060376
aF-1.4080931320839087
aF-1.2174861742116194
aF-1.3392710257023792
aF-1.2902776845127215
aF0.5091990185129392
aa(lp33
F-3.5822936914064583
aF-1.9008983204066994
aF-1.7245240255660668
aF-0.8923173064606236
aF-1.5774677485579287
aF-1.1102047270412454
aF0.18780353398265884
aF0.042099466706492186
aF-1.2816859836496541
aF-1.4418042969807185
aF0.11073747589502275
aF-0.20562341956857902
aF0.19675792979978415
aF0.2359085404257437
aF-0.3308250962137213
aF-0.5001777216709022
aF-0.4557226949481092
aa(lp34
F-2.678431027591251
aF-1.973807464883482
aF-1.5099889515153073
aF-1.6036195604867503
aF-0.5266330784365102
aF-0.3236196110457922
aF0.08440225482280163
aF0.3679242602323607
aF-1.086323254612318
aF-1.0772412982699167
aF-0.33826806633938933
aF0.018987774409146403
aF-1.0275013613523263
aF0.18330819097591672
aF-0.9793808834939678
aF0.37155957700549125
aF-1.338875670604938
aaa.