(lp0
(lp1
(lp2
I0
aI0
aI0
aI0
aI0
aI0
aI0
aI0
aI0
aI0
aI0
aI0
aI0
aI0
aI0
aI0
aI0
aa(lp3
I0
aI0
aI0
aI0
aI0
aI0
aI0
aI0
aI0
aI0
aI0
aI0
aI0
aI0
aI0
aI0
aI0
aa(lp4
I0
aI0
aI0
aI0
aI0
aI0
aI0
aI0
aI0
aI0
aI0
aI0
aI0
aI0
aI0
aI0
aI0
aa(lp5
I0
aI0
aI0
aI0
aI0
aI0
aI0
aI0
aI0
aI0
aI0
aI0
aI0
aI0
aI0
aI0
aI0
aa(lp6
I0
aI0
aI0
aI0
aI0
aI0
aI0
aI0
aI0
aI0
aI0
aI0
aI0
aI0
aI0
aI0
aI0
aa(lp7
I0
aI0
aI0
aI0
aI0
aI0
aI0
aI0
aI0
aI0
aI0
aI0
aI0
aI0
aI0
aI0
aI0
aa(lp8
I0
aI0
aI0
aI0
aI0
aI0
aI0
aI0
aI0
aI0
aI0
aI0
aI0
aI0
aI0
aI0
aI0
aa(lp9
I0
aI0
aI0
aI0
aI0
aI0
aI0
aI0
aI0
aI0
aI0
aI0
aI0
aI0
aI0
aI0
aI0
aa(lp10
I0
aI0
aI0
aI0
aI0
aI0
aI0
aI0
aI0
aI0
aI0
aI0
aI0
aI0
aI0
aI0
aI0
aa(lp11
I0
aI0
aI0
aI0
aI0
aI0
aI0
aI0
aI0
aI0
aI0
aI0
aI0
aI0
aI0
aI0
aI0
aa(lp12
I0
aI0
aI0
aI0
aI0
aI0
aI0
aI0
aI0
aI0
aI0
aI0
aI0
aI0
aI0
aI0
aI0
aa(lp13
I0
aI0
aI0
aI0
aI0
aI0
aI0
aI0
aI0
aI0
aI0
aI0
aI0
aI0
aI0
aI0
aI0
aa(lp14
I0
aI0
aI0
aI0
aI0
aI0
aI0
aI0
aI0
aI0
aI0
aI0
aI0
aI0
aI0
aI0
aI0
aa(lp15
I0
aI0
aI0
aI0
aI0
aI0
aI0
aI0
aI0
aI0
aI0
aI0
aI0
aI0
aI0
aI0
aI0
aa(lp16
I0
aI0
aI0
aI0
aI0
aI0
aI0
aI0
aI0
aI0
aI0
aI0
aI0
aI0
aI0
aI0
aI0
aa(lp17
I0
aI0
aI0
aI0
aI0
aI0
aI0
aI0
aI0
aI0
aI0
aI0
aI0
aI0
aI0
aI0
aI0
aaa(lp18
(lp19
F0.5713599246855755
aF-0.6627075455433268
aF-0.6460597589034786
aF0.05367327400497746
aF0.6182039869190068
aF0.14622860771212384
aF0.9232240535987545
aF-0.4225139654815801
aF-0.8350405815792364
aF0.5570434655892283
aF-0.06930067038345601
aF-0.5930440942072989
aF-0.7357539907758797
aF0.48748399732312575
aF0.24680165415226532
aF-0.7782628418722007
aF1.0227030020356145
aa(lp20
F0.735049307800221
aF0.2191517905044007
aF-0.8704895414199247
aF-0.19404586650548092
aF0.09480424361514218
aF0.004575670990449364
aF-0.02854842641035557
aF-0.9507507585541245
aF-0.16208850174701564
aF-0.6209357866375904
aF0.19909765181756497
aF0.6942146955112437
aF-0.38958872046994497
aF0.2430081307764614
aF0.9465978564069825
aF-0.33711486021467557
aF-0.8516160246020077
aa(lp21
F-0.35453440377907347
aF0.7973829315366515
aF0.2153014542882621
aF-0.6604280450597045
aF0.11892019973187136
aF-0.9527804445685105
aF0.0900496318147995
aF-0.9933734138804955
aF0.6031460970789517
aF-0.8595279993966306
aF-0.46587367848591965
aF0.08918646519104771
aF0.6197542665184131
aF0.16288170760157597
aF-0.25902573709481763
aF0.5214227912966762
aF-0.7699663711907777
aa(lp22
F-6.03495843837049
aF-1.9945114610528392
aF-2.223233934449479
aF-2.258125200686473
aF-0.11671770778159292
aF-0.8009352550817177
aF-0.9636900196903406
aF-1.3456972865110537
aF0.014866810365097148
aF-0.03426593746900958
aF-0.6234456812364586
aF0.11623436862602127
aF-0.8093243329280482
aF-1.0818668465503276
aF0.013637471097943818
aF-0.74786315042999
aF-1.0129961585825515
aa(lp23
F-6.704889835430135
aF-1.7222200425688923
aF-0.725404432808309
aF-0.8549337370378746
aF0.23343505740503132
aF-0.01740328161881871
aF-1.0627675929851401
aF-1.6653648148216433
aF-0.7479610622012647
aF-0.21496757120295362
aF-1.4560665918974323
aF-1.1394715208813744
aF-0.3048502814834969
aF-0.5272064859993794
aF-1.4954709565142434
aF-0.8393864004180838
aF-1.2852927267400616
aa(lp24
F-11.72335479550962
aF-3.9343429000697525
aF-2.172173900909889
aF-2.675088972437961
aF-0.2108692237436419
aF-1.6578894405004556
aF-2.039480918576026
aF-0.7927385359025775
aF-0.4568943312898701
aF-0.9954826737278091
aF-0.17893186548577908
aF-0.8849400657308498
aF-0.05310998911535155
aF-1.9821431215710017
aF-1.4874892454803876
aF-1.0851716517990857
aF-1.2105073719243955
aa(lp25
F-9.941500520455982
aF-4.000771246043887
aF-1.6787031523923714
aF-2.9467437356181616
aF-1.4463364484402568
aF-0.5405897690127314
aF-1.1928130612735879
aF-1.783647973000309
aF-1.4812285913835666
aF-1.4311217703459829
aF-0.32457431571502626
aF-1.577259993721809
aF-0.03217070588014073
aF-1.0815388666386916
aF-0.7204890476348655
aF-0.3919331809344248
aF-1.2140521907357704
aa(lp26
F-9.929493997663355
aF-4.025309748594334
aF-1.7703943287793087
aF-2.2354424341835686
aF-1.2704120842958249
aF-1.2803813590193016
aF-1.6594962175805545
aF-0.003544893079958379
aF-0.44200417367302963
aF0.12713455577570945
aF-1.4608374745582582
aF-1.6627802701560377
aF-0.9833251504564487
aF-1.7748192934608398
aF-1.552767566844619
aF-0.5185603636895771
aF-1.4043225855578982
aa(lp27
F-11.267341280180688
aF-4.568600508602568
aF-2.3478942998142744
aF-2.9780230412245405
aF-1.2197391756032985
aF-2.2586853514285194
aF-0.28564640330649654
aF-0.4322974843574215
aF-0.8462960901049394
aF-1.1152235528485681
aF-0.5287723828724548
aF-1.2276803354437689
aF-0.6991256529446976
aF-0.6201588167760458
aF-0.4189551081843282
aF-0.8304125331759182
aF-1.4569171776876715
aa(lp28
F-10.829537119128226
aF-4.5648847986216055
aF-1.9745656534073213
aF-2.8418836447932776
aF-0.5005585022688959
aF-0.7269007191316429
aF-0.18987863952479275
aF-1.6019949910173203
aF0.006426347156070124
aF-1.6087146098328735
aF-0.973438661329183
aF-1.6925839366745277
aF-1.015834732074261
aF-1.4725242991451468
aF-0.863777459537942
aF-0.8697882805505288
aF-0.9613071726684111
aa(lp29
F-9.864362432276687
aF-3.015662235373797
aF-3.337916320106529
aF-2.3133082378664365
aF-0.814096598745484
aF-1.9413163912298321
aF-0.21241142358612414
aF-0.4447537560921832
aF-0.5384148760769575
aF-2.0187579303833827
aF-1.2688887998185217
aF-1.4985161332461443
aF-1.3480557465852068
aF-0.5129960691215362
aF-0.41467137481600475
aF-0.14461187416225474
aF-2.016867515749204
aa(lp30
F-10.642052648957412
aF-3.5360902373872034
aF-2.6775344706556705
aF-3.616682146826632
aF-0.5933813127547416
aF-0.6690466949264948
aF-0.16530539188617083
aF-0.6235375030997296
aF-0.8399917319657447
aF-0.7812235645892869
aF-1.0689270910374347
aF-1.3713235189923354
aF-1.8095400344192665
aF-1.1911951581290352
aF0.008895145609303736
aF-1.8162675037210763
aF-1.1316251097041152
aa(lp31
F-11.799630566019232
aF-3.481731719108036
aF-2.109618929089508
aF-3.2661529021162274
aF-1.6966948063615823
aF-1.868758046770985
aF-1.0173727605199545
aF-0.3054068268642745
aF-0.04458909370488103
aF-0.5097962555581577
aF-1.8162786299374643
aF-0.33081073058879085
aF-0.9324850342506834
aF-1.022054218387025
aF-1.4649325618571236
aF-1.3268870108347364
aF-0.633518380852938
aa(lp32
F-10.709873519486955
aF-3.2743490032558613
aF-1.7682765854385951
aF-2.06784423878252
aF-0.7122355186913296
aF-0.34617352771412135
aF-1.7215941696637724
aF-0.14710407895977623
aF-1.628618614494218
aF-0.6688809387757484
aF-1.2392064117357575
aF-1.6673566034944012
aF-1.7556975389836567
aF-1.6660404392049144
aF-0.7300700842174632
aF-0.4638225500482822
aF-1.9879155070821581
aa(lp33
F-9.588502367871813
aF-4.59182664726817
aF-1.706019252203473
aF-2.6736345115335114
aF-0.8208067353125994
aF-1.7938219415946803
aF-0.7315109693055387
aF-1.019337904093712
aF-0.614547183591445
aF-0.7591298552868171
aF-0.9471765061395926
aF-1.8249100646980365
aF-0.43251246889999956
aF-1.6340652124592594
aF-1.7310811167829065
aF-0.01194429113642259
aF-0.5660412756280698
aa(lp34
F-10.48442921047531
aF-4.815099418200438
aF-2.4136237430310676
aF-2.114712064951814
aF-1.3460408436514268
aF-1.9297282735443162
aF-1.1971748977606884
aF-0.4988108022639737
aF-0.7971970636659075
aF-1.1243399988413525
aF-0.29221771261408785
aF-0.6198295529241122
aF-0.582127083010256
aF-0.9971591084671229
aF-0.6501339363638182
aF-0.8491364746032951
aF-1.6216530922784325
aaa.