(lp0
(lp1
(lp2
I0
aI0
aI0
aI0
aI0
aI0
aI0
aI0
aI0
aI0
aI0
aI0
aI0
aI0
aI0
aI0
aI0
aa(lp3
I0
aI0
aI0
aI0
aI0
aI0
aI0
aI0
aI0
aI0
aI0
aI0
aI0
aI0
aI0
aI0
aI0
aa(lp4
I0
aI0
aI0
aI0
aI0
aI0
aI0
aI0
aI0
aI0
aI0
aI0
aI0
aI0
aI0
aI0
aI0
aa(lp5
I0
aI0
aI0
aI0
aI0
aI0
aI0
aI0
aI0
aI0
aI0
aI0
aI0
aI0
aI0
aI0
aI0
aa(lp6
I0
aI0
aI0
aI0
aI0
aI0
aI0
aI0
aI0
aI0
aI0
aI0
aI0
aI0
aI0
aI0
aI0
aa(lp7
I0
aI0
aI0
aI0
aI0
aI0
aI0
aI0
aI0
aI0
aI0
aI0
aI0
aI0
aI0
aI0
aI0
aa(lp8
I0
aI0
aI0
aI0
aI0
aI0
aI0
aI0
aI0
aI0
aI0
aI0
aI0
aI0
aI0
aI0
aI0
aa(lp9
I0
aI0
aI0
aI0
aI0
aI0
aI0
aI0
aI0
aI0
aI0
aI0
aI0
aI0
aI0
aI0
aI0
aa(lp10
I0
aI0
aI0
aI0
aI0
aI0
aI0
aI0
aI0
aI0
aI0
aI0
aI0
aI0
aI0
aI0
aI0
aa(lp11
I0
aI0
aI0
aI0
aI0
aI0
aI0
aI0
aI0
aI0
aI0
aI0
aI0
aI0
aI0
aI0
aI0
aa(lp12
I0
aI0
aI0
aI0
aI0
aI0
aI0
aI0
aI0
aI0
aI0
aI0
aI0
aI0
aI0
aI0
aI0
aa(lp13
I0
aI0
aI0
aI0
aI0
aI0
aI0
aI0
aI0
aI0
aI0
aI0
aI0
aI0
aI0
aI0
aI0
aa(lp14
I0
aI0
aI0
aI0
aI0
aI0
aI0
aI0
aI0
aI0
aI0
aI0
aI0
aI0
aI0
aI0
aI0
aa(lp15
I0
aI0
aI0
aI0
aI0
aI0
aI0
aI0
aI0
aI0
aI0
aI0
aI0
aI0
aI0
aI0
aI0
aa(lp16
I0
aI0
aI0
aI0
aI0
aI0
aI0
aI0
aI0
aI0
aI0
aI0
aI0
aI0
aI0
aI0
aI0
aa(lp17
I0
aI0
aI0
aI0
aI0
aI0
aI0
aI0
aI0
aI0
aI0
aI0
aI0
aI0
aI0
aI0
aI0
aaa(lp18
(lp19
F0.5429392703563529
aF-0.4651732135239038
aF-0.6811263953281759
aF0.0010793927130503004
aF0.6161859998588191
aF0.14437838333043124
aF0.9221196799244611
aF-0.4236178444785346
aF-0.8361430638147778
aF0.5559394045129273
aF-0.07040439722359726
aF-0.5941480253331854
aF-0.7368571353983284
aF0.4863798011415271
aF0.24569779261878974
aF-0.7793664513472665
aF1.021599212809668
aa(lp20
F0.7255109567681102
aF0.1498424102047572
aF-0.827360614022083
aF-0.2149814642827063
aF0.0941695589010704
aF0.003879641949273616
aF-0.02897003099022041
aF-0.9511716979466321
aF-0.16250764147169244
aF-0.6213569619501916
aF0.19867691630124107
aF0.6937936873498657
aF-0.39000870400093574
aF0.24258677278187799
aF0.9461769481646354
aF-0.33753544375062955
aF-0.8520368413073819
aa(lp21
F-0.3463397512897114
aF0.738410601643438
aF0.19893181445792965
aF-0.5962795443774294
aF0.11933688040232451
aF-0.9524516835274073
aF0.09034308390280194
aF-0.9930800034324917
aF0.6034393868856962
aF-0.8592345710118251
aF-0.46558027905961835
aF0.08947988291659698
aF0.6200476145473566
aF0.16317514695614996
aF-0.25873232698381127
aF0.521716179156033
aF-0.7696729638742301
aa(lp22
F-4.856320420426443
aF-1.552059101351104
aF-1.9330919971085876
aF-1.9442299486684234
aF-0.037813271925987456
aF-0.7218069767727132
aF-0.9083281731942928
aF-1.290423774166459
aF0.06989997695959224
aF0.021039090189715358
aF-0.5681993186268425
aF0.17151688471652207
aF-0.7541784215229378
aF-1.0265375541186612
aF0.06890698679021832
aF-0.6926370587193476
aF-0.9577391662759673
aa(lp23
F-5.4970065079897115
aF-1.2745609450382622
aF-0.42718806274490045
aF-0.5317572168538485
aF0.3141971066494057
aF0.06380220983141209
aF-1.0060217981835717
aF-1.60870962756218
aF-0.6915524031808141
aF-0.15828005818861046
aF-1.3994392532609858
aF-1.0828070986674532
aF-0.24832597850696056
aF-0.4704940833265116
aF-1.4388198688095497
aF-0.7827798541701793
aF-1.228654485181708
aa(lp24
F-8.660343356807788
aF-2.785238090755713
aF-1.413028825112161
aF-1.8542994918733866
aF-0.006703617727636918
aF-1.4528905033618005
aF-1.8964117381473111
aF-0.6498939812987927
aF-0.31466106402211186
aF-0.852557976551169
aF-0.03615635484425761
aF-0.7420726146862576
aF0.08941004904161366
aF-1.8391567205952348
aF-1.344654855223756
aF-0.9424476929057202
aF-1.0677048294316585
aa(lp25
F-6.887751206594535
aF-2.8551416899497033
aF-0.9218535356095979
aF-2.1284359922728697
aF-1.2427922344464544
aF-0.3362148534735046
aF-1.0501816115614189
aF-1.641240438104153
aF-1.339430409663448
aF-1.2886343465354928
aF-0.18223560626587812
aF-1.4348296348522271
aF0.10991333950032259
aF-0.9389899343400803
aF-0.5780916449161452
aF-0.2496458600879187
aF-1.0716865349860498
aa(lp26
F-6.900884225785755
aF-2.889112805036309
aF-1.019775123492079
aF-1.4238707067493728
aF-1.0685543151164916
aF-1.0777000212024213
aF-1.5180526717899339
aF0.13767666648790947
aF-0.3013867208932301
aF0.2684353162151141
aF-1.3196841477192884
aF-1.5215360831809075
aF-0.8424242948700407
aF-1.6334575543093643
aF-1.411556052194551
aF-0.3774579829240362
aF-1.2631425444727988
aa(lp27
F-8.210288897770312
aF-3.4217316047357533
aF-1.59022607390266
aF-2.158830257983751
aF-1.015973363710166
aF-2.054087900327147
aF-0.14285885413281055
aF-0.2897341035319975
aF-0.70434275214086
aF-0.9725801926589964
aF-0.38627790541245205
aF-1.085094104804435
aF-0.5568861278192984
aF-0.47745387845416004
aF-0.2764018710074519
aF-0.6879695024931695
aF-1.3143957234213504
aa(lp28
F-7.778632114879761
aF-3.4203224584320604
aF-1.2184209503005405
aF-2.0243380194684546
aF-0.297205105562719
aF-0.5227174282236692
aF-0.04738160481083907
aF-1.4597216528251715
aF0.14809092599980392
aF-1.4663614606047528
aF-0.8312340814953821
aF-1.5502877967579463
aF-0.8738845681086682
aF-1.3301097013933396
aF-0.7215142436464851
aF-0.727635039230327
aF-0.8190756727998564
aa(lp29
F-6.809669613129546
aF-1.8696786657824702
aF-2.580832871625258
aF-1.4947476872024628
aF-0.6104890868041354
aF-1.73687790991574
aF-0.0697353853404825
aF-0.30230170507957943
aF-0.39657237523692823
aF-1.8762259646210455
aF-1.126505596508949
aF-1.3560412508792448
aF-1.205927289682442
aF-0.37040257497843865
aF-0.27222945925736386
aF-0.0022800760718862025
aF-1.8744573574256256
aa(lp30
F-7.601661283799675
aF-2.3954727246109297
aF-1.9239953949742645
aF-2.8019535981125734
aF-0.3907332231870858
aF-0.4655716946932065
aF-0.023305173434666964
aF-0.4817601744752618
aF-0.6988209682260925
aF-0.639366712724308
aF-0.9272182728484477
aF-1.2295234708633844
aF-1.6680847148851512
aF-1.049277079335871
aF0.15066238843216365
aF-1.674609838944065
aF-0.9898894685443653
aa(lp31
F-8.740033936666215
aF-2.3339081852250496
aF-1.3513201551470762
aF-2.446278401393902
aF-1.4927583020734168
aF-1.6639891809480023
aF-0.8744649695605888
aF-0.1627233995623918
aF0.09748375943530439
aF-0.36703277921388805
aF-1.6736641660256235
aF-0.18810443356670895
aF-0.7901257447396907
aF-0.87922911025987
aF-1.3222592870405903
aF-1.1843240385151041
aF-0.4908769166346175
aa(lp32
F-7.656543009743539
aF-2.1288765870861672
aF-1.0115307621046148
aF-1.249648711816677
aF-0.5087194013498805
aF-0.1418268277078278
aF-1.5789825118208956
aF-0.004716303789221772
aF-1.4868401050589812
aF-0.5264132861584024
aF-1.096887452133452
aF-1.5249460076265722
aF-1.61363320690268
aF-1.5235112869291727
aF-0.5876924397700063
aF-0.3215549716730355
aF-1.8455696050468997
aa(lp33
F-6.5397202672245465
aF-3.44806084328267
aF-0.950400674668968
aF-1.8566577073469694
aF-0.6175957567453441
aF-1.589781671348343
aF-0.5891142553191784
aF-0.8771647237164548
aF-0.47298231938932317
aF-0.6168769219941062
aF-0.8050720340524482
aF-1.68271409920072
aF-0.29066222744920783
aF-1.4917508753942759
aF-1.5889180513353092
aF0.1301088798185291
aF-0.4239099031083182
aa(lp34
F-7.432410758716295
aF-3.670119300471955
aF-1.6572030909170752
aF-1.2968680971170776
aF-1.1426127490165556
aF-1.7254699686708372
aF-1.0546252447310993
aF-0.3564849312079322
aF-0.6554801844134274
aF-0.9819342862636822
aF-0.1499606261783878
aF-0.4774808714342193
aF-0.44012450960138283
aF-0.8546919238925688
aF-0.5078181914747388
aF-0.7069307462886609
aF-1.479369075526174
aaa.