(lp0
(lp1
(lp2
I0
aI0
aI0
aI0
aI0
aI0
aI0
aI0
aI0
aI0
aI0
aI0
aI0
aI0
aI0
aI0
aI0
aa(lp3
I0
aI0
aI0
aI0
aI0
aI0
aI0
aI0
aI0
aI0
aI0
aI0
aI0
aI0
aI0
aI0
aI0
aa(lp4
I0
aI0
aI0
aI0
aI0
aI0
aI0
aI0
aI0
aI0
aI0
aI0
aI0
aI0
aI0
aI0
aI0
aa(lp5
I0
aI0
aI0
aI0
aI0
aI0
aI0
aI0
aI0
aI0
aI0
aI0
aI0
aI0
aI0
aI0
aI0
aa(lp6
I0
aI0
aI0
aI0
aI0
aI0
aI0
aI0
aI0
aI0
aI0
aI0
aI0
aI0
aI0
aI0
aI0
aa(lp7
I0
aI0
aI0
aI0
aI0
aI0
aI0
aI0
aI0
aI0
aI0
aI0
aI0
aI0
aI0
aI0
aI0
aa(lp8
I0
aI0
aI0
aI0
aI0
aI0
aI0
aI0
aI0
aI0
aI0
aI0
aI0
aI0
aI0
aI0
aI0
aa(lp9
I0
aI0
aI0
aI0
aI0
aI0
aI0
aI0
aI0
aI0
aI0
aI0
aI0
aI0
aI0
aI0
aI0
aa(lp10
I0
aI0
aI0
aI0
aI0
aI0
aI0
aI0
aI0
aI0
aI0
aI0
aI0
aI0
aI0
aI0
aI0
aa(lp11
I0
aI0
aI0
aI0
aI0
aI0
aI0
aI0
aI0
aI0
aI0
aI0
aI0
aI0
aI0
aI0
aI0
aa(lp12
I0
aI0
aI0
aI0
aI0
aI0
aI0
aI0
aI0
aI0
aI0
aI0
aI0
aI0
aI0
aI0
aI0
aa(lp13
I0
aI0
aI0
aI0
aI0
aI0
aI0
aI0
aI0
aI0
aI0
aI0
aI0
aI0
aI0
aI0
aI0
aa(lp14
I0
aI0
aI0
aI0
aI0
aI0
aI0
aI0
aI0
aI0
aI0
aI0
aI0
aI0
aI0
aI0
aI0
aa(lp15
I0
aI0
aI0
aI0
aI0
aI0
aI0
aI0
aI0
aI0
aI0
aI0
aI0
aI0
aI0
aI0
aI0
aa(lp16
I0
aI0
aI0
aI0
aI0
aI0
aI0
aI0
aI0
aI0
aI0
aI0
aI0
aI0
aI0
aI0
aI0
aa(lp17
I0
aI0
aI0
aI0
aI0
aI0
aI0
aI0
aI0
aI0
aI0
aI0
aI0
aI0
aI0
aI0
aI0
aaa(lp18
(lp19
F0.51978126748554
aF-0.5595692902518434
aF-0.6751835904186152
aF0.012464021818471085
aF0.6146724711842818
aF0.14276805636150106
aF0.9208768726637265
aF-0.4248578078030962
aF-0.83737531918042
aF0.5546984280990277
aF-0.07164348609021724
aF-0.5953882778460698
aF-0.7380930007772589
aF0.4851380435063698
aF0.24445795988945015
aF-0.7806048893385612
aF1.0203597847009007
aa(lp20
F0.7408690104825656
aF0.18192721481614052
aF-0.8422032904508434
aF-0.20304545571156055
aF0.09521663650132764
aF0.0049792053716321664
aF-0.028209799524423956
aF-0.9504128792918882
aF-0.161752658500994
aF-0.6205976404752912
aF0.19943530051960542
aF0.6945526516997911
aF-0.38925192277646214
aF0.24334648301023037
aF0.9469357020015844
aF-0.33677738310908145
aF-0.851278287215934
aa(lp21
F-0.3558769285074995
aF0.762285744165068
aF0.20384785377429276
aF-0.6242450369169878
aF0.1187602481500694
aF-0.9529937945662621
aF0.08993938810397442
aF-0.9934833124456921
aF0.6030371361764952
aF-0.8596380182858284
aF-0.4659834694211286
aF0.08907653238363092
aF0.6196448659708379
aF0.16277159268013536
aF-0.2591356187043568
aF0.5213130778900538
aF-0.770076202524324
aa(lp22
F-5.434896511510103
aF-1.7701183053006817
aF-2.075324478567223
aF-2.098424174040467
aF-0.07773815240629915
aF-0.7618783903449461
aF-0.9370204218674529
aF-1.3190632453121143
aF0.0414038913596906
aF-0.007619205529364194
aF-0.5968225769277578
aF0.1428720360209025
aF-0.7827417293333794
aF-1.055210347436598
aF0.04026990263602885
aF-0.7212482146185345
aF-0.9863687719320786
aa(lp23
F-6.090875887533179
aF-1.495525360814857
aF-0.573836467792618
aF-0.6906367360227116
aF0.27326224033807955
aF0.02261649216152596
aF-1.0354827357861731
aF-1.6381163179431757
aF-0.720811717782211
aF-0.18770609722558035
aF-1.4288292796107496
aF-1.1122193162865484
aF-0.2776543855400941
aF-0.49993502383925825
aF-1.4682241057986332
aF-0.8121574412429359
aF-1.2580510350808027
aa(lp24
F-10.046562945522686
aF-3.3056154142164558
aF-1.7564295504325507
aF-2.2258068696319526
aF-0.10218936961302096
aF-1.5488347302064536
aF-1.9650819539709306
aF-0.7184382769171314
aF-0.3828632471566864
aF-0.9211471855421342
aF-0.1046619683222249
aF-0.8106297404655516
aF0.021047473979015106
aF-1.90778051917837
aF-1.4131934556034322
aF-1.0109244311367989
aF-1.1362255863595172
aa(lp25
F-8.269038173685374
aF-3.3736670503251784
aF-1.2640323793768817
aF-2.4986215958270805
aF-1.3379376581685187
aF-0.4318171010714837
aF-1.118606785114009
aF-1.7095401445129854
aF-1.4073892343752084
aF-1.3569788047215035
aF-0.2504967697074777
aF-1.5031421252602895
aF0.041794699863222366
aF-1.0073688576647988
aF-0.6463856765772004
aF-0.3178782521702055
aF-1.139962787393757
aa(lp26
F-8.268811493704789
aF-3.402622253076762
aF-1.3586445738389012
aF-1.7904763596366708
aF-1.1627780062303603
aF-1.1723760652446553
aF-1.5858141946048459
aF0.07003938395275451
aF-0.3686864546354736
aF0.20075371949388204
aF-1.3872832641601252
aF-1.589186024711984
aF-0.9098822810442688
aF-1.7011732791566274
aF-1.479187715470034
aF-0.4450286093272847
aF-1.3307566023407338
aa(lp27
F-9.593334290294814
aF-3.940917169253772
aF-1.9328405051032145
aF-2.5294870596863936
aF-1.1112401101107734
aF-2.1498120591759706
aF-0.21137138185356832
aF-0.3581210026026898
aF-0.7723883307663998
aF-1.0410119011120387
aF-0.45462621190379243
aF-1.1534938043299763
aF-0.6250917270588219
aF-0.5459200964107852
aF-0.3447830880258286
aF-0.7562890005915922
aF-1.382759138301058
aa(lp28
F-9.158405461347233
aF-3.9382795273345246
aF-1.5602248482801981
aF-2.3941180240840674
aF-0.3922460974368656
aF-0.6182147373596497
aF-0.11573158611143958
aF-1.5279463059991627
aF0.08020677686872917
aF-1.5346308159720572
aF-0.8994202344059575
aF-1.6185252197669122
aF-0.941928355117725
aF-1.3984134837121267
aF-0.7897332283601065
aF-0.7957924526584071
aF-0.8872768979587536
aa(lp29
F-8.191458792935903
aF-2.3883925828081454
aF-2.9231361207623716
aF-1.8650678666899176
aF-0.7056691606577968
aF-1.8325149757411396
aF-0.13818550747809075
aF-0.3706263139472505
aF-0.46455597710111457
aF-1.944595341717926
aF-1.1947916482401728
aF-1.424378648445866
aF-1.2740707652166214
aF-0.4388064298846285
aF-0.340548391291079
aF-0.07053734586699854
aF-1.9427585036699477
aa(lp30
F-8.975844354632526
aF-2.9113309174032698
aF-2.264414500030614
aF-3.170235597408946
aF-0.485388519581591
aF-0.5606814374135242
aF-0.09137745122248088
aF-0.549707637533737
aF-0.766429321938274
aF-0.7073586948603954
aF-0.9951273933508762
aF-1.2974836514475703
aF-1.7358520526300054
aF-1.117303347396084
aF0.08272057061433898
aF-1.7424903376867091
aF-1.0578135995555067
aa(lp31
F-10.124434279914901
aF-2.8536024688194055
aF-1.6942702271903083
aF-2.8172982836487073
aF-1.5881185338198598
aF-1.7598072786811356
aF-0.9430448083711561
aF-0.23117748527070567
aF0.029371332258903295
aF-0.4355317186934585
aF-1.7420796209248919
aF-0.25657133241010993
aF-0.8583983510278682
aF-0.9477625934293408
aF-1.390707685067909
aF-1.252710656484404
aF-0.5593074948884841
aa(lp32
F-9.037607074929728
aF-2.6473182585255475
aF-1.3536543898448592
aF-1.6197745852334664
aF-0.6038494459835944
aF-0.2374136216101998
aF-1.6473966122189385
aF-0.07300495751602587
aF-1.5547879327043552
aF-0.594746684360363
aF-1.1651375691818426
aF-1.5932474432666857
aF-1.6817408234003266
aF-1.5918791446461587
aF-0.6559754196749511
aF-0.38977632205648927
aF-1.9138348085994354
aa(lp33
F-7.91836424225989
aF-3.965593887956514
aF-1.2919248109079968
aF-2.226135078660381
aF-0.712558828249741
aF-1.685200682121365
aF-0.6574081331271527
aF-0.9453333771211614
aF-0.5408107505261728
aF-0.6850902405966643
aF-0.8732022190558785
aF-1.750895511872205
aF-0.358650164365592
aF-1.5599985924560869
aF-1.6570810409708094
aF0.062007410513687355
aF-0.4920551478866207
aa(lp34
F-8.812776570990088
aF-4.188298811640591
aF-1.9991537512774644
aF-1.6668068624673236
aF-1.2376946178527333
aF-1.8210083530670766
aF-1.1230046579319908
aF-0.42473896186822463
aF-0.7233935632096885
aF-1.05023303852537
aF-0.21817613986016685
aF-0.5457476774736526
aF-0.5081975955753817
aF-0.9230251180529524
aF-0.5760665512136529
aF-0.7751175080107453
aF-1.54759966799994
aaa.