(lp0
(lp1
(lp2
I0
aI0
aI0
aI0
aI0
aI0
aI0
aI0
aI0
aI0
aI0
aI0
aI0
aI0
aI0
aI0
aI0
aa(lp3
I0
aI0
aI0
aI0
aI0
aI0
aI0
aI0
aI0
aI0
aI0
aI0
aI0
aI0
aI0
aI0
aI0
aa(lp4
I0
aI0
aI0
aI0
aI0
aI0
aI0
aI0
aI0
aI0
aI0
aI0
aI0
aI0
aI0
aI0
aI0
aa(lp5
I0
aI0
aI0
aI0
aI0
aI0
aI0
aI0
aI0
aI0
aI0
aI0
aI0
aI0
aI0
aI0
aI0
aa(lp6
I0
aI0
aI0
aI0
aI0
aI0
aI0
aI0
aI0
aI0
aI0
aI0
aI0
aI0
aI0
aI0
aI0
aa(lp7
I0
aI0
aI0
aI0
aI0
aI0
aI0
aI0
aI0
aI0
aI0
aI0
aI0
aI0
aI0
aI0
aI0
aa(lp8
I0
aI0
aI0
aI0
aI0
aI0
aI0
aI0
aI0
aI0
aI0
aI0
aI0
aI0
aI0
aI0
aI0
aa(lp9
I0
aI0
aI0
aI0
aI0
aI0
aI0
aI0
aI0
aI0
aI0
aI0
aI0
aI0
aI0
aI0
aI0
aa(lp10
I0
aI0
aI0
aI0
aI0
aI0
aI0
aI0
aI0
aI0
aI0
aI0
aI0
aI0
aI0
aI0
aI0
aa(lp11
I0
aI0
aI0
aI0
aI0
aI0
aI0
aI0
aI0
aI0
aI0
aI0
aI0
aI0
aI0
aI0
aI0
aa(lp12
I0
aI0
aI0
aI0
aI0
aI0
aI0
aI0
aI0
aI0
aI0
aI0
aI0
aI0
aI0
aI0
aI0
aa(lp13
I0
aI0
aI0
aI0
aI0
aI0
aI0
aI0
aI0
aI0
aI0
aI0
aI0
aI0
aI0
aI0
aI0
aa(lp14
I0
aI0
aI0
aI0
aI0
aI0
aI0
aI0
aI0
aI0
aI0
aI0
aI0
aI0
aI0
aI0
aI0
aa(lp15
I0
aI0
aI0
aI0
aI0
aI0
aI0
aI0
aI0
aI0
aI0
aI0
aI0
aI0
aI0
aI0
aI0
aa(lp16
I0
aI0
aI0
aI0
aI0
aI0
aI0
aI0
aI0
aI0
aI0
aI0
aI0
aI0
aI0
aI0
aI0
aa(lp17
I0
aI0
aI0
aI0
aI0
aI0
aI0
aI0
aI0
aI0
aI0
aI0
aI0
aI0
aI0
aI0
aI0
aaa(lp18
(lp19
F0.4294787989582788
aF-0.4412918234804726
aF-0.7191466454805969
aF-0.0415709194575789
aF0.6077118902869739
aF0.13590984183697816
aF0.9158692733691417
aF-0.42985244271938566
aF-0.8423349360620317
aF0.5496991729865534
aF-0.07663414917127041
aF-0.6003842312735421
aF-0.7430689987684171
aF0.4801352228795325
aF0.23946390710311125
aF-0.7855925862177776
aF1.015367566885256
aa(lp20
F0.7265686186233624
aF0.13083047842365172
aF-0.8124453238664388
aF-0.22169387237074814
aF0.09413649468836639
aF0.003859816633191974
aF-0.029009423685473913
aF-0.9512102790507395
aF-0.16254406843518018
aF-0.6213958330594487
aF0.19863858227730427
aF0.6937550218419201
aF-0.3900461329104477
aF0.2425476804902363
aF0.9461384036209186
aF-0.337573593991323
aF-0.8520752737536743
aa(lp21
F-0.29964010776398375
aF0.7317790872755593
aF0.20540089836956726
aF-0.5636506916849551
aF0.12280168392540461
aF-0.9490210201673956
aF0.09296631261985283
aF-0.9904637771074033
aF0.6060367078895337
aF-0.8566158488484938
aF-0.46296619755767204
aF0.09209682176749974
aF0.6226537788797136
aF0.1657957935901038
aF-0.2561164170836682
aF0.524328658957362
aF-0.7670580436391168
aa(lp22
F-4.246481200573899
aF-1.3235453084414242
aF-1.7824014468820537
aF-1.7814384534723682
aF0.007234886988894526
aF-0.6764795046597681
aF-0.8744730719397196
aF-1.256655452531288
aF0.10343378922273287
aF0.05483833564804131
aF-0.534457604863442
aF0.20529403725798492
aF-0.7205348926695129
aF-0.9927144709581005
aF0.10267138978099719
aF-0.6589151913451867
aF-0.923987038659693
aa(lp23
F-4.86635244555145
aF-1.0400475050318994
aF-0.2715486718500609
aF-0.3625793527771072
aF0.3607406294324066
aF0.1107380861694887
aF-0.9710039455631615
aF-1.5737816010782706
aF-0.6568671153619374
aF-0.1233200223311068
aF-1.364538768625499
aF-1.0478699315417903
aF-0.21352712484398736
aF-0.43550937316208144
aF-1.4038958989247086
aF-0.7478999129768789
aF-1.1937432212657757
aa(lp24
F-7.365973843984096
aF-2.3010558600349085
aF-1.0922637973314113
aF-1.506791062029792
aF0.0887521800335725
aF-1.356730645670681
aF-1.8246235713554726
aF-0.5782893366819073
aF-0.2435523849527123
aF-0.78088793373364
aF0.03539201843871012
aF-0.6704492949541938
aF0.16075077248981193
aF-1.767436266166298
aF-1.2730584987379179
aF-0.8709412923723809
aF-0.9961344326796443
aa(lp25
F-5.5997752902521505
aF-2.3733509206959114
aF-0.6026725326539305
aF-1.7826444025797263
aF-1.1478089503612028
aF-0.24053102494983056
aF-0.9787492421119158
aF-1.5699906722859576
aF-1.268674127494282
aF-1.2173195098296892
aF-0.11104183015704434
aF-1.3635612873852057
aF0.18090050493902907
aF-0.8676249383369641
aF-0.5068501257483494
aF-0.1784938466706444
aF-1.000470845629351
aa(lp26
F-5.630113112318399
aF-2.4137573399146013
aF-0.7048566656320954
aF-1.082699014289135
aF-0.9748424762457885
aF-0.9832970955188837
aF-1.4475776588175464
aF0.20797154683223956
aF-0.2315786475366832
aF0.3387943869312792
aF-1.2494444994760818
aF-1.4512228726247944
aF-0.7723884617986748
aF-1.5630490030540387
aF-1.3412693069120794
aF-0.3072595322873717
aF-1.192881279491688
aa(lp27
F-6.92003631136505
aF-2.9390892691729125
aF-1.2704810213382367
aF-1.812427326085864
aF-0.9208218255661441
aF-1.9582345659820166
aF-0.07129979194618688
aF-0.2183579720399626
aF-0.6334609880211663
aF-0.901138873733899
aF-0.31495786390707536
aF-1.0136993583832632
aF-0.485773066996707
aF-0.40596231039097336
aF-0.20503400093571506
aF-0.6166912984741714
aF-1.243053729421938
aa(lp28
F-6.492613641715986
aF-2.9392638521397214
aF-0.8997249083512826
aF-1.679072051227599
aF-0.20236648225503584
aF-0.4271793366739417
aF0.023941837837517882
aF-1.3885805326198197
aF0.21873932232606288
aF-1.395155369710224
aF-0.7601488647873026
aF-1.4791281235160845
aF-0.8030056439570707
aF-1.2588535284409184
aF-0.6503813573933058
aF-0.6565915209099323
aF-0.7479685765852785
aa(lp29
F-5.521043761657247
aF-1.3876447945581967
aF-2.26149084586105
aF-1.1487815739163982
aF-0.5154577703519757
aF-1.6411456916830658
aF0.0017331516765791513
aF-0.23101586506065688
aF-0.32578027114378366
aF-1.8048750204442532
aF-1.055275774825565
aF-1.2847368197109632
aF-1.1349041842968075
aF-0.2990014458574724
aF-0.20095187010520268
aF0.06890796156823993
aF-1.803205611290767
aa(lp30
F-6.32285407674655
aF-1.9171114266440552
aF-1.6070859646586024
aF-2.4586240280016955
aF-0.2964275234424765
aF-0.37057049105456186
aF0.04761699236036063
aF-0.4110192953402165
aF-0.6285700142830063
aF-0.5685612319902847
aF-0.8565329796402796
aF-1.1587641440879366
aF-1.5976045424311451
aF-0.9784218010624693
aF0.2213950803901625
aF-1.6039660072541397
aF-0.91918242011924
aa(lp31
F-7.448025121978522
aF-1.850608949836551
aF-1.031139993912389
aF-2.0994038784023097
aF-1.3974769712958384
aF-1.5680050883158811
aF-0.802808175030153
aF-0.09124978803687372
aF0.16846232184773316
aF-0.29549389034726287
aF-1.6022467218448495
aF-0.1166121814382278
aF-0.7189155666848476
aF-0.8076399029482108
aF-1.250793948329486
aF-1.112948489520551
aF-0.419437489683697
aa(lp32
F-6.3688554896879905
aF-1.6471936897119672
aF-0.6924212099536625
aF-0.9039345636170986
aF-0.41375743066795473
aF-0.04616447114969417
aF-1.5075661909891065
aF0.06651745484049759
aF-1.4160997181366182
aF-0.4551144714039361
aF-1.0257096705109194
aF-1.4536936715636528
aF-1.5426619890805846
aF-1.4521623242575685
aF-0.5164669259197697
aF-0.25041894326776953
aF-1.7743699151478283
aa(lp33
F-5.255160946859675
aF-2.9675480194236017
aF-0.6320661414523439
aF-1.51178355711849
aF-0.5228649683370915
aF-1.4943522169067773
aF-0.5178720099573847
aF-0.806104591198325
aF-0.402414344413133
aF-0.5457518934752559
aF-0.7340677407685794
aF-1.6116354349738475
aF-0.21986398959801304
aF-1.420575822392229
aF-1.5178661433040106
aF0.2010715226471954
aF-0.352883755468971
aa(lp34
F-6.14562634672947
aF-3.1887742020432497
aF-1.3383172858139352
aF-0.951396455588849
aF-1.0477175207294578
aF-1.6298748510359742
aF-0.9832591796761039
aF-0.28530129862199327
aF-0.5847895729966915
aF-0.9106856437819556
aF-0.07883293082360933
aF-0.40627867461606165
aF-0.36920323127765864
aF-0.7833931691299673
aF-0.43664279780965043
aF-0.6358447744830048
aF-1.4082194874622502
aaa.