(lp0
(lp1
(lp2
I0
aI0
aI0
aI0
aI0
aI0
aI0
aI0
aI0
aI0
aI0
aI0
aI0
aI0
aI0
aI0
aI0
aa(lp3
I0
aI0
aI0
aI0
aI0
aI0
aI0
aI0
aI0
aI0
aI0
aI0
aI0
aI0
aI0
aI0
aI0
aa(lp4
I0
aI0
aI0
aI0
aI0
aI0
aI0
aI0
aI0
aI0
aI0
aI0
aI0
aI0
aI0
aI0
aI0
aa(lp5
I0
aI0
aI0
aI0
aI0
aI0
aI0
aI0
aI0
aI0
aI0
aI0
aI0
aI0
aI0
aI0
aI0
aa(lp6
I0
aI0
aI0
aI0
aI0
aI0
aI0
aI0
aI0
aI0
aI0
aI0
aI0
aI0
aI0
aI0
aI0
aa(lp7
I0
aI0
aI0
aI0
aI0
aI0
aI0
aI0
aI0
aI0
aI0
aI0
aI0
aI0
aI0
aI0
aI0
aa(lp8
I0
aI0
aI0
aI0
aI0
aI0
aI0
aI0
aI0
aI0
aI0
aI0
aI0
aI0
aI0
aI0
aI0
aa(lp9
I0
aI0
aI0
aI0
aI0
aI0
aI0
aI0
aI0
aI0
aI0
aI0
aI0
aI0
aI0
aI0
aI0
aa(lp10
I0
aI0
aI0
aI0
aI0
aI0
aI0
aI0
aI0
aI0
aI0
aI0
aI0
aI0
aI0
aI0
aI0
aa(lp11
I0
aI0
aI0
aI0
aI0
aI0
aI0
aI0
aI0
aI0
aI0
aI0
aI0
aI0
aI0
aI0
aI0
aa(lp12
I0
aI0
aI0
aI0
aI0
aI0
aI0
aI0
aI0
aI0
aI0
aI0
aI0
aI0
aI0
aI0
aI0
aa(lp13
I0
aI0
aI0
aI0
aI0
aI0
aI0
aI0
aI0
aI0
aI0
aI0
aI0
aI0
aI0
aI0
aI0
aa(lp14
I0
aI0
aI0
aI0
aI0
aI0
aI0
aI0
aI0
aI0
aI0
aI0
aI0
aI0
aI0
aI0
aI0
aa(lp15
I0
aI0
aI0
aI0
aI0
aI0
aI0
aI0
aI0
aI0
aI0
aI0
aI0
aI0
aI0
aI0
aI0
aa(lp16
I0
aI0
aI0
aI0
aI0
aI0
aI0
aI0
aI0
aI0
aI0
aI0
aI0
aI0
aI0
aI0
aI0
aa(lp17
I0
aI0
aI0
aI0
aI0
aI0
aI0
aI0
aI0
aI0
aI0
aI0
aI0
aI0
aI0
aI0
aI0
aaa(lp18
(lp19
F0.4489896456103939
aF-0.36234319808050536
aF-0.7296997018769711
aF-0.047557580624818144
aF0.6090561473458855
aF0.1372281992088388
aF0.916943147983853
aF-0.42878109521325086
aF-0.8412704395002254
aF0.5507714222774848
aF-0.07556357624697464
aF-0.5993126268694186
aF-0.7420012931622522
aF0.4812081661262457
aF0.2405351402985029
aF-0.7845225940021633
aF1.0164384426409252
aa(lp20
F0.7476511669964583
aF0.12811847605690635
aF-0.7915242459972947
aF-0.22629027790366962
aF0.09563468240240572
aF0.0054300052685741325
aF-0.027790931545378098
aF-0.9499952233209494
aF-0.1613382905039088
aF-0.6201795522503559
aF0.19985258579054926
aF0.6949704280349696
aF-0.38883601492598724
aF0.2437649049291015
aF0.9473533048725575
aF-0.3363603760326357
aF-0.8508608584313649
aa(lp21
F-0.34711310542033524
aF0.6852461867290287
aF0.19058110672683096
aF-0.5551965971395979
aF0.11898869116124496
aF-0.9529834475118556
aF0.08997230150747021
aF-0.9934460618377086
aF0.6030857310363996
aF-0.8596023052717114
aF-0.46594490532984545
aF0.08911334622960711
aF0.6196882203948406
aF0.16280611650084503
aF-0.2590981751631647
aF0.5213526190466354
aF-0.7700381502231322
aa(lp22
F-3.320604531939554
aF-0.9779629138975002
aF-1.552765509213646
aF-1.5350369985684036
aF0.0830167856223861
aF-0.5997901036997667
aF-0.8142483582931391
aF-1.1966788207555865
aF0.16274788174663843
aF0.11490318732692854
aF-0.47455671865971116
aF0.26529584040648907
aF-0.6609122362899126
aF-0.9325814771648335
aF0.1626368557819467
aF-0.5990707069008773
aF-0.8640565251134216
aa(lp23
F-3.894898015137946
aF-0.6768498766408343
aF-0.031160404218775625
aF-0.10282506385239705
aF0.44018748891244047
aF0.19130348542623601
aF-0.9077853378278178
aF-1.5108237392823565
aF-0.5946055905530253
aF-0.060269437788037734
aF-1.3016605182547822
aF-0.984885613575348
aF-0.15094130010264611
aF-0.37238716742385514
aF-1.340949772840725
aF-0.6850809427078183
aF-1.1308338312239696
aa(lp24
F-5.62248212253856
aF-1.6467503310371052
aF-0.6598170144879246
aF-1.0406743173981392
aF0.2310874747505687
aF-1.2125708869353395
aF-1.7114866427019149
aF-0.4656152405186774
aF-0.1321146012626083
aF-0.668049244976775
aF0.14792478963165642
aF-0.5577282357534238
aF0.27276438729408475
aF-1.6544704479083328
aF-1.1604052353516323
aF-0.7585137573569263
aF-0.883546382428836
aa(lp25
F-3.8698905896561726
aF-1.7241516450062406
aF-0.17360014980450456
aF-1.3201654252584767
aF-1.0065916031391533
aF-0.09750401685944061
aF-0.8665037337752052
aF-1.458204248695924
aF-1.1581140134089087
aF-1.1053698262319436
aF0.0006044125031544616
aF-1.2517282809620365
aF0.2920317925369875
aF-0.7555491546543228
aF-0.39508436628222166
aF-0.06695198838855666
aF-0.8887697713830338
aa(lp26
F-3.9363381078505095
aF-1.7781088145435706
aF-0.2847391676596362
aF-0.6298737998630866
aF-0.8365912047313893
aF-0.8432753923300973
aF-1.3376969488418513
aF0.3174031044738873
aF-0.12334688838822339
aF0.44838567289278797
aF-1.1401500907534852
aF-1.3417457397893024
aF-0.663597873383703
aF-1.4533343452058929
aF-1.2318579664199292
aF-0.19806725043904683
aF-1.083533225103566
aa(lp27
F-5.185318218385408
aF-2.2880761851248606
aF-0.8402100060336075
aF-1.3486561655728826
aF-0.7792073849219029
aF-1.8148052074956906
aF0.041262341306971886
aF-0.1062562544683927
aF-0.5225891323231301
aF-0.7888734229134089
aF-0.20299673354876716
aF-0.9015509229565261
aF-0.3743283837219349
aF-0.29357039390935474
aF-0.09295300738182835
aF-0.5048348549939713
aF-1.1310376085666927
aa(lp28
F-4.766874181047273
aF-2.291620144583483
aF-0.4716805042588674
aF-1.2177012834314533
aF-0.061489678237714694
aF-0.28449737916494344
aF0.1359158174981445
aF-1.277064496536268
aF0.32903209479140083
aF-1.2834764793855789
aF-0.6487726612775702
aF-1.3675656203700657
aF-0.6921431162163612
aF-1.1470488514835986
aF-0.538885934079474
aF-0.5453194424082146
aF-0.6365376777429598
aa(lp29
F-3.789780577730093
aF-0.7379282207774387
aF-1.8320766129364967
aF-0.6859340659383399
aF-0.3741271739122895
aF-1.4980039352315655
aF0.11406895927168569
aF-0.11913952175982861
aF-0.2151312503917158
aF-1.692835282179732
aF-0.9435397283159875
aF-1.1728138550722433
aF-1.0236835183352924
aF-0.18683550325533166
aF-0.08909620800841368
aF0.18053953743458703
aF-1.691414687877854
aa(lp30
F-4.61230340875031
aF-1.2751675596519936
aF-1.1828082407793126
aF-2.001313912681778
aF-0.15679841009729442
aF-0.22915273098118843
aF0.15859618235724404
aF-0.3004938696564004
aF-0.5192566972530831
aF-0.45787443809274075
aF-0.7461461107535985
aF-1.048192675325556
aF-1.4877266641652072
aF-0.867610368476942
aF0.33190008137740984
aF-1.4936823134884507
aF-0.808741354898619
aa(lp31
F-5.709569584756213
aF-1.1981933297964802
aF-0.599942131181685
aF-1.6346335312991376
aF-1.2555554639927824
aF-1.424264597208688
aF-0.6900011954575881
aF0.021095746465981176
aF0.2795752469737189
aF-0.18298425657574902
aF-1.49004208878745
aF-0.0042198246499298
aF-0.6072285346842272
aF-0.6950035207670946
aF-1.1384691841680334
aF-1.0008487773039545
aF-0.3071777432228427
aa(lp32
F-4.639582124161509
aF-0.9982238273681938
aF-0.263500432127282
aF-0.4416190236883231
aF-0.272590307175623
aF0.09681164840250478
aF-1.3953607283572564
aF0.17826400103987133
aF-1.30557903219674
aF-0.3432047250444485
aF-0.9141032538614361
aF-1.341900559606457
aF-1.4315703388071948
aF-1.3401265240451012
aF-0.40474103626993124
aF-0.1389168727412346
aF-1.662708687008614
aa(lp33
F-3.53250526676861
aF-2.3210615503706093
aF-0.20478648530404953
aF-1.0512372231641043
aF-0.3822414971445226
aF-1.3519269447280735
aF-0.4061000193264318
aF-0.694789695354624
aF-0.2923204466801941
aF-0.43427444519560693
aF-0.6228924183948108
aF-1.5002741581767594
aF-0.109201391465598
aF-1.30897282062232
aF-1.406571822033294
aF0.31214291293007196
aF-0.24165383910672134
aa(lp34
F-4.418266018489478
aF-2.5405222377493146
aF-0.9098709223737008
aF-0.4895923567642245
aF-0.9067075594044356
aF-1.487057973874068
aF-0.871179028995259
aF-0.17367953770719388
aF-0.47439226662117306
aF-0.7989008699742448
aF0.03264886131264966
aF-0.29461040137329114
aF-0.2582356151052641
aF-0.6714824861320443
aF-0.32504166974368737
aF-0.5244672087666523
aF-1.2966829467192424
aaa.