(lp0
(lp1
(lp2
I0
aI0
aI0
aI0
aI0
aI0
aI0
aI0
aI0
aI0
aI0
aI0
aI0
aI0
aI0
aI0
aI0
aa(lp3
I0
aI0
aI0
aI0
aI0
aI0
aI0
aI0
aI0
aI0
aI0
aI0
aI0
aI0
aI0
aI0
aI0
aa(lp4
I0
aI0
aI0
aI0
aI0
aI0
aI0
aI0
aI0
aI0
aI0
aI0
aI0
aI0
aI0
aI0
aI0
aa(lp5
I0
aI0
aI0
aI0
aI0
aI0
aI0
aI0
aI0
aI0
aI0
aI0
aI0
aI0
aI0
aI0
aI0
aa(lp6
I0
aI0
aI0
aI0
aI0
aI0
aI0
aI0
aI0
aI0
aI0
aI0
aI0
aI0
aI0
aI0
aI0
aa(lp7
I0
aI0
aI0
aI0
aI0
aI0
aI0
aI0
aI0
aI0
aI0
aI0
aI0
aI0
aI0
aI0
aI0
aa(lp8
I0
aI0
aI0
aI0
aI0
aI0
aI0
aI0
aI0
aI0
aI0
aI0
aI0
aI0
aI0
aI0
aI0
aa(lp9
I0
aI0
aI0
aI0
aI0
aI0
aI0
aI0
aI0
aI0
aI0
aI0
aI0
aI0
aI0
aI0
aI0
aa(lp10
I0
aI0
aI0
aI0
aI0
aI0
aI0
aI0
aI0
aI0
aI0
aI0
aI0
aI0
aI0
aI0
aI0
aa(lp11
I0
aI0
aI0
aI0
aI0
aI0
aI0
aI0
aI0
aI0
aI0
aI0
aI0
aI0
aI0
aI0
aI0
aa(lp12
I0
aI0
aI0
aI0
aI0
aI0
aI0
aI0
aI0
aI0
aI0
aI0
aI0
aI0
aI0
aI0
aI0
aa(lp13
I0
aI0
aI0
aI0
aI0
aI0
aI0
aI0
aI0
aI0
aI0
aI0
aI0
aI0
aI0
aI0
aI0
aa(lp14
I0
aI0
aI0
aI0
aI0
aI0
aI0
aI0
aI0
aI0
aI0
aI0
aI0
aI0
aI0
aI0
aI0
aa(lp15
I0
aI0
aI0
aI0
aI0
aI0
aI0
aI0
aI0
aI0
aI0
aI0
aI0
aI0
aI0
aI0
aI0
aa(lp16
I0
aI0
aI0
aI0
aI0
aI0
aI0
aI0
aI0
aI0
aI0
aI0
aI0
aI0
aI0
aI0
aI0
aa(lp17
I0
aI0
aI0
aI0
aI0
aI0
aI0
aI0
aI0
aI0
aI0
aI0
aI0
aI0
aI0
aI0
aI0
aaa(lp18
(lp19
F0.5381099017258962
aF-0.6348577521635635
aF-0.661171975449315
aF0.035338414366305734
aF0.6160195061623496
aF0.14410792514005116
aF0.9217773876962242
aF-0.4239588342691663
aF-0.8364805418788686
aF0.5555979540464951
aF-0.07074498607349707
aF-0.5944891465650817
aF-0.7371962564873004
aF0.48603799213093024
aF0.2453568668541714
aF-0.7797067440632515
aF1.0212584702538776
aa(lp20
F0.737909074266922
aF0.21105776182410113
aF-0.8609392166037162
aF-0.19673480222316345
aF0.09500292124401767
aF0.004750382955738558
aF-0.02839746927319644
aF-0.9506000764315371
aF-0.16193857171861942
aF-0.6207850065078468
aF0.1992482486618658
aF0.6943654056202544
aF-0.38943843740314926
aF0.24315898692934657
aF0.9467485247614447
aF-0.33696432633437046
aF-0.8514653957062254
aa(lp21
F-0.3442906982416582
aF0.7902904260988209
aF0.21419510961720695
aF-0.6456467464027523
aF0.11955490866051884
aF-0.9521646343285188
aF0.09048072370448028
aF-0.992942809918786
aF0.6035753700783386
aF-0.8590972195474431
aF-0.4654432233771919
aF0.08961711960323644
aF0.6201841653836999
aF0.1633126205949915
aF-0.25859515409712114
aF0.5218531333483579
aF-0.7695358564679149
aa(lp22
F-5.860512067542599
aF-1.9291284540762046
aF-2.1803218088806164
aF-2.211691095094552
aF-0.1056175144142768
aF-0.7898189521773469
aF-0.9562404349775888
aF-1.3382564825607242
aF0.022283640624973105
aF-0.026821999001430074
aF-0.6160075794503088
aF0.12367606834389654
aF-0.8018962418561916
aF-1.074420495884002
aF0.021077877390670786
aF-0.7404270669871261
aF-1.0055569987425972
aa(lp23
F-6.526377833227299
aF-1.6577430090807865
aF-0.68109007246572
aF-0.8070441571207828
aF0.24477509225018657
aF-0.006012174561757424
aF-1.0551495406497213
aF-1.6577557237648286
aF-0.7403764381218532
aF-0.207355281174323
aF-1.4484602585671695
aF-1.1318615158150724
aF-0.2972541649085631
aF-0.5195917343420668
aF-1.4878622713110843
aF-0.8317821270577905
aF-1.2776853135568635
aa(lp24
F-11.203800239477049
aF-3.7396416006309137
aF-2.043345106780042
aF-2.5357784432622013
aF-0.17786614754528976
aF-1.6247810220572578
aF-2.0173057153849445
aF-0.7705894286262209
aF-0.43481647280272806
aF-0.9733242505862857
aF-0.1567907886157202
aF-0.8627882963586518
aF-0.030998663663447668
aF-1.9599775299296194
aF-1.465341320134089
aF-1.0630365736877967
aF-1.1883631504924987
aa(lp25
F-9.423140552394948
aF-3.8065176088064674
aF-1.550170598229549
aF-2.807753497974829
aF-1.4134092644803005
aF-0.5075574854660929
aF-1.1706888580163854
aF-1.7615498055939294
aF-1.4592015087770647
aF-1.4090143085163624
aF-0.3024841602317256
aF-1.5551591703468137
aF-0.010110233337706425
aF-1.0594242528086515
aF-0.6983920594381441
aF-0.36984901040284307
aF-1.1919588979283113
aa(lp26
F-9.414388902590414
aF-3.832275848954849
aF-1.642668933591508
aF-2.0973248898217
aF-1.237691682307225
aF-1.2475565185973152
aF-1.6375109725582548
aF0.018414479744765403
aF-0.42011543883428604
aF0.1491031646018928
aF-1.438886063296291
aF-1.6408182580572672
aF-0.9614032355585562
aF-1.7528435775894924
aF-1.5308093658174298
aF-0.4966148997599146
aF-1.3823680566919654
aa(lp27
F-10.748555011752353
aF-4.374187118744087
aF-2.2192560295469677
aF-2.8389185044157967
aF-1.1867849087643165
aF-2.2256258984082353
aF-0.26350400023433335
aF-0.41018113857042465
aF-0.8242508876389092
aF-1.0930979049865945
aF-0.5066640556044484
aF-1.205561331501607
aF-0.6770470330542969
aF-0.5980260110256773
aF-0.3968399425777963
aF-0.8083101957868013
aF-1.4348057105126744
aa(lp28
F-10.311544494020046
aF-4.370768820204945
aF-1.8461241947703944
aF-2.7029918987339068
aF-0.46765465561507896
aF-0.6938918475094095
aF-0.16777011903661868
aF-1.5799124879100213
aF0.028437815890978123
aF-1.5866228188958336
aF-0.9513641644613012
aF-1.6704987794827721
aF-0.9937898970901534
aF-1.450425361281357
aF-0.8416961348037832
aF-0.8477197643886313
aF-0.9392295407020007
aa(lp29
F-9.345880661922772
aF-2.8213629537162954
aF-3.2093535607976187
aF-2.1742853427318694
aF-0.7811616766817562
aF-1.9082763448376798
aF-0.19028202028926716
aF-0.4226503947703527
aF-0.5163826162756077
aF-1.996645272452057
aF-1.2467934523043498
aF-1.4764101153309608
aF-1.3259900889939555
aF-0.49087625750749503
aF-0.3925691929812161
aF-0.12252251300759272
aF-1.9947690301729073
aa(lp30
F-10.1254198918677
aF-3.3424838586063887
aF-2.5494302386913317
aF-3.4781550071580183
aF-0.5605638585014993
aF-0.6361244919325316
aF-0.14325492742672802
aF-0.6015129876475499
aF-0.8180380642090137
aF-0.7591897857157279
aF-1.046910560784333
aF-1.3492963564306097
aF-1.7875530880989536
aF-1.1691542511108284
aF0.030918485785110316
aF-1.7942569384567209
aF-1.109605452591488
aa(lp31
F-11.280516148505818
aF-3.2871953580256146
aF-1.9808992827558678
aF-3.126960382353196
aF-1.6637196921935657
aF-1.8356776797642778
aF-0.995216347946631
aF-0.28327648807546807
aF-0.022529943284326653
aF-0.4876566088043447
aF-1.7941563147449087
aF-0.3086777319616866
aF-0.9103924452462144
aF-0.9999074092124883
aF-1.4428034039960573
aF-1.3047706893138307
aF-0.6113929237652329
aa(lp32
F-10.191567625426552
aF-3.080115629827507
aF-1.6397574408102575
aF-1.9288684993984326
aF-0.6793117700541862
aF-0.3131446904743175
aF-1.6994722749583078
aF-0.1250082173862955
aF-1.6065938302975356
aF-0.6467757837496095
aF-1.2171185612487037
aF-1.645258086229662
aF-1.7336393683378029
aF-1.6439281329252264
aF-0.7079754017305081
aF-0.4417406838879646
aF-1.965824519598569
aa(lp33
F-9.070784069083595
aF-4.397813470441319
aF-1.57764582235437
aF-2.534816317550269
aF-0.7879203166128138
aF-1.760830553650257
aF-0.709414160474372
aF-0.9972670988503698
aF-0.5925473750620244
aF-0.7370497671376451
aF-0.9251137028911792
aF-1.8028366067772903
aF-0.41047931181025976
aF-1.611977981172262
aF-1.7090114892879915
aF0.010112534576651261
aF-0.5439753389431897
aa(lp34
F-9.966292755288864
aF-4.620929540614882
aF-2.2851466166997216
aF-1.9757817553312451
aF-1.3131278594700013
aF-1.896710235178384
aF-1.1750602368154721
aF-0.47672216593138794
aF-0.7751794814501629
aF-1.1022420720973947
aF-0.27013708474630355
aF-0.5977382617693416
aF-0.5600761252709757
aF-0.9750540328098645
aF-0.6280464787319032
aF-0.8270618291038808
aF-1.5995693284406987
aaa.