(lp0
(lp1
(lp2
I0
aI0
aI0
aI0
aI0
aI0
aI0
aI0
aI0
aI0
aI0
aI0
aI0
aI0
aI0
aI0
aI0
aa(lp3
I0
aI0
aI0
aI0
aI0
aI0
aI0
aI0
aI0
aI0
aI0
aI0
aI0
aI0
aI0
aI0
aI0
aa(lp4
I0
aI0
aI0
aI0
aI0
aI0
aI0
aI0
aI0
aI0
aI0
aI0
aI0
aI0
aI0
aI0
aI0
aa(lp5
I0
aI0
aI0
aI0
aI0
aI0
aI0
aI0
aI0
aI0
aI0
aI0
aI0
aI0
aI0
aI0
aI0
aa(lp6
I0
aI0
aI0
aI0
aI0
aI0
aI0
aI0
aI0
aI0
aI0
aI0
aI0
aI0
aI0
aI0
aI0
aa(lp7
I0
aI0
aI0
aI0
aI0
aI0
aI0
aI0
aI0
aI0
aI0
aI0
aI0
aI0
aI0
aI0
aI0
aa(lp8
I0
aI0
aI0
aI0
aI0
aI0
aI0
aI0
aI0
aI0
aI0
aI0
aI0
aI0
aI0
aI0
aI0
aa(lp9
I0
aI0
aI0
aI0
aI0
aI0
aI0
aI0
aI0
aI0
aI0
aI0
aI0
aI0
aI0
aI0
aI0
aa(lp10
I0
aI0
aI0
aI0
aI0
aI0
aI0
aI0
aI0
aI0
aI0
aI0
aI0
aI0
aI0
aI0
aI0
aa(lp11
I0
aI0
aI0
aI0
aI0
aI0
aI0
aI0
aI0
aI0
aI0
aI0
aI0
aI0
aI0
aI0
aI0
aa(lp12
I0
aI0
aI0
aI0
aI0
aI0
aI0
aI0
aI0
aI0
aI0
aI0
aI0
aI0
aI0
aI0
aI0
aa(lp13
I0
aI0
aI0
aI0
aI0
aI0
aI0
aI0
aI0
aI0
aI0
aI0
aI0
aI0
aI0
aI0
aI0
aa(lp14
I0
aI0
aI0
aI0
aI0
aI0
aI0
aI0
aI0
aI0
aI0
aI0
aI0
aI0
aI0
aI0
aI0
aa(lp15
I0
aI0
aI0
aI0
aI0
aI0
aI0
aI0
aI0
aI0
aI0
aI0
aI0
aI0
aI0
aI0
aI0
aa(lp16
I0
aI0
aI0
aI0
aI0
aI0
aI0
aI0
aI0
aI0
aI0
aI0
aI0
aI0
aI0
aI0
aI0
aa(lp17
I0
aI0
aI0
aI0
aI0
aI0
aI0
aI0
aI0
aI0
aI0
aI0
aI0
aI0
aI0
aI0
aI0
aaa(lp18
(lp19
F3.0666164599868604
aF1.1491551482780757
aF1.5239943777267597
aF1.7728316000452315
aF-0.674460778832171
aF-0.31248245877548114
aF0.52958103897471
aF0.19720621076527148
aF-0.17871821677681923
aF0.6763170787177863
aF0.06602093496847855
aF-0.2221495231121371
aF0.9268680749610864
aF-0.672939007744652
aF0.5532851171766208
aF-0.16362417602087106
aF0.05270485281120106
aa(lp20
F2.7935383676136176
aF0.39737919867360183
aF-0.35943636436634624
aF1.0324375697671315
aF-0.7962726066187892
aF0.8914442415236651
aF-0.1857321240668876
aF-0.7178808437647408
aF-0.08231873803153054
aF0.5152440921820496
aF-0.24119093451554618
aF0.6767909469348417
aF0.4653662590183904
aF0.09878703590887425
aF-0.5921300336186285
aF-0.2662080313933453
aF1.0079326447365655
aa(lp21
F1.562407170393781
aF0.03118048125564543
aF-0.013625999827394961
aF1.5734242453802456
aF0.33868531893178105
aF1.2083409604832185
aF-0.6600355921507765
aF-0.793554488011006
aF1.1136484504588975
aF-0.36199395418672375
aF1.0856502722187256
aF-0.20472106612990454
aF0.3170259209631599
aF-0.07986024193269228
aF1.0308772018401364
aF-0.5855704907431357
aF0.8980554823359908
aa(lp22
F-0.6528328383662605
aF-0.06334887681789923
aF-0.5155093357475712
aF-0.8189457537907396
aF-0.8689968377319418
aF-0.439899854623997
aF0.16473119351054366
aF0.017873154188832348
aF-0.20705044799672398
aF0.1863911817144914
aF-0.7228797179711551
aF-0.8997264357697372
aF-0.04233056040640629
aF0.6324508944505299
aF0.29717929527312775
aF0.8394529479102523
aF-0.1873121210755827
aa(lp23
F1.7208969241540648
aF1.0128790947274857
aF-0.12802786572941785
aF-0.16977395836259832
aF-0.2411713893160516
aF0.528957534701451
aF-0.20311106173164306
aF-0.18951456573376216
aF-0.9203618619988955
aF-0.5388800292543386
aF0.07883792973101136
aF-0.41287919277451396
aF-0.7629616458163169
aF0.004481292305369114
aF-0.6934696386520239
aF-0.6717027515679501
aF-0.29454102356509976
aa(lp24
F-1.1056833699754514
aF-0.6411552050158236
aF-0.21087709097208518
aF0.5433542335347004
aF-0.6819967583832928
aF-0.541797163878594
aF-0.5059441770375663
aF0.1723153333855876
aF0.495671458174398
aF0.8971972241037537
aF0.3291876638289104
aF-0.3354695384967995
aF0.12100156996667517
aF0.8054209058083966
aF-0.22994268779499327
aF-0.8771917827109971
aF0.27934634444973167
aa(lp25
F1.366042334160511
aF0.3888210263888666
aF1.004144355432495
aF0.45893160198030597
aF0.32936519284522303
aF1.009001443977632
aF1.0376924033080586
aF-0.16030902364210048
aF0.6694497463962645
aF-0.3665629172487254
aF-0.3773278436214518
aF0.26816774866540916
aF0.8766252484469853
aF-0.9383286807063679
aF0.4621778364879622
aF0.2623315923799194
aF-0.6304333109998758
aa(lp26
F1.0686226047598077
aF0.8767633696655982
aF-0.30879846205585665
aF0.34197235273861065
aF0.032987190069900696
aF0.38468519021337605
aF-0.03563607245194908
aF0.6653458710267897
aF0.8833062492578773
aF-0.27499887301872233
aF0.45228889371638026
aF0.10510101119970411
aF0.35324247271614007
aF0.030667403954291784
aF-0.47476098330093613
aF0.9361608752661593
aF-0.5400228024151256
aa(lp27
F-0.2718798394628017
aF0.039761001827793595
aF0.6211933731312435
aF0.08398176047024095
aF-0.10061656336697378
aF-0.614797668116745
aF-0.4819050670906824
aF0.8489095017531476
aF-0.9165139922182683
aF0.8018255827503138
aF0.918643082875438
aF0.07638041602694089
aF-0.015571706054918614
aF-0.4249518527142961
aF0.8319624133503549
aF0.4159667439787165
aF-0.20519894242080225
aa(lp28
F0.4430246958512704
aF-0.6633998260736542
aF-0.03685979323384571
aF-0.4366510269537841
aF-0.3119840361282814
aF0.891277135675846
aF-0.09758063867352164
aF0.8479168608361393
aF0.8983368751646543
aF-0.7914778407048274
aF0.045174302960067456
aF0.6472959831304261
aF-0.27642839539686775
aF-0.5382786360512908
aF-0.8170514900583579
aF0.37625677499821236
aF-0.3636782272392864
aa(lp29
F1.656626538336549
aF0.3791621145653781
aF-0.3548877331186308
aF-0.5266500931297756
aF0.3473129091489567
aF0.8328306373902378
aF0.20954245849794606
aF0.8605932906320076
aF-0.45568572005204117
aF-0.21642747079935085
aF-0.7378548886514028
aF-0.8286886016709255
aF0.12695717813976407
aF0.5088206738283662
aF-0.6866424815833962
aF1.0775005681785637
aF0.17403886531268675
aa(lp30
F0.011888473481605986
aF0.7342556374662398
aF0.6662484892621826
aF-0.03371139418383425
aF-0.37020124024388906
aF0.34360582863482675
aF-0.3355736552795291
aF-0.5175269749195007
aF0.5487302209764773
aF0.12080012834297885
aF0.9183389688412037
aF0.6739443325467721
aF-0.7300382067771413
aF-0.18598591284724403
aF-0.7485361182043335
aF0.721810479613091
aF-0.031117504325236158
aa(lp31
F0.8638576287254871
aF1.0038754656889957
aF-0.5945002395495911
aF-0.4717762232412038
aF0.7271293930308964
aF-0.5645558511588109
aF-0.8646170553587414
aF0.43029199984915584
aF-0.7848895733443744
aF0.6018992959521249
aF0.9452141007180037
aF0.2949165070146979
aF0.39418350032031696
aF0.924525676299624
aF-0.8304567685232584
aF0.26608322889165875
aF0.8463809344615234
aa(lp32
F-2.0696439064388454
aF0.22844268268084203
aF-0.059278035122178975
aF0.14220062621360177
aF-1.0762275198578788
aF0.20545689007754217
aF-0.20999984333922295
aF-0.7435110838653852
aF0.3742577774978534
aF0.040534933939640055
aF-0.36430665876592555
aF-0.010546183949131633
aF-0.04345758563323464
aF-0.3929555634622705
aF0.7871680617125889
aF-1.0662505978322436
aF-0.13533552120488493
aa(lp33
F-0.6834260520301332
aF0.08621556187026051
aF-0.9687626720069905
aF-1.1244581174243442
aF-0.8251842472848749
aF0.6455486640263433
aF0.7484542107187765
aF0.1414065856871845
aF-0.4890491535513765
aF-0.28423503323676935
aF-0.43576352682249797
aF-0.5038027754410469
aF-0.043852646226660345
aF-0.8035445837137801
aF0.14225526476778108
aF-0.0027276553289312354
aF0.011885348222377634
aa(lp34
F0.9562618889784567
aF-0.6784546811649794
aF0.08214719732137882
aF0.4009306795896154
aF-0.913036059710989
aF0.9344410661936453
aF0.09667651798173442
aF-0.2695899301306637
aF0.3141047814460994
aF-0.36667758686627727
aF-0.29802686405928364
aF-0.7572655341077971
aF0.3453741902816533
aF0.08706900552601832
aF-0.8248950248437257
aF0.5731571801089134
aF0.7485887468331688
aaa(lp35
(lp36
F4.345351183217073
aF0.7218657753298593
aF1.2068866684959685
aF1.7001889268441284
aF0.6498106427939639
aF0.6383510906582719
aF-0.4940465570746039
aF0.8214756030112965
aF-0.6847112520817864
aF-0.3548977606172944
aF-0.5455421280309121
aF-0.48658188210722464
aF-0.6838056291564513
aF0.9346573450884114
aF-0.24182623288710742
aF0.6015480116647471
aF0.2065512215194623
aa(lp37
F3.874272953067084
aF0.9755310722037782
aF-0.02441672472834397
aF0.7610371237194252
aF0.4377219465138526
aF0.2825821835006283
aF-0.5406260199102126
aF-0.20580303781805445
aF0.8027992518425584
aF-0.10823789077562317
aF0.702665103803916
aF0.5605919415089291
aF0.7659296173648239
aF0.6146372550464944
aF-0.33052006717565446
aF0.6367993375951007
aF0.38121887032708324
aa(lp38
F3.7887009426497498
aF1.6613850654077678
aF1.5867629128284713
aF0.9922872957024071
aF-0.33541702496657017
aF1.1643243084629777
aF0.02738917590602911
aF0.19395668112785833
aF1.2392871177758649
aF1.0533438438869416
aF0.44363299100200787
aF0.015430467226184786
aF0.6323735124437639
aF-0.26765017122330287
aF-0.5992237521270091
aF-0.7234785458213498
aF0.5368101722135772
aa(lp39
F2.717488134492032
aF0.5544556780691776
aF-0.1165082120567072
aF1.0222002837025481
aF0.6399246667279216
aF-0.20898762137293211
aF0.9230082766839831
aF0.0708750380186667
aF-0.8773319542924083
aF-0.3443618029003728
aF-0.0990183534597577
aF-0.24328907449778484
aF0.44261386301103484
aF0.5776110957299384
aF-0.12645525378086275
aF-0.07798031615551265
aF-0.1734349280302368
aa(lp40
F1.8946484911182564
aF1.412755716607419
aF-0.08887525128287821
aF0.1968506863269881
aF-0.37310337770010293
aF0.8380702078570327
aF-0.5243488044545371
aF0.9379862392609403
aF-0.7744152120873811
aF-0.7656129355734491
aF-0.7192397055786235
aF0.8879556718149287
aF-0.7947813275849778
aF0.6938175322263632
aF0.16929181314765368
aF-0.7994019349580527
aF-0.11980806638629819
aa(lp41
F2.26074722440988
aF0.42826409011228916
aF0.23229279826893004
aF0.6931261842533297
aF1.1410557185371495
aF-0.05157740320913954
aF0.06966707884709375
aF0.43917575689814603
aF0.30183550327004954
aF0.92277207350148
aF-0.12338055053943019
aF-0.31752816551634255
aF0.9983067049935661
aF-0.5257763322571113
aF-0.8500824814252288
aF-0.866174246224282
aF-0.1695144514927907
aa(lp42
F1.61855701014883
aF0.7692729611310004
aF0.8737168040341059
aF-0.40906928872234266
aF-0.6312368760152265
aF-0.5093087762778757
aF-0.7830958458650995
aF0.42678371313289354
aF0.1860366830766401
aF0.8894292907178053
aF0.6798938177819164
aF0.08212909316932107
aF0.7680857034109668
aF0.6388568473262335
aF-0.33441019000749683
aF-0.16192852899444485
aF0.1342580559302267
aa(lp43
F0.8612526870203588
aF-0.03595717005848193
aF-0.0118552492896047
aF-0.15389766481006897
aF0.7489701823401564
aF-0.24266879447150674
aF-0.9509679951877867
aF-0.13477415095019596
aF-0.7147070200387421
aF0.055612706220204644
aF-1.009625049625704
aF-0.8851436389187775
aF0.7765801083667484
aF0.49429290259638353
aF0.526418060159711
aF0.3125291723876459
aF0.0902076409097698
aa(lp44
F0.8618879726253095
aF1.2296329284220902
aF0.26480229822665097
aF0.8415369523949029
aF0.39339984544863216
aF0.7818574790968239
aF0.4249192759108225
aF-0.8672175110582688
aF0.5442396733299295
aF0.2756941800865072
aF-0.7732524837284817
aF0.9716454303896404
aF-0.2356708932276164
aF0.4221734208655829
aF-0.22222963105161977
aF-0.4739376298906203
aF-0.7023345556881079
aa(lp45
F2.408547700267033
aF0.8548104529493311
aF1.0156355280269758
aF1.3120264581690217
aF1.1268245259986374
aF0.3947291262014087
aF1.125174643039858
aF0.40166815886006363
aF-0.03717007911780335
aF-0.26261128000603523
aF0.448330407159901
aF0.42925283124512076
aF0.13682690201276326
aF-0.1922076644581555
aF-0.21412558881707938
aF0.4927063089813014
aF-0.10065586287288102
aa(lp46
F1.6704874323029268
aF0.8220718908088573
aF-0.337413422817282
aF1.4552016126888323
aF-0.3872883483873176
aF0.3205874976067164
aF0.7989362921279427
aF0.7681601422430655
aF-0.6370274225122516
aF0.8515551601041101
aF0.6975246592096483
aF0.1393033883541542
aF0.09748777939655451
aF-0.8595765135942252
aF0.7134056541414845
aF0.2902421488057807
aF0.09056992837519105
aa(lp47
F3.466094885865829
aF1.8225697640057958
aF0.4297500836122433
aF-0.10081457280389666
aF-0.5360395975362646
aF0.12962353315930963
aF0.4603254355249144
aF-0.1681240113048901
aF0.9674816994590655
aF-0.5608549972352037
aF1.1269284745307615
aF0.10959675452032458
aF0.5474356363228421
aF0.8583707388331451
aF0.725039079055641
aF-0.4294412991375685
aF0.41809270587266717
aa(lp48
F0.434013542390477
aF0.8860794953513605
aF1.0076603186280162
aF-0.4502148529209726
aF0.4591018261859471
aF0.7133317474293984
aF-0.02694258344856203
aF0.38748190855208625
aF0.9662827985775974
aF0.08488691578183094
aF-0.04111787932015484
aF-0.21277710807360012
aF0.6846062668030108
aF-0.4073683077504323
aF0.23035362523313602
aF0.8387543988899355
aF0.61004653395772
aa(lp49
F2.4158649065654165
aF0.07676911811850821
aF1.0881568530777663
aF1.2214901583283229
aF0.5543968496783857
aF1.0545726038581267
aF-0.682521961917141
aF-0.7801918734473076
aF-0.6451767373689045
aF0.016466565471774136
aF0.27332866142346146
aF1.0466591825682015
aF0.0988214274871171
aF-0.2402360046425938
aF0.1954518738865958
aF-0.5780624682388543
aF1.0067310540765997
aa(lp50
F1.7618046017948379
aF0.71985283448363
aF1.277321593038023
aF0.5449802137025893
aF-0.6450422895849082
aF0.6588282173938992
aF-0.43621531961001897
aF0.8543421384214717
aF-0.28045452361594364
aF0.40816382187855
aF-0.6791260707706921
aF1.0013217035209578
aF-0.34285644879903054
aF-0.15114918067038763
aF-0.507885235450708
aF-0.15009297157296908
aF-0.6872659171028563
aa(lp51
F-1.542664728388074
aF-0.6351372753251537
aF0.20347263435488322
aF-1.4451064807799847
aF-0.4098176945194117
aF0.21064644916157785
aF-0.7681956948794781
aF0.1507593070965102
aF0.3568473578606332
aF0.13020487275976858
aF0.21345902822201393
aF0.10958428193893092
aF0.02269043877973309
aF-0.7718443148040223
aF-0.21042713708249594
aF-0.2980997472139543
aF-1.0211645500281843
aaa(lp52
(lp53
F6.408784390991742
aF1.862044151066662
aF2.203041113914595
aF2.0373489366288813
aF-0.25768761791362127
aF0.458538626598408
aF1.055443832994299
aF1.1767107140715474
aF0.35116347717550217
aF0.43309623703568534
aF0.8687744795408199
aF-0.41479570505173713
aF-0.3547375987897116
aF0.9489774684832682
aF0.14656622588021584
aF0.2829138704903574
aF1.090468295652773
aa(lp54
F5.123738758885244
aF0.9404368771912753
aF0.7840978534457365
aF2.647670688537788
aF0.9730993481065127
aF0.4151199368254409
aF-0.3812409617168791
aF0.5501189531504714
aF0.9760142337340454
aF-0.09136531072083019
aF0.37693468153700627
aF0.8060003176185234
aF1.2866826483251645
aF0.3895485868278873
aF0.1723113710154038
aF1.0651035281730197
aF-0.5007789379828266
aa(lp55
F4.688806994438315
aF2.2096677337241437
aF0.26070389248669434
aF0.9678741938860554
aF0.9294671293591557
aF0.8622077972826335
aF0.10241117874345863
aF1.2701755651697713
aF0.6919114116363934
aF0.36257897897225466
aF0.8963998296223643
aF0.7039753757588365
aF0.8520053270931642
aF-0.2147775149175985
aF0.5763333322457921
aF1.0310683637011024
aF-0.6615501883544135
aa(lp56
F3.4753808785427727
aF1.544984834330707
aF1.8526164663159945
aF0.6250132197763221
aF-0.4219154133609943
aF0.485059513993113
aF-0.29420909007460594
aF-0.24682319597041813
aF-0.15518743204208577
aF0.011878735958822155
aF0.9964725000727086
aF0.46652068998619345
aF-0.5731666142134119
aF0.29690100538555814
aF-0.276065722645882
aF1.3516210855135355
aF0.04871467397823337
aa(lp57
F4.316201885401041
aF0.2277512765189071
aF0.04273283983529078
aF1.5173096711762648
aF1.2777567797833025
aF0.2641097974146671
aF0.32654529515794795
aF-0.4943325078179498
aF0.5119107494593365
aF0.9149391084100693
aF1.2352085761801852
aF0.8821096364718007
aF0.6773341526376134
aF0.9055717265000583
aF0.8089803608120367
aF0.33352364457623734
aF0.8645145898829161
aa(lp58
F3.05448830368134
aF0.070285016489401
aF1.324341008287279
aF-0.2315925648701771
aF0.18539108398295356
aF-0.46722678445546667
aF0.6258895461835837
aF0.04685935029985564
aF0.9851651426817036
aF0.16794276091387086
aF-0.3432073253504578
aF0.5524210740213839
aF0.05478928857456841
aF-0.616761169442137
aF0.5627887254651793
aF-0.04354587985511475
aF-0.8261688826221291
aa(lp59
F2.001794281662762
aF-0.13149202209052774
aF0.9200083153683251
aF0.31358630613538513
aF0.2740571363988874
aF-0.43137686703393907
aF0.9013797794674021
aF0.8925913523220054
aF0.047183357955094554
aF0.4211064072295269
aF-0.811516147038889
aF-0.557057270727713
aF-0.35700957611451956
aF-0.38059702958068004
aF0.7235420975506623
aF0.9797155035720055
aF-0.43793838341597735
aa(lp60
F3.425021480318158
aF0.09294967265985783
aF0.28018196062480355
aF1.5379141808111003
aF0.6419818562777944
aF0.533002746592911
aF-0.4450047195853098
aF0.038932943814825226
aF-0.8333652191311991
aF0.5909847392271735
aF-0.6321524480183142
aF0.12071068410413771
aF0.8981165055692248
aF-0.7926266220704385
aF-0.7117932858810617
aF0.9578350087326036
aF-0.684329648612656
aa(lp61
F3.11210720760186
aF0.670183415071087
aF0.6774524310555737
aF0.9025430463493405
aF-0.4364861577678611
aF-0.40818076909054307
aF0.6648267406775309
aF1.0207202602047787
aF-0.34334384377547844
aF0.8087800422172133
aF0.045253245137006765
aF0.479545614964853
aF0.8607672524366267
aF-0.16800810844438355
aF-0.5018514716813469
aF-0.6104339388626894
aF0.4756944060007557
aa(lp62
F2.329894722827173
aF0.4320751998006054
aF0.5703478288860765
aF0.23359642941289194
aF0.6913616576340257
aF-0.02059315317997377
aF0.9400261155351901
aF0.2810534973914821
aF0.6395310161388251
aF0.25527582977884355
aF0.456738525362875
aF0.2662236008942488
aF0.3648739310012983
aF0.9155182297162321
aF-0.231764660237267
aF-0.007510366134015225
aF-0.3274557553881572
aa(lp63
F3.145771593823251
aF0.7630958775906651
aF0.9376901875232146
aF0.783175171084812
aF0.7363594532665663
aF0.35913701818498944
aF0.03327577139498512
aF-0.7336730934723313
aF-0.6990577470230027
aF-0.3937753723148499
aF0.48549326143126814
aF0.4846901129884473
aF0.8987643813822979
aF-0.7022857575929512
aF0.4428795677176278
aF0.125625243438769
aF-0.16409097156803779
aa(lp64
F2.9175296192746956
aF1.627605433630172
aF0.6761270996378863
aF1.9418445667854236
aF0.3022663509803569
aF0.22753313358465452
aF-0.39235859606035556
aF-0.4669312239687166
aF-0.3917674709985236
aF0.9987659241141366
aF0.7828065076730316
aF0.28990505172817466
aF1.1882311556070357
aF-0.3000555578716016
aF0.21813686191760825
aF0.6609377792686824
aF-0.5569472497791097
aa(lp65
F2.3829243741194124
aF1.3930347409907429
aF-0.1453645071018751
aF1.2947168328199723
aF-0.31304051644836484
aF-0.6251440274364604
aF-0.7211412878586413
aF0.413588553012121
aF0.1589135961660886
aF0.31944980197487804
aF0.0467903312527284
aF0.20505297383266924
aF0.6325922910053949
aF0.861009020213103
aF-0.2643521678945883
aF-0.2442372171643467
aF-0.8998241061822698
aa(lp66
F2.9926001417317485
aF0.46065400312787774
aF0.9140729515796994
aF1.6187959252618456
aF-0.603700544284102
aF1.0984647618987247
aF0.5819560946888482
aF-0.7776752772002925
aF-0.04640302798008711
aF-0.4004209805915744
aF0.13801327951968734
aF0.013373788383785746
aF-0.33848630336191876
aF0.6113945808768452
aF0.03968085961348919
aF-0.812004263212108
aF0.38141683096623274
aa(lp67
F5.311505888601135
aF0.7618279718599921
aF1.618313331774647
aF1.1953868426734773
aF0.5853322567394117
aF1.1054561665748637
aF1.2312193269407965
aF0.5269474309593124
aF-0.2618662513441864
aF-0.1304430294404413
aF0.1560166961850295
aF0.71934196749538
aF0.9722036528545348
aF-0.48405825506247285
aF1.282169916783213
aF-0.3294266692769623
aF-0.33473515987021635
aa(lp68
F-0.07715900497075975
aF0.6107370012838659
aF0.6373323521059938
aF0.8676282394959285
aF0.7399890540664908
aF0.5737941212920218
aF0.3908317735581912
aF-1.049524209819802
aF-0.373060595232207
aF0.8829038967708295
aF-0.7556554936226945
aF0.1581586826538675
aF0.8275092744114101
aF-0.5906069395227173
aF0.673843059764267
aF-0.12911162427535236
aF-0.9005173991870745
aaa(lp69
(lp70
F0.9309718295311847
aF-0.22205608452818645
aF0.8505400943698014
aF-0.11716469221693619
aF-1.0479926192468572
aF0.8958656036343938
aF-0.5552045423166794
aF-0.9222324432779503
aF0.7034275548957809
aF-0.2547978129177316
aF0.2122089723836208
aF-0.32768975419250584
aF-0.6409844536977142
aF0.785849652424911
aF-0.9687905125244216
aF0.6697223011024269
aF0.09790085884344897
aa(lp71
F-0.21459954739774237
aF0.4985595785137693
aF0.497460714619567
aF0.35955985077791064
aF-1.016033160330598
aF-0.9299886813542166
aF0.582394707185813
aF0.051360012846314904
aF-0.20548766213797195
aF-0.0843091657617434
aF-1.03815114216913
aF0.2131720670603377
aF-0.9210460083143157
aF-0.5748281530263136
aF0.6609493344466282
aF0.6720541455769441
aF0.24481883405581187
aa(lp72
F-0.7264511749907803
aF0.5185239546750084
aF0.42577354306304804
aF-0.6013087473069111
aF-0.14516928106988666
aF-0.02020514107419627
aF-0.4032763221042298
aF0.8184516996296071
aF0.40644268296986774
aF0.37063661285894534
aF0.39593306007040024
aF0.09068709252158914
aF-0.6908939511186287
aF-0.16439379774948532
aF-0.8945700672283734
aF-1.2116946555446388
aF0.3559287020459225
aa(lp73
F-2.1691511835440664
aF-1.4565964051206226
aF-0.09215919660724031
aF-0.9040834466130742
aF-0.8032562460035133
aF-1.4493153234264406
aF-0.488906775705167
aF0.20021632137505876
aF0.37574942803156625
aF-1.3294348949260673
aF0.515323823218165
aF0.23907505838408086
aF0.28632957379112084
aF-0.991118153576443
aF0.3477590802200561
aF-0.3679679964607282
aF0.08808982764450603
aa(lp74
F-3.603213676153219
aF-0.5420433672884548
aF-0.9515140749132158
aF-1.1880977893739835
aF-0.2462298965726457
aF-1.442388837716143
aF0.1284300277994903
aF-0.3343697901300769
aF-0.21810199721664508
aF-0.3208277292086972
aF-0.0996440595403256
aF-1.1409671639606578
aF-0.33213046386404277
aF0.5870062334096513
aF-0.23778916537814437
aF-0.006143136632420587
aF0.11896196755890967
aa(lp75
F-5.966795057383264
aF-2.52696919716157
aF-2.6944151882871252
aF-1.4322669676065394
aF-0.4386668329309302
aF-1.877449453781907
aF-0.018459201674623057
aF0.14616040598473423
aF-0.4196271882981213
aF-0.740779760782403
aF-0.4894650083066108
aF-0.17220364971744812
aF-0.6126079706292605
aF0.3817265543133924
aF-0.3267537377489788
aF-0.6658483224848608
aF0.10761848597053775
aa(lp76
F-5.621672398522483
aF-1.4871541539646307
aF-2.000964250938108
aF-1.8306745540910723
aF0.1213610917352735
aF-0.733193499783575
aF-0.4149162554695061
aF-0.9948795298490792
aF-0.7423042926675402
aF-1.3346955358024606
aF-1.2836640878028351
aF-0.37340971072230444
aF0.17052585317723712
aF-0.8212108633989751
aF0.1084467685647332
aF-1.1794702291978827
aF-0.39767920624382314
aa(lp77
F-6.010998279610408
aF-2.6792433238356486
aF-2.5354252567376694
aF-2.410075126355623
aF0.07274070132349855
aF-0.7820766269167116
aF-0.26679209992654895
aF0.3961920204447151
aF-0.49777581120856396
aF-1.1648836927881203
aF-0.7971403556968617
aF0.28209675788271454
aF-0.23169044451978224
aF-0.6870923113880285
aF-0.0808306838897765
aF-0.7338005561059555
aF0.10982801201249918
aa(lp78
F-5.026134967927326
aF-1.5086380446942034
aF-0.7867312191855529
aF-1.0775335211209385
aF-0.8142180604786003
aF-0.9202709190752916
aF-1.3293865023269107
aF0.24726375340868814
aF-0.49237200873105985
aF-0.2175085511613217
aF-1.2978918151718613
aF-0.6797446198491077
aF-0.6794307659374522
aF-1.1855623672120603
aF-0.4418398999017421
aF-1.2425035281799621
aF-0.9782121940012544
aa(lp79
F-4.540253964869549
aF-2.5421969655450134
aF-1.836632680118855
aF-2.3470790849021346
aF-0.8698198976996697
aF-1.2825406733239149
aF0.40621493018881866
aF0.5257818658253859
aF0.3099181916441326
aF-1.1657787774386397
aF-0.09947353562283374
aF0.29339322156782127
aF-0.9484687790938027
aF-1.3276226278597054
aF-0.013990143415791067
aF-1.3751490607579209
aF0.5467295948986022
aa(lp80
F-5.135392004845998
aF-1.5672505796986578
aF-1.279454543992773
aF-1.2248416497059036
aF-1.3828993946241057
aF-1.2500822737098116
aF-1.7486890562205162
aF-1.047498330320001
aF-0.03944671096502513
aF-0.8056104616901945
aF0.19269920981177113
aF-1.3567309979730904
aF-1.3464658856834586
aF0.4155031875541324
aF0.27081693257406736
aF-1.0052343438578246
aF-0.11456341226770608
aa(lp81
F-4.8228891048363165
aF-2.5146013123538795
aF-2.3412866512032946
aF-2.5875954039846567
aF-0.7608561609569001
aF0.023499281762954398
aF-0.7952751348869356
aF-0.9235821539008978
aF-0.33540678176831495
aF0.38195984092105695
aF-0.4801227528753763
aF-0.703746682413721
aF-0.2540595908272343
aF-0.8849070156407451
aF-1.1567263872624716
aF-0.14111455084727453
aF0.26749199970813087
aa(lp82
F-5.222943986628881
aF-1.825933021398511
aF-1.7993599009806551
aF-1.1919484727867964
aF-0.03916195026644374
aF-1.002101728453474
aF0.3336679638345815
aF-1.2724024636742546
aF-0.9160362146573984
aF-0.7127796628018135
aF-0.43509659803851614
aF-1.4298543333629807
aF-1.254904636853818
aF-0.695871375014169
aF-0.0008619902933271004
aF-1.3264898105693228
aF0.3680536593334487
aa(lp83
F-5.474615070229869
aF-2.530353289817601
aF-1.7510176063121474
aF-0.5965689006108802
aF-0.07979510603136299
aF-1.5544185562229964
aF-0.4440708806241963
aF-0.4481094385177077
aF-1.3691556976883807
aF0.38323417797765164
aF-1.0707515887955406
aF-0.16186161286294232
aF-0.5557142617610309
aF-0.2590295791541129
aF-1.1545749544385295
aF-1.355658057815389
aF-0.2380371876266009
aa(lp84
F-7.127977559140563
aF-1.2451842858047757
aF-1.4143929247208211
aF-2.076815420074648
aF-1.8892226148003393
aF-0.3115922151676173
aF0.014628225346737984
aF-0.023912625150429113
aF-0.1536118071492515
aF0.08261541295084777
aF-0.4632975126737582
aF-1.1320140049309013
aF-0.8709111346964277
aF0.3765637011109966
aF-0.9405274982123877
aF-1.4957704115450408
aF-1.0148527781144556
aa(lp85
F-5.128432957870621
aF-2.2153693325911354
aF-1.920838827103074
aF-1.5032633488426008
aF-0.935245912070746
aF0.11574410616957595
aF-0.1708898071708889
aF-0.9827347716780455
aF-0.20061939480886676
aF-0.7260522907135182
aF-0.7757833397821531
aF0.380604437711384
aF-1.2037700086235774
aF0.2836877787716196
aF-0.5599684953455997
aF-0.906373348634129
aF-1.3430515567702737
aaa.