(lp0
(lp1
(lp2
F0.5740365016319631
aF0.5047296572824791
aF-0.672759659327993
aF0.22194046365027087
aF-0.5674781242846185
aF-0.8596364757170019
aF0.10186074801092615
aF0.8373992750460144
aF-0.29127805299294396
aF0.47549695128217806
aF0.21748802886992613
aF-0.6757597368485078
aF-0.19178385963956313
aF0.1311726150894077
aF0.5725452181222479
aF-0.2870400372200437
aF-0.9811022241665588
aa(lp3
F-0.8196111229383387
aF0.7652389975142824
aF-0.06221785552037096
aF0.17329990760108327
aF0.7668396333485084
aF0.7133189087453666
aF-0.5607134167291079
aF-0.16600885665153786
aF-0.8569608524461914
aF0.8302190344825602
aF0.30658645393616135
aF-0.16280412750117845
aF-0.23898981403171304
aF0.8776436433675603
aF-0.010565137440415207
aF-0.6807089867072325
aF0.5423373589569631
aa(lp4
F-0.639826774671199
aF-0.9107117331251908
aF-0.3235907224644894
aF0.26086822446429525
aF0.6997118971335285
aF-0.7754231442538824
aF0.9551062775308683
aF0.0897846141531975
aF-0.2567134889937195
aF-0.8382789560774389
aF-0.5573558110204386
aF0.9854452235412174
aF0.936914297753642
aF0.49534351866809057
aF-0.5053186283933728
aF0.42207882971147415
aF-0.6881696124907861
aa(lp5
F0.12290016019775685
aF0.5898065829184871
aF-0.931139938606576
aF0.770876917173102
aF-0.5350591582116699
aF0.8289615202571268
aF-0.7743577185436878
aF-0.9522920935351686
aF0.034240716506155344
aF-0.30013379338562207
aF0.9822631603616467
aF0.09402404742712234
aF-0.6967129703254775
aF0.7414169490323799
aF-0.6820463385235533
aF-0.2439535113429403
aF-0.9592450697259172
aa(lp6
F0.9636292981526291
aF0.044216241374074094
aF0.35758836982901143
aF0.013914211151155875
aF0.02243500864166137
aF0.6594545051308693
aF0.5407639836980953
aF0.36256084840949043
aF-0.08590338688744903
aF0.21490831064038374
aF-0.14999420425580756
aF-0.7445268745017393
aF0.2849367204530815
aF-0.40184121597003175
aF-0.8741958171982434
aF0.8313030953786475
aF0.36406337405061184
aa(lp7
F-0.9574417235715345
aF0.2507330616915995
aF0.52384632586963
aF0.6097740100341704
aF-0.19303005031015585
aF-0.7640887777067698
aF-0.5340963239774896
aF0.12084467169332358
aF0.49463971222033964
aF0.35793756848341496
aF0.13060627033533723
aF0.21989695137875742
aF0.1643916098458229
aF0.018486868945359225
aF-0.7467138971788339
aF-0.30493419436439906
aF-0.20950520232118053
aa(lp8
F0.2426238084592356
aF-0.08624701671602875
aF-0.8137130963618673
aF0.8283909503007296
aF0.49612479550748123
aF-0.3877291253278683
aF-0.7251782044074915
aF-0.4197636941446703
aF0.4728729570534418
aF0.7605558904549581
aF0.9948889641877767
aF-0.17530682871272907
aF-0.8009968586746572
aF0.9580031180542767
aF0.5166961245596748
aF0.5558121421464608
aF0.5112279419010317
aa(lp9
F-0.10466455591348822
aF0.2029524383926662
aF0.9061698065061601
aF0.23621666975369826
aF-0.6398546482093952
aF0.8304156401885991
aF-0.10045169817309674
aF-0.8003771910459931
aF-0.7683824725547646
aF-0.9635287973765485
aF-0.4060201737309841
aF0.5872962052500403
aF-0.3509021857749659
aF-0.8722794658586541
aF-0.41416893584085157
aF-0.19111296640376407
aF0.7845412675165053
aa(lp10
F-0.14401917229747352
aF-0.43274181325423156
aF0.8131648440870507
aF-0.1498155279013118
aF-0.8243094819325547
aF0.360076275964762
aF-0.8914795472435952
aF0.4792425774885003
aF-0.006079155720392304
aF-0.7158839047710504
aF-0.620946353096514
aF-0.053611599188136516
aF-0.39021764459011177
aF-0.6967317443831849
aF0.8662751969668754
aF-0.7736506760418171
aF-0.42297436634972585
aa(lp11
F-0.9828637732896106
aF0.5825229347176673
aF-0.2808333702756569
aF0.37823593129511424
aF0.489812014693326
aF0.38549781869233724
aF0.9551372854003668
aF-0.0678840396787237
aF0.7120080649264493
aF-0.673184636518285
aF-0.0532802255567979
aF0.6783733982207194
aF0.8520391085139365
aF-0.45999747139100156
aF-0.12000753046401647
aF-0.26871395899395045
aF-0.08275784786925966
aa(lp12
F0.33508667952546367
aF-0.7577793967208579
aF-0.6695469357243664
aF-0.45620154031525195
aF-0.4241609729843816
aF-0.3455447429736531
aF0.47058483922510796
aF-0.6538021565149827
aF0.8477690012982568
aF-0.8210508285718865
aF-0.7799018184605815
aF-0.660274298719361
aF0.23068096285240158
aF0.5398779991529847
aF-0.81731458803522
aF-0.5664899666656416
aF-0.7966997101761417
aa(lp13
F-0.18203259812555972
aF-0.04198926151720772
aF-0.328599727558341
aF0.20696895422409223
aF-0.7509190959131744
aF-0.12059303334422
aF-0.6642009028869309
aF0.6616532083786284
aF0.6033923094770035
aF0.08727014503917152
aF-0.8454611717000997
aF0.22631761785711846
aF0.39044017874006687
aF0.529481545928328
aF0.4077418895200815
aF-0.29260324032312823
aF0.7929125058000932
aa(lp14
F0.07097723041876458
aF0.0712289796542509
aF0.9622987641883476
aF0.3748740585944521
aF-0.2761948055222243
aF-0.6851015727816432
aF-0.08987156509399741
aF0.9169005369107861
aF-0.48507728058550703
aF-0.9930222974527838
aF0.3699702797192659
aF-0.6048945097275178
aF0.163015557707743
aF0.34674493120062944
aF0.6958854656981102
aF-0.7672844697596679
aF-0.33359118193436443
aa(lp15
F0.1839377596177718
aF0.6599399637051626
aF0.7178454478798599
aF-0.14594065148936108
aF-0.38321266598201476
aF-0.8931010690400631
aF-0.9285389899118015
aF-0.37690562287825213
aF-0.6793348001193011
aF-0.3414354409814462
aF-0.6039140189940253
aF-0.5048455752543037
aF0.9140485507772926
aF0.5189432337718345
aF0.1594587448038236
aF-0.8028593635548051
aF-0.7247584804950382
aa(lp16
F0.47880888536326793
aF0.7439531037120273
aF0.3663094761216841
aF0.007273286062097206
aF-0.7100419960033235
aF0.6946614085904828
aF0.9108964325282434
aF0.5436294596981253
aF-0.8503518754357366
aF-0.16541215005464482
aF0.3475154047471194
aF-0.5744587966936128
aF-0.4327399589202252
aF-0.5930766265314524
aF-0.9062504184775537
aF-0.7174965543088934
aF0.15976482642192558
aa(lp17
F-0.5739890754818415
aF0.5784742874219142
aF0.8643121603402364
aF-0.23786545691488192
aF-0.7823322167557651
aF0.11309988680095207
aF0.47704068823614176
aF-0.058573686782374956
aF-0.8708703429185218
aF0.2865481625476527
aF-0.3936442659306223
aF-0.0458143253283243
aF-0.5126234704587
aF0.8616211948872698
aF-0.6037161760389276
aF-0.5144023507365256
aF-0.9492124852656276
aaa(lp18
(lp19
F549.3380360724186
aF1874.5867999386896
aF1504.2249075892416
aF-153.89670514717912
aF48.724175761873276
aF216.99327981658112
aF4.172507560068173
aF6.193145447485448
aF5.570884567413471
aF5.309860734983943
aF5.41030354555221
aF5.68204607925195
aF5.0636850274261125
aF5.145092265545342
aF5.905219126525761
aF5.982610506828041
aF5.802445686882576
aa(lp20
F-735.6815982743901
aF3153.2229167332675
aF2862.4512523249996
aF-759.7828050609148
aF-48.621667310426034
aF156.63219134418208
aF-5.105366026523889
aF-4.504127325206166
aF-5.351206313871063
aF-4.572255871158196
aF-4.547724684517443
aF-5.375485882176853
aF-5.849129845415215
aF-4.83555016947184
aF-5.3754972879687
aF-4.758947439148333
aF-5.065195794864703
aa(lp21
F-893.3033792415544
aF-1169.0843378010018
aF-1108.2255923216444
aF59.8394140641814
aF-69.80167179315038
aF-132.21493426837236
aF-8.07725305884906
aF-8.703907564976376
aF-7.6344700813350155
aF-8.814831572267117
aF-7.865678286381769
aF-7.37787004796204
aF-7.215540737609851
aF-7.479753586783244
aF-7.773951828678437
aF-8.820325864242276
aF-8.854791825962149
aa(lp22
F394.1603397961741
aF-93.59660750782527
aF-52.94955896699312
aF171.171781581507
aF28.847025901642695
aF11.250931973521391
aF3.1570730564953533
aF3.3861778612698084
aF2.5209811132594186
aF2.8314569572071018
aF3.4388997324844865
aF2.533213085907364
aF2.9222779652891
aF2.7305637979829167
aF3.075008013568331
aF2.570300642849798
aF2.6953192658456504
aa(lp23
F-190.2366313243521
aF-192.45463649054255
aF-148.6580267104132
aF-10.014148840155023
aF-14.186610749206924
aF-13.157214762237654
aF-2.0019602728245642
aF-2.006571319673622
aF-2.480733225021147
aF-0.7396421370048548
aF-1.1197029318143716
aF-2.3486229412990456
aF-1.2287475472390168
aF-1.4942590894050005
aF-2.288247242196481
aF-2.042808409921789
aF-1.3618903993072757
aa(lp24
F138.95055170160015
aF-30.20783919759239
aF-17.99979143479948
aF64.76474814657648
aF9.840221331806486
aF4.700100132884647
aF0.6066284929163657
aF2.0382323221778553
aF1.6307824189735176
aF1.9014196511398047
aF0.9258618044489845
aF0.5232096106536772
aF0.9495536811337322
aF1.661088999843194
aF0.20593344167355535
aF0.44539343117033225
aF1.000068870365808
aa(lp25
F-54.33391014758524
aF-162.35230652362353
aF-139.67061137532562
aF15.352942619955758
aF-4.437365539761174
aF-18.352033792235673
aF0.27247518144534855
aF-0.07291721528892796
aF-0.09135441783666795
aF-1.1381627982362972
aF0.28218799541473877
aF-1.2206586720000918
aF0.46607475630632134
aF-0.30395333428769217
aF-0.2957832560995238
aF-1.4968532744474037
aF-0.928252795907681
aa(lp26
F-60.011267987596966
aF-135.54719513052774
aF-95.43632097699043
aF7.444171019571609
aF-4.916852182408844
aF-15.050632923886285
aF-0.06895148511484822
aF-0.44513671432391294
aF-0.976767527667448
aF-1.2765406303907993
aF-0.3170175915474645
aF-0.12855404292817085
aF-0.43185357865449037
aF-1.0361165518530737
aF0.39491960099713214
aF-0.036355486287268514
aF0.27875670601490504
aa(lp27
F-70.24697610772999
aF-152.7621026794308
aF-137.50688975900718
aF20.292558454014603
aF-6.333856294943695
aF-18.163260179905937
aF-0.374819798938519
aF-0.7656917500582577
aF-0.1908562359146017
aF-0.3484980956665502
aF-1.3275141719722845
aF-1.137766156764345
aF-1.2179133226970675
aF-1.3150205643442145
aF-0.7421262047606281
aF-0.5510061706290312
aF-1.096633540420682
aa(lp28
F-44.41459633996872
aF-183.941297363872
aF-162.6726661739198
aF17.53487298499707
aF-3.6688142661608594
aF-19.53064660237352
aF-0.11295018624904897
aF0.40031368404627315
aF-1.0185169135138732
aF-0.3869221281218953
aF-0.2683888691891199
aF0.34350075955245846
aF-0.4916872396206525
aF-1.1179540158856707
aF-0.46420276524111653
aF-1.189891367848011
aF-0.9430562489903083
aa(lp29
F135.70716610828146
aF-31.553496337155956
aF-12.255390386628232
aF64.55398744027592
aF10.806529821437323
aF3.6517451173911057
aF2.0452746308421283
aF1.4200650390014569
aF1.9775159695687239
aF1.4051298486442356
aF1.0714750208769368
aF1.2731678181846133
aF1.3692089847713778
aF1.8229015323910194
aF1.5669865825979465
aF1.6751885847502617
aF1.5531649241687888
aa(lp30
F-63.27379065274033
aF-149.80416376157334
aF-119.90788159435546
aF13.276231732051265
aF-5.443498460199521
aF-16.040555566410283
aF0.08720919129736138
aF-1.3409899722609104
aF-0.5576877924534195
aF-0.3086211105695207
aF-1.5279358746750769
aF-0.19080075499455654
aF-0.6623931222117059
aF-0.03243918531433053
aF0.1151685646207986
aF-0.6961401661216836
aF-1.1353421695508084
aa(lp31
F-57.046066443412904
aF-163.60129300261914
aF-141.1730731540555
aF18.23688149489773
aF-5.82219452260522
aF-18.894576944764324
aF0.21844723574612596
aF-1.365225658410495
aF-0.3582650286170719
aF0.16333572450393272
aF-0.20348432885497236
aF0.37277022730364834
aF-0.6159506935957574
aF-1.1047302833835277
aF-1.3040009411811024
aF-0.6395166075338797
aF-0.738692808948823
aa(lp32
F-54.543924222915464
aF-145.53060625640586
aF-111.18623765072653
aF9.438810305748664
aF-4.476580692492738
aF-16.590385275796795
aF0.4355375184630665
aF-0.037805044119529105
aF0.2778499231793706
aF-0.9724520427804559
aF-1.334241295534155
aF0.10110432519050229
aF0.435770962875425
aF-0.171556260958228
aF-0.7995507144760753
aF-0.5741779280810534
aF-0.3097920724814977
aa(lp33
F-65.22970553221313
aF-124.75140475577504
aF-92.50366800754408
aF4.591251803264789
aF-4.612373950449378
aF-14.458092810999783
aF-0.36789475117198456
aF-1.1287095187304506
aF-1.3155248323712485
aF-1.599349167079445
aF-0.11729286488397248
aF-0.7322770249543308
aF0.3090109878472478
aF-1.1871434686841615
aF0.16906104864765575
aF-1.4551310121906331
aF0.23538963689692818
aa(lp34
F-43.19283720437341
aF-199.26317423081412
aF-179.53038940383294
aF20.17421813352752
aF-3.637883491644277
aF-21.725367039762133
aF0.5183341303427024
aF-0.9016737658816927
aF-0.49997358659719515
aF-0.14662711661361347
aF0.31522103088003206
aF0.29500959980369673
aF-0.7242807482274369
aF-0.7548367160265492
aF-0.6878408314444643
aF-0.2781423103010678
aF-0.9442214439946134
aaa(lp35
(lp36
F85.25765462946552
aF227.08466622841692
aF87.68598547905256
aF-129.11076968643889
aF6.396844739439777
aF7.69147057129841
aF0.28172512586282494
aF1.7750237616715605
aF1.6899314817305082
aF1.0031105781868022
aF0.9621227713388846
aF0.61086120360968
aF0.39446993506023964
aF0.8573662229812877
aF0.5629623007651458
aF0.5025299165864008
aF1.4969637819471304
aa(lp37
F-1575.954477232804
aF1713.5334825633022
aF1644.3386066032167
aF-841.1832004745097
aF-111.81943305703366
aF72.74738150127578
aF-12.507350444357193
aF-12.394719845513254
aF-11.545521237290087
aF-13.011887928929921
aF-12.779568539648986
aF-12.16413979753361
aF-12.559482724495185
aF-12.545433537106355
aF-11.824117053076154
aF-11.387784374821841
aF-12.331295163468209
aa(lp38
F514.0570141679405
aF-399.30281653097245
aF-24.47012801215315
aF672.2055531756362
aF38.11513612470126
aF29.040995540708504
aF4.562145047218557
aF4.665554730305328
aF4.904405062883658
aF5.500064100885225
aF4.029490183766002
aF5.315381822330649
aF4.850659674556612
aF4.37034081345901
aF4.149249416357144
aF5.2207327993146855
aF3.9924297406156293
aa(lp39
F27.988370562188262
aF-37.311718738917065
aF0.2170206742067284
aF52.07408548771235
aF1.3470184899557511
aF0.734114237073116
aF0.4588551178194595
aF0.7612466518796859
aF0.8994243804214991
aF0.4509090490046086
aF0.45375861262070866
aF-0.5965454559711592
aF0.5069639583786213
aF0.7536984055375374
aF0.7014442114318014
aF0.4954286415458775
aF-0.12389099258653291
aa(lp40
F11.256626053867956
aF3.047360459805152
aF9.414452666195404
aF6.37748487134718
aF0.7675359862930554
aF1.8713594869557857
aF-0.11987608740988899
aF0.37499113590483685
aF-0.07876814424097471
aF-0.08329372713893055
aF0.4170348042365739
aF-0.6174534641777812
aF0.6521746081414923
aF-0.37869346888557465
aF0.46518782988230584
aF-0.48698349112890643
aF-0.25165580807623844
aa(lp41
F6.43725351759062
aF-12.678477373724485
aF6.619726048691608
aF24.918919304693368
aF1.2061640292623024
aF2.0508774797262976
aF1.1549033063891245
aF-0.1596553856629284
aF-0.6273429626964899
aF-0.20594080685331514
aF-0.6540610014380895
aF0.4611459936783294
aF-0.6306286065493785
aF0.49081248783663667
aF0.15065567638872002
aF0.36518839560107974
aF0.3211626399727699
aa(lp42
F35.50914741349309
aF-25.17128058332171
aF-2.556196376196709
aF46.5422090964489
aF3.3723856134177135
aF1.1545316794442446
aF0.2808626928374594
aF-0.06320089522501553
aF-0.06841444035627485
aF0.2302126104836764
aF0.06883634048040377
aF-0.5447450302808887
aF-0.49293058105660925
aF1.3264504370532013
aF0.6322168049300859
aF0.5765272858567269
aF-0.47471810337752524
aa(lp43
F-6.6023055529218
aF6.0857560301719005
aF6.420113459837035
aF-7.964885515062756
aF-0.9912001760550581
aF0.0194433729716562
aF-0.790932851391987
aF-0.9535671949606545
aF0.7706727574934774
aF-0.3048408275073585
aF0.7390095385640907
aF-0.3452166652087379
aF-0.4262123303326467
aF-0.1897012835279815
aF-0.8689425624395469
aF-0.43773130652304915
aF-0.29109162328030375
aa(lp44
F-0.6510758164421622
aF-16.466072082820702
aF-6.482607071762061
aF15.057446574221093
aF-0.6179884077268887
aF-0.022826108203696745
aF0.034069585488693745
aF-0.730975626851381
aF-0.20624113449726256
aF-0.17164298782813323
aF-0.5394505874690161
aF0.3278948088550169
aF0.03925883388537746
aF0.7973706189088747
aF-0.691246623280596
aF0.8523142663860988
aF-0.604877558291007
aa(lp45
F5.743185649784599
aF12.608555630058065
aF7.593877770949461
aF-6.11059256371237
aF0.9387931406315434
aF1.4100925087532972
aF0.5417079952727823
aF-0.13264195067428458
aF0.6607103517121276
aF-0.6318576875182565
aF0.6111866522380635
aF-0.3544840958022127
aF-0.5193942734644816
aF0.4141727107179555
aF-0.737071567252682
aF0.20300425947473996
aF0.21924319828180935
aa(lp46
F12.662299163527221
aF-13.309877208866322
aF0.34384216840896553
aF29.58593838046208
aF1.6548000280681239
aF-0.18812707747239227
aF1.0396061450473049
aF-0.19506753088852624
aF-0.1113758938512331
aF0.882177044625257
aF-0.3242400170772138
aF-0.7016782345906316
aF0.8731334371641438
aF-0.358131371127225
aF0.9625551838984239
aF-0.4041292630730273
aF-0.05329686877807588
aa(lp47
F4.2247240538250415
aF-9.68320201098575
aF9.116836385490057
aF6.25311156575773
aF0.06529163110950702
aF0.7784958751729443
aF0.6925091833978988
aF-0.27608224589502267
aF0.6750092359590267
aF-0.3312275360642349
aF0.275012995519647
aF-0.1842099194121045
aF-0.1700587328958283
aF0.4287602593681657
aF-0.08554656583667465
aF0.793005410734292
aF-0.007936572811637815
aa(lp48
F13.82260552640778
aF-17.898484662607846
aF5.561500222704681
aF33.3308162748122
aF0.31357926295126226
aF1.7247176365823365
aF0.046747149194449104
aF0.6667668847690055
aF0.9687595834246245
aF-0.6813523173471907
aF-0.718144625736928
aF0.9255735158144527
aF0.6317038132850152
aF0.9576204180073458
aF-0.3995608974614521
aF-0.11111517786683407
aF-0.17489415635701272
aa(lp49
F14.284241414735614
aF-13.731214585816886
aF-2.494857299039108
aF29.595780759804295
aF0.3403643216916504
aF-0.24337448596642608
aF0.38201307254099887
aF0.4363583822588139
aF0.5628333722595117
aF0.49122381017806743
aF-0.27917119512009864
aF0.4284820811250675
aF0.9600082682139046
aF-0.3169147702141548
aF1.055318761522753
aF-0.11932133017943655
aF0.06344382824151582
aa(lp50
F-9.453094384390402
aF21.019384700804117
aF18.5458321443774
aF-25.929471755804016
aF-1.3092554392981952
aF1.1628372936688638
aF0.6061179007959473
aF-0.8945453424128632
aF0.5267516897386593
aF-1.0642767402858935
aF-0.7363132511783288
aF-0.5891756500007237
aF0.5583356368362858
aF0.7367816232375745
aF0.4750528897458378
aF-0.8302137166764224
aF-0.46200509749581836
aa(lp51
F-4.616232787111653
aF-16.713289019280975
aF-7.201839230098943
aF12.845389778593212
aF-1.2740750315024139
aF-0.5263176120746885
aF0.13379648229022362
aF-0.8677026537248517
aF0.48517633308701297
aF-0.6064592838415971
aF0.594116251984613
aF0.012197607301705882
aF0.031427051316636756
aF-0.496572767286006
aF0.5201629279659076
aF-0.520069635257762
aF-0.9563446174200357
aaa(lp52
(lp53
F50.216989704855
aF278.7795548298918
aF97.05814027939381
aF-170.12602084465706
aF4.844600995354176
aF6.032759330579487
aF1.0373238486594585
aF0.44952282214060274
aF0.957830881887054
aF-0.03444743195643103
aF1.4063757500485785
aF1.0557217908933951
aF0.008877833083569393
aF1.0167323889483473
aF0.9204509566230322
aF0.9243627118602443
aF-0.27889210229592987
aa(lp54
F-76.39793017868344
aF95.92046549097374
aF122.68419971761982
aF-78.77060322581512
aF-6.575379304269393
aF1.9647846509148996
aF0.4265471384152121
aF-1.032388258846699
aF-0.09723969477042678
aF-0.689444639059776
aF0.05248238685384253
aF-0.30502444257098554
aF0.43748605102267024
aF0.29106460172864596
aF-0.7631583903343496
aF0.3844060317315869
aF-0.7572112556486126
aa(lp55
F86.69141130813706
aF-209.33897605545616
aF-49.159135892545
aF305.566712697643
aF6.468062613250585
aF3.9946229630651042
aF1.833491644571684
aF1.9004993176182796
aF0.48059069315962444
aF1.3576626061401729
aF0.49081139161879417
aF1.7652065703217237
aF0.471439272152603
aF1.9075243807359674
aF1.3401271723815817
aF0.22747552022861534
aF1.3721704418564715
aa(lp56
F41.391005398453956
aF-46.00061464209879
aF-4.96387642331086
aF25.799193633820554
aF4.152236053555298
aF3.18113700230861
aF1.2644149769640636
aF0.6642531104488356
aF0.7236861386265256
aF0.8897930744675047
aF-0.349610683158459
aF1.2328854659652257
aF1.0982543422897217
aF0.9925800151806796
aF-0.051199669973932715
aF0.8860527549378499
aF0.1239389234407716
aa(lp57
F38.994578561665556
aF-30.43213267058223
aF-2.1591241707579094
aF13.36420398606601
aF2.2702867218097142
aF2.677932809007585
aF0.5480600484259972
aF0.09287413967780853
aF-0.1939362127018489
aF0.07785667818961384
aF-0.2295594402637695
aF-0.24398156165750173
aF-0.021988587390887212
aF1.212974919226245
aF0.2649514414726428
aF1.2891301199923557
aF0.6750430944121454
aa(lp58
F6.12065430754255
aF-21.508303802556995
aF-7.80790027917272
aF19.160512422120785
aF-0.11879880760604496
aF0.8954789788097872
aF1.0176458830111916
aF0.9911669414617931
aF0.9483023030360637
aF-0.44916692922138696
aF0.3825477550310088
aF0.8054236506405722
aF0.9516869339936364
aF0.5292356501497585
aF-0.8242006877770766
aF-0.5769182117134664
aF0.5260556154361619
aa(lp59
F14.612996988671298
aF-7.967586637131074
aF0.7724756806756264
aF10.245392837616082
aF0.3435674029748053
aF1.4848892567509415
aF-0.26342798356538516
aF1.0011785049331312
aF-0.47765940990493877
aF0.03439468252163658
aF-0.19485158484850196
aF0.9388035188404852
aF-0.282382273299176
aF-0.028478850535958198
aF0.7191188083010771
aF-0.5407494849790164
aF0.9902252230549778
aa(lp60
F2.68717087750241
aF-6.589984982539161
aF-0.9839892326000746
aF7.179425906514374
aF-0.3477675299772463
aF1.2598554211519872
aF1.086510328563774
aF1.3499283742520054
aF0.4623651069045339
aF0.4938182036855838
aF1.1506338383462547
aF0.15109246070366575
aF1.1074336260623496
aF0.6742205557097984
aF0.08332127352910426
aF-0.08149644150049641
aF1.0807417482286756
aa(lp61
F18.06291608257344
aF3.490962631952371
aF-0.7611206492409229
aF-8.604360736828498
aF1.8985106678444064
aF0.7885729535133896
aF-0.3358150664494981
aF-0.1384545149925926
aF-0.03965049811976572
aF0.041770839509537264
aF-0.47998885571633676
aF-0.5285273676942964
aF0.575564291842448
aF-0.435942640478027
aF-0.7732396988134556
aF0.34742570136253964
aF-0.5414135969218136
aa(lp62
F13.63111153657475
aF-4.731074367968601
aF0.7129886872216468
aF10.075248651008103
aF0.9806744198404784
aF0.44492060875411027
aF0.38754972438209406
aF-0.4123019062644034
aF0.2980563704110369
aF0.14629745749012546
aF-0.4199287542239435
aF0.3996283091474043
aF-0.19090355254776037
aF-0.4059944523989211
aF0.9947524979121486
aF0.33632847884916706
aF0.25482192565275763
aa(lp63
F15.259135934992244
aF-8.316309094662353
aF-1.3653648628598127
aF12.701464186105055
aF0.6477138498883335
aF0.947553195839836
aF0.12975349670363986
aF-0.276835003011954
aF0.6098699125159488
aF-0.10853573123659774
aF1.3188583647630825
aF-0.25590590308073435
aF0.5341627234770823
aF-0.08557167463727179
aF0.009780508247118198
aF-0.4538180524613463
aF-0.2967801554519197
aa(lp64
F17.08888272597623
aF-12.572753616174667
aF-2.708036567231081
aF15.505821416024812
aF0.4125783032289604
aF1.5136333057859557
aF-0.6216327696173679
aF1.0168333264268252
aF0.5687306832588819
aF-0.07018170686684629
aF0.268206435208157
aF-0.2370180088343053
aF1.2215779232375727
aF1.1590559916825838
aF0.278198198169409
aF0.03554126237307463
aF-0.3797497063317218
aa(lp65
F11.09511595188892
aF7.555802166905061
aF2.096248894159344
aF-3.176683742223238
aF0.9234949573482902
aF1.2661870883264392
aF-0.26732055603222404
aF0.031721175829730046
aF-0.36081381550843833
aF-0.2836243531177352
aF0.862869743550842
aF0.27723876402411485
aF-0.015447124052305528
aF-0.3792467943347757
aF-0.22560056400330536
aF-0.6155845921949786
aF0.6761882986356237
aa(lp66
F17.844506510308104
aF-8.381561485705863
aF-0.5716912140557334
aF2.5721729405306513
aF1.0721258922417969
aF1.465388212631315
aF1.2083148042798366
aF0.7210194509911606
aF0.02491294347418746
aF0.7545749393158631
aF0.5093031523538684
aF-0.29804737362483785
aF0.8087007122481691
aF0.18675614323666037
aF0.041047626608530605
aF-0.036483560231642266
aF0.1407190163333909
aa(lp67
F11.14322561165049
aF-9.404325049370522
aF1.6621510509331372
aF13.723856210781546
aF-0.10613449550507478
aF-0.24941634555702627
aF-0.8101636771024547
aF-0.6104834704779113
aF0.03893213009655831
aF-0.03931130345460558
aF0.7326389615108947
aF-0.2964935347007332
aF-0.3584652037455848
aF-0.12543066819682144
aF-0.3136612709971685
aF-0.23231975064877736
aF-0.35192655211866997
aa(lp68
F13.228462887979248
aF5.555039790033248
aF1.90735456643656
aF-5.546976583512985
aF0.13886411001565954
aF0.8792124637583673
aF0.23542506400308846
aF0.3916506855625646
aF-0.4770668938792052
aF-0.41091626279627697
aF0.13313075587812614
aF0.6070046142745842
aF1.1004945138988986
aF1.1366118565738343
aF0.6089215874708105
aF1.1384306911711222
aF-0.21164867953602898
aaa(lp69
(lp70
F117.31454953096254
aF-305.8368101387931
aF-61.94835227879001
aF220.54734503544978
aF9.16583250819095
aF6.7619270533541975
aF1.493031615062784
aF1.4307028132845958
aF1.3454462338304956
aF1.0057085294960724
aF1.2459554235861665
aF1.5057272337356225
aF2.0691608017417416
aF0.35596671243462225
aF1.924892652504186
aF1.085458872058227
aF0.802044586370298
aa(lp71
F78.05987879616781
aF6.530468785735968
aF-55.92285263832904
aF-53.64003602600902
aF8.552166953243391
aF7.870125156156981
aF0.05925318474901756
aF0.5566012903029818
aF-0.3155489621337499
aF1.264448321197047
aF0.5277557529122108
aF1.201061617483969
aF1.22032856971749
aF0.7022711832340475
aF1.1464962610976537
aF0.006146400579215302
aF1.189501751463361
aa(lp72
F47.939334073264774
aF118.15308501745747
aF35.201727152476266
aF-214.57614742580085
aF3.4918516383394427
aF3.6147805856274364
aF1.0742353997315064
aF0.3044761572338538
aF0.2577225681654086
aF1.235606847746418
aF-0.03234177061394728
aF-0.14950961745248748
aF-0.22840026627806792
aF0.6806910916809965
aF1.4052704308239818
aF-0.0660818932516424
aF1.3361291754314089
aa(lp73
F4.0785787021405495
aF-0.06309985667123115
aF-2.26730138787801
aF-3.654558558128581
aF-1.2831673801567713
aF0.12060082889669829
aF-0.21218523216064258
aF-0.0032985337771295215
aF-0.9839999562950685
aF-0.6743008307121174
aF-0.8229125593267734
aF0.24438051433045488
aF-0.562762213831532
aF-0.1390437673996446
aF0.8242673733203502
aF-0.21825496292040855
aF-0.21989694666429818
aa(lp74
F6.015404453666114
aF-3.5632291553868822
aF-13.150103713320545
aF10.102311123538383
aF-0.25419214858062905
aF-3.733602572837306
aF-0.10565649063508935
aF0.55493692616988
aF0.08525676801114115
aF-0.7677260258628589
aF0.25567198542040365
aF-0.3490913366720307
aF0.0721770463716456
aF-0.6520981709808208
aF-0.42094282451380505
aF-0.20804489630977005
aF-0.25174391782233635
aa(lp75
F-33.390223629897704
aF-9.454660650017253
aF-9.379516316567253
aF-9.79950582668592
aF-2.506640321299692
aF-1.8788574044546924
aF-1.4319929323852547
aF-1.0876074909147346
aF-1.8221621413315143
aF-0.17123306025219534
aF-0.34288422057124496
aF-1.1715811522465038
aF-0.9502742628718807
aF-0.828323197329882
aF-0.16178486297788655
aF-0.38387069871526436
aF-1.5627227817167322
aa(lp76
F-34.55362705277668
aF-10.166603179847977
aF-7.877886269375925
aF-9.877180075627518
aF-2.9127060525463633
aF-1.892072970954235
aF-0.36818620305452887
aF-0.41111736782286673
aF-1.4820740118469466
aF0.04362171163900879
aF-0.2051974761492716
aF-0.7699927327492636
aF-0.6375906105959126
aF-1.7404541035955767
aF-0.9968179028466913
aF-1.4180202388153018
aF-0.9809239883318328
aa(lp77
F-33.8315541773568
aF-9.59264095515123
aF-7.742337782517497
aF-9.438808738164724
aF-1.8176260983558772
aF-3.179669641809614
aF-0.8752870311150146
aF-0.8026495940941473
aF-1.7340083287964094
aF-0.713698868379334
aF-0.7039789595221075
aF-1.6255367056553753
aF-0.43934840232174516
aF-1.256730720064556
aF-1.419740578863079
aF-0.8241428472632049
aF-0.4195851589050663
aa(lp78
F-33.75594382183599
aF-9.944677875679506
aF-8.615140954516026
aF-9.19227505863235
aF-3.487204293249564
aF-2.8200269307072414
aF-0.8515211443339217
aF-0.8685243375598527
aF-0.00952247634633496
aF-0.8838217191167513
aF-1.5892216439777425
aF-0.4605563728546861
aF-1.6020723090884248
aF-1.0173833153077512
aF-1.090111098689906
aF-0.42431827728675214
aF0.2381585578556932
aa(lp79
F-33.99373254873396
aF-9.975593716287264
aF-9.288736273768306
aF-9.760068838384822
aF-2.8392002902285802
aF-1.8791128664986267
aF-0.7819102100179638
aF-0.5247430999920517
aF-1.083060876721979
aF-0.7551180907941788
aF-1.738786843090164
aF-0.5429454700401538
aF-0.4145628819265601
aF-0.04686557604193912
aF-1.2872740525119473
aF0.0844041327561751
aF-1.3960551906855294
aa(lp80
F-33.20404386341943
aF-10.654766868857333
aF-7.524158700952169
aF-10.071381497863033
aF-2.4677766323928534
aF-2.208924615599302
aF-0.9523930727170079
aF-1.4568881108278997
aF-1.3427940124768412
aF-0.27254051659463746
aF-1.3058648929220393
aF-1.226311528392225
aF0.04100124001954448
aF-0.1901761084072886
aF-1.7151307254811727
aF-0.40984749169180124
aF-1.3529551777567619
aa(lp81
F-33.402219557407996
aF-10.712012516295452
aF-7.884248458737558
aF-9.791321907411215
aF-3.5847376243236893
aF-3.540666084500415
aF-1.395056086829853
aF0.09618682868375289
aF-1.4069097376807285
aF-0.178140194719246
aF-0.29297848082567823
aF-0.35134363795468193
aF-0.82783740669498
aF-1.3424632030544428
aF-0.21464916162772046
aF-0.7986027982320543
aF-0.7323674082370527
aa(lp82
F-34.02756748135791
aF-11.101453287170518
aF-8.442247426740693
aF-8.848506132563628
aF-2.3059731484378085
aF-2.9551361944451893
aF-0.45314154145783825
aF-0.14978632577329096
aF-1.5722148766465118
aF-0.6780843115442204
aF-0.2737952848164657
aF-1.8172975074109534
aF-1.5512686341602966
aF-0.2673782666051949
aF-0.8198386669248967
aF-0.6766729503796752
aF-0.33260465611220114
aa(lp83
F-34.48490313373833
aF-10.229314819362886
aF-9.309838060920356
aF-8.518362029471842
aF-1.7444443752913665
aF-3.4831159113526167
aF-1.3999096510521583
aF0.07655135362026845
aF-0.6361060350615304
aF-0.2668092658755666
aF-0.785262871565217
aF0.010918204395474912
aF-1.690278678524827
aF-0.8200657491850342
aF-0.9932633479529615
aF-0.6727492241066901
aF-1.3874027978862584
aa(lp84
F-33.853782291168336
aF-10.540129329528728
aF-8.228454224747033
aF-9.094992222886056
aF-3.170370848980833
aF-2.2523511504758087
aF0.028181813516178066
aF-1.6434849476511795
aF-1.547302156249193
aF-1.6952753563872303
aF-1.0698205719906757
aF-1.4473229633021854
aF-0.18509810893227369
aF0.06744810986547212
aF0.0021820426634352494
aF-0.625803025531884
aF-1.0905783268967677
aa(lp85
F-34.62950033354823
aF-9.351586261496477
aF-8.661683962987382
aF-8.72101612332788
aF-3.2238646599017966
aF-2.1794451154865877
aF0.0005010676583531781
aF-0.9768243187345974
aF-1.5897701475208479
aF-0.16277677436172464
aF-1.1511782297035662
aF-0.16130885774424789
aF-1.4750839704211296
aF-1.6739285568938658
aF-1.5755070120575805
aF-0.9656636866051624
aF0.27234155353023626
aaa.